                              1 ;--------------------------------------------------------
                              2 ; File Created by SDCC : free open source ANSI-C Compiler
                              3 ; Version 3.6.8 #9946 (Linux)
                              4 ;--------------------------------------------------------
                              5 	.module niveles
                              6 	.optsdcc -mz80
                              7 	
                              8 ;--------------------------------------------------------
                              9 ; Public variables in this module
                             10 ;--------------------------------------------------------
                             11 	.globl _crearMapa
                             12 	.globl _cpct_drawSolidBox
                             13 	.globl _initNiveles
                             14 	.globl _crearNivel
                             15 	.globl _resetLevel
                             16 	.globl _limpiarPantalla
                             17 	.globl _createMarco
                             18 	.globl _createPlayer
                             19 	.globl _createRoca
                             20 	.globl _createRocaEspejo
                             21 	.globl _createPuerta
                             22 	.globl _createPortal
                             23 	.globl _createHoleIzquierda
                             24 	.globl _createHoleDerecha
                             25 	.globl _createColeccionabeLuz
                             26 	.globl _createColeccionabeFamilia
                             27 	.globl _createColeccionabeAmstr
                             28 	.globl _crearNivel1
                             29 	.globl _crearNivel01_01
                             30 	.globl _crearNivel2
                             31 	.globl _crearNivelTRAP01
                             32 	.globl _crearNievel3
                             33 	.globl _crearNievel4
                             34 	.globl _crearNievel4_01
                             35 	.globl _crearNievel5
                             36 	.globl _crearNievel6
                             37 	.globl _crearNievel7
                             38 ;--------------------------------------------------------
                             39 ; special function registers
                             40 ;--------------------------------------------------------
                             41 ;--------------------------------------------------------
                             42 ; ram data
                             43 ;--------------------------------------------------------
                             44 	.area _DATA
   0000                      45 _niveles:
   0000                      46 	.ds 100
   0064                      47 _contadorRocas:
   0064                      48 	.ds 1
   0065                      49 _contadorRocasEspejo:
   0065                      50 	.ds 1
   0066                      51 _contadorPuertas:
   0066                      52 	.ds 1
   0067                      53 _contadorColeccionables:
   0067                      54 	.ds 1
   0068                      55 _P_colList2:
   0068                      56 	.ds 2
                             57 ;--------------------------------------------------------
                             58 ; ram data
                             59 ;--------------------------------------------------------
                             60 	.area _INITIALIZED
                             61 ;--------------------------------------------------------
                             62 ; absolute external ram data
                             63 ;--------------------------------------------------------
                             64 	.area _DABS (ABS)
                             65 ;--------------------------------------------------------
                             66 ; global & static initialisations
                             67 ;--------------------------------------------------------
                             68 	.area _HOME
                             69 	.area _GSINIT
                             70 	.area _GSFINAL
                             71 	.area _GSINIT
                             72 ;--------------------------------------------------------
                             73 ; Home
                             74 ;--------------------------------------------------------
                             75 	.area _HOME
                             76 	.area _HOME
                             77 ;--------------------------------------------------------
                             78 ; code
                             79 ;--------------------------------------------------------
                             80 	.area _CODE
                             81 ;src/niveles/niveles.c:9: void initNiveles(u8* collist){
                             82 ;	---------------------------------
                             83 ; Function initNiveles
                             84 ; ---------------------------------
   0000                      85 _initNiveles::
                             86 ;src/niveles/niveles.c:11: niveles[nivel_01]=crearNivel1;
   0000 21r81r06      [10]   87 	ld	hl, #_crearNivel1
   0003 22r02r00      [16]   88 	ld	((_niveles + 0x0002)), hl
                             89 ;src/niveles/niveles.c:12: niveles[nivel_01_01]=crearNivel01_01;    
   0006 21r7Br09      [10]   90 	ld	hl, #_crearNivel01_01
   0009 22r04r00      [16]   91 	ld	((_niveles + 0x0004)), hl
                             92 ;src/niveles/niveles.c:13: niveles[nivel_02]=crearNivel2;
   000C 21r7Cr09      [10]   93 	ld	hl, #_crearNivel2
   000F 22r08r00      [16]   94 	ld	((_niveles + 0x0008)), hl
                             95 ;src/niveles/niveles.c:14: niveles[nivel_TRAP_01]=crearNivelTRAP01;  
   0012 21r7Dr09      [10]   96 	ld	hl, #_crearNivelTRAP01
   0015 22r06r00      [16]   97 	ld	((_niveles + 0x0006)), hl
                             98 ;src/niveles/niveles.c:15: niveles[nivel_03]=crearNievel3;
   0018 21r08r0D      [10]   99 	ld	hl, #_crearNievel3
   001B 22r0Ar00      [16]  100 	ld	((_niveles + 0x000a)), hl
                            101 ;src/niveles/niveles.c:16: niveles[nivel_04]=crearNievel4;
   001E 21r2Ar10      [10]  102 	ld	hl, #_crearNievel4
   0021 22r0Cr00      [16]  103 	ld	((_niveles + 0x000c)), hl
                            104 ;src/niveles/niveles.c:17: niveles[nivel_04_01]=crearNievel4_01;
   0024 21r90r13      [10]  105 	ld	hl, #_crearNievel4_01
   0027 22r0Er00      [16]  106 	ld	((_niveles + 0x000e)), hl
                            107 ;src/niveles/niveles.c:18: niveles[nivel_05]=crearNievel5;
   002A 21rB0r17      [10]  108 	ld	hl, #_crearNievel5
   002D 22r10r00      [16]  109 	ld	((_niveles + 0x0010)), hl
                            110 ;src/niveles/niveles.c:19: niveles[nivel_06]=crearNievel6;
   0030 21r83r1D      [10]  111 	ld	hl, #_crearNievel6
   0033 22r12r00      [16]  112 	ld	((_niveles + 0x0012)), hl
                            113 ;src/niveles/niveles.c:20: niveles[nivel_07]=crearNievel7;
   0036 21r22r23      [10]  114 	ld	hl, #_crearNievel7
   0039 22r14r00      [16]  115 	ld	((_niveles + 0x0014)), hl
                            116 ;src/niveles/niveles.c:25: P_colList2=collist;
   003C 21 02 00      [10]  117 	ld	hl, #2+0
   003F 39            [11]  118 	add	hl, sp
   0040 7E            [ 7]  119 	ld	a, (hl)
   0041 32r68r00      [13]  120 	ld	(#_P_colList2 + 0),a
   0044 21 03 00      [10]  121 	ld	hl, #2+1
   0047 39            [11]  122 	add	hl, sp
   0048 7E            [ 7]  123 	ld	a, (hl)
   0049 32r69r00      [13]  124 	ld	(#_P_colList2 + 1),a
                            125 ;src/niveles/niveles.c:26: contadorRocas=0;
   004C 21r64r00      [10]  126 	ld	hl,#_contadorRocas + 0
   004F 36 00         [10]  127 	ld	(hl), #0x00
                            128 ;src/niveles/niveles.c:27: contadorRocasEspejo=0;
   0051 21r65r00      [10]  129 	ld	hl,#_contadorRocasEspejo + 0
   0054 36 00         [10]  130 	ld	(hl), #0x00
                            131 ;src/niveles/niveles.c:28: contadorPuertas=0;
   0056 21r66r00      [10]  132 	ld	hl,#_contadorPuertas + 0
   0059 36 00         [10]  133 	ld	(hl), #0x00
                            134 ;src/niveles/niveles.c:29: contadorColeccionables=0;
   005B 21r67r00      [10]  135 	ld	hl,#_contadorColeccionables + 0
   005E 36 00         [10]  136 	ld	(hl), #0x00
   0060 C9            [10]  137 	ret
                            138 ;src/niveles/niveles.c:33: void crearNivel(TGameObject* player,TGameObject* rocas,TGameObject* rocasEspejo,TGameObject* puertas,TGameObject* portales,TGameObjectCol* coleccionables,u8* posicion,u8 nivel){
                            139 ;	---------------------------------
                            140 ; Function crearNivel
                            141 ; ---------------------------------
   0061                     142 _crearNivel::
   0061 DD E5         [15]  143 	push	ix
   0063 DD 21 00 00   [14]  144 	ld	ix,#0
   0067 DD 39         [15]  145 	add	ix,sp
                            146 ;src/niveles/niveles.c:34: limpiarPantalla();
   0069 CDr92r01      [17]  147 	call	_limpiarPantalla
                            148 ;src/niveles/niveles.c:35: resetLevel(player,rocas,rocasEspejo,puertas,portales,coleccionables);    
   006C DD 6E 0E      [19]  149 	ld	l,14 (ix)
   006F DD 66 0F      [19]  150 	ld	h,15 (ix)
   0072 E5            [11]  151 	push	hl
   0073 DD 6E 0C      [19]  152 	ld	l,12 (ix)
   0076 DD 66 0D      [19]  153 	ld	h,13 (ix)
   0079 E5            [11]  154 	push	hl
   007A DD 6E 0A      [19]  155 	ld	l,10 (ix)
   007D DD 66 0B      [19]  156 	ld	h,11 (ix)
   0080 E5            [11]  157 	push	hl
   0081 DD 6E 08      [19]  158 	ld	l,8 (ix)
   0084 DD 66 09      [19]  159 	ld	h,9 (ix)
   0087 E5            [11]  160 	push	hl
   0088 DD 6E 06      [19]  161 	ld	l,6 (ix)
   008B DD 66 07      [19]  162 	ld	h,7 (ix)
   008E E5            [11]  163 	push	hl
   008F DD 6E 04      [19]  164 	ld	l,4 (ix)
   0092 DD 66 05      [19]  165 	ld	h,5 (ix)
   0095 E5            [11]  166 	push	hl
   0096 CDrE8r00      [17]  167 	call	_resetLevel
   0099 21 0C 00      [10]  168 	ld	hl, #12
   009C 39            [11]  169 	add	hl, sp
   009D F9            [ 6]  170 	ld	sp, hl
                            171 ;src/niveles/niveles.c:36: niveles[nivel](player,rocas,rocasEspejo,puertas,portales,coleccionables,posicion);
   009E 01r00r00      [10]  172 	ld	bc, #_niveles+0
   00A1 DD 6E 12      [19]  173 	ld	l, 18 (ix)
   00A4 26 00         [ 7]  174 	ld	h, #0x00
   00A6 29            [11]  175 	add	hl, hl
   00A7 09            [11]  176 	add	hl, bc
   00A8 4E            [ 7]  177 	ld	c, (hl)
   00A9 23            [ 6]  178 	inc	hl
   00AA 66            [ 7]  179 	ld	h, (hl)
   00AB DD 5E 10      [19]  180 	ld	e,16 (ix)
   00AE DD 56 11      [19]  181 	ld	d,17 (ix)
   00B1 D5            [11]  182 	push	de
   00B2 DD 5E 0E      [19]  183 	ld	e,14 (ix)
   00B5 DD 56 0F      [19]  184 	ld	d,15 (ix)
   00B8 D5            [11]  185 	push	de
   00B9 DD 5E 0C      [19]  186 	ld	e,12 (ix)
   00BC DD 56 0D      [19]  187 	ld	d,13 (ix)
   00BF D5            [11]  188 	push	de
   00C0 DD 5E 0A      [19]  189 	ld	e,10 (ix)
   00C3 DD 56 0B      [19]  190 	ld	d,11 (ix)
   00C6 D5            [11]  191 	push	de
   00C7 DD 5E 08      [19]  192 	ld	e,8 (ix)
   00CA DD 56 09      [19]  193 	ld	d,9 (ix)
   00CD D5            [11]  194 	push	de
   00CE DD 5E 06      [19]  195 	ld	e,6 (ix)
   00D1 DD 56 07      [19]  196 	ld	d,7 (ix)
   00D4 D5            [11]  197 	push	de
   00D5 DD 5E 04      [19]  198 	ld	e,4 (ix)
   00D8 DD 56 05      [19]  199 	ld	d,5 (ix)
   00DB D5            [11]  200 	push	de
   00DC 69            [ 4]  201 	ld	l, c
   00DD CDr00r00      [17]  202 	call	___sdcc_call_hl
   00E0 21 0E 00      [10]  203 	ld	hl, #14
   00E3 39            [11]  204 	add	hl, sp
   00E4 F9            [ 6]  205 	ld	sp, hl
   00E5 DD E1         [14]  206 	pop	ix
   00E7 C9            [10]  207 	ret
                            208 ;src/niveles/niveles.c:40: void resetLevel(TGameObject* player,TGameObject* rocas,TGameObject* rocasEspejo,TGameObject* puertas,TGameObject* portales,TGameObjectCol* coleccionables){
                            209 ;	---------------------------------
                            210 ; Function resetLevel
                            211 ; ---------------------------------
   00E8                     212 _resetLevel::
   00E8 DD E5         [15]  213 	push	ix
   00EA DD 21 00 00   [14]  214 	ld	ix,#0
   00EE DD 39         [15]  215 	add	ix,sp
                            216 ;src/niveles/niveles.c:41: player->posx=0;
   00F0 DD 4E 04      [19]  217 	ld	c,4 (ix)
   00F3 DD 46 05      [19]  218 	ld	b,5 (ix)
   00F6 03            [ 6]  219 	inc	bc
   00F7 AF            [ 4]  220 	xor	a, a
   00F8 02            [ 7]  221 	ld	(bc), a
                            222 ;src/niveles/niveles.c:42: for(u8 i =0;i<RocasMaximas;i++){
   00F9 0E 00         [ 7]  223 	ld	c, #0x00
   00FB                     224 00106$:
   00FB 79            [ 4]  225 	ld	a, c
   00FC D6 28         [ 7]  226 	sub	a, #0x28
   00FE 30 16         [12]  227 	jr	NC,00101$
                            228 ;src/niveles/niveles.c:43: rocas[i].posx=0; 
   0100 06 00         [ 7]  229 	ld	b,#0x00
   0102 69            [ 4]  230 	ld	l, c
   0103 60            [ 4]  231 	ld	h, b
   0104 29            [11]  232 	add	hl, hl
   0105 09            [11]  233 	add	hl, bc
   0106 29            [11]  234 	add	hl, hl
   0107 09            [11]  235 	add	hl, bc
   0108 EB            [ 4]  236 	ex	de,hl
   0109 DD 6E 06      [19]  237 	ld	l,6 (ix)
   010C DD 66 07      [19]  238 	ld	h,7 (ix)
   010F 19            [11]  239 	add	hl, de
   0110 23            [ 6]  240 	inc	hl
   0111 36 00         [10]  241 	ld	(hl), #0x00
                            242 ;src/niveles/niveles.c:42: for(u8 i =0;i<RocasMaximas;i++){
   0113 0C            [ 4]  243 	inc	c
   0114 18 E5         [12]  244 	jr	00106$
   0116                     245 00101$:
                            246 ;src/niveles/niveles.c:45: for(u8 i =0;i<RocasMaximas;i++){
   0116 0E 00         [ 7]  247 	ld	c, #0x00
   0118                     248 00109$:
   0118 79            [ 4]  249 	ld	a, c
   0119 D6 28         [ 7]  250 	sub	a, #0x28
   011B 30 16         [12]  251 	jr	NC,00102$
                            252 ;src/niveles/niveles.c:46: rocasEspejo[i].posx=0; 
   011D 06 00         [ 7]  253 	ld	b,#0x00
   011F 69            [ 4]  254 	ld	l, c
   0120 60            [ 4]  255 	ld	h, b
   0121 29            [11]  256 	add	hl, hl
   0122 09            [11]  257 	add	hl, bc
   0123 29            [11]  258 	add	hl, hl
   0124 09            [11]  259 	add	hl, bc
   0125 EB            [ 4]  260 	ex	de,hl
   0126 DD 6E 08      [19]  261 	ld	l,8 (ix)
   0129 DD 66 09      [19]  262 	ld	h,9 (ix)
   012C 19            [11]  263 	add	hl, de
   012D 23            [ 6]  264 	inc	hl
   012E 36 00         [10]  265 	ld	(hl), #0x00
                            266 ;src/niveles/niveles.c:45: for(u8 i =0;i<RocasMaximas;i++){
   0130 0C            [ 4]  267 	inc	c
   0131 18 E5         [12]  268 	jr	00109$
   0133                     269 00102$:
                            270 ;src/niveles/niveles.c:48: for(u8 i =0;i<PuertasMaximas;i++){
   0133 0E 00         [ 7]  271 	ld	c, #0x00
   0135                     272 00112$:
   0135 79            [ 4]  273 	ld	a, c
   0136 D6 06         [ 7]  274 	sub	a, #0x06
   0138 30 16         [12]  275 	jr	NC,00103$
                            276 ;src/niveles/niveles.c:49: puertas[i].posx=0; 
   013A 06 00         [ 7]  277 	ld	b,#0x00
   013C 69            [ 4]  278 	ld	l, c
   013D 60            [ 4]  279 	ld	h, b
   013E 29            [11]  280 	add	hl, hl
   013F 09            [11]  281 	add	hl, bc
   0140 29            [11]  282 	add	hl, hl
   0141 09            [11]  283 	add	hl, bc
   0142 EB            [ 4]  284 	ex	de,hl
   0143 DD 6E 0A      [19]  285 	ld	l,10 (ix)
   0146 DD 66 0B      [19]  286 	ld	h,11 (ix)
   0149 19            [11]  287 	add	hl, de
   014A 23            [ 6]  288 	inc	hl
   014B 36 00         [10]  289 	ld	(hl), #0x00
                            290 ;src/niveles/niveles.c:48: for(u8 i =0;i<PuertasMaximas;i++){
   014D 0C            [ 4]  291 	inc	c
   014E 18 E5         [12]  292 	jr	00112$
   0150                     293 00103$:
                            294 ;src/niveles/niveles.c:51: portales[0].posx=0;
   0150 DD 4E 0C      [19]  295 	ld	c,12 (ix)
   0153 DD 46 0D      [19]  296 	ld	b,13 (ix)
   0156 59            [ 4]  297 	ld	e, c
   0157 50            [ 4]  298 	ld	d, b
   0158 13            [ 6]  299 	inc	de
   0159 AF            [ 4]  300 	xor	a, a
   015A 12            [ 7]  301 	ld	(de), a
                            302 ;src/niveles/niveles.c:52: portales[1].posx=0;
   015B 21 08 00      [10]  303 	ld	hl, #0x0008
   015E 09            [11]  304 	add	hl, bc
   015F 36 00         [10]  305 	ld	(hl), #0x00
                            306 ;src/niveles/niveles.c:54: for(u8 i =0;i<ColeccionablesMaximos;i++){
   0161 0E 00         [ 7]  307 	ld	c, #0x00
   0163                     308 00115$:
   0163 79            [ 4]  309 	ld	a, c
   0164 D6 03         [ 7]  310 	sub	a, #0x03
   0166 30 13         [12]  311 	jr	NC,00104$
                            312 ;src/niveles/niveles.c:55: coleccionables[i].posx=0; 
   0168 69            [ 4]  313 	ld	l, c
   0169 26 00         [ 7]  314 	ld	h, #0x00
   016B 29            [11]  315 	add	hl, hl
   016C 29            [11]  316 	add	hl, hl
   016D EB            [ 4]  317 	ex	de,hl
   016E DD 6E 0E      [19]  318 	ld	l,14 (ix)
   0171 DD 66 0F      [19]  319 	ld	h,15 (ix)
   0174 19            [11]  320 	add	hl, de
   0175 23            [ 6]  321 	inc	hl
   0176 36 00         [10]  322 	ld	(hl), #0x00
                            323 ;src/niveles/niveles.c:54: for(u8 i =0;i<ColeccionablesMaximos;i++){
   0178 0C            [ 4]  324 	inc	c
   0179 18 E8         [12]  325 	jr	00115$
   017B                     326 00104$:
                            327 ;src/niveles/niveles.c:58: contadorRocas=0;
   017B 21r64r00      [10]  328 	ld	hl,#_contadorRocas + 0
   017E 36 00         [10]  329 	ld	(hl), #0x00
                            330 ;src/niveles/niveles.c:59: contadorRocasEspejo=0;
   0180 21r65r00      [10]  331 	ld	hl,#_contadorRocasEspejo + 0
   0183 36 00         [10]  332 	ld	(hl), #0x00
                            333 ;src/niveles/niveles.c:60: contadorPuertas=0;
   0185 21r66r00      [10]  334 	ld	hl,#_contadorPuertas + 0
   0188 36 00         [10]  335 	ld	(hl), #0x00
                            336 ;src/niveles/niveles.c:61: contadorColeccionables=0;
   018A 21r67r00      [10]  337 	ld	hl,#_contadorColeccionables + 0
   018D 36 00         [10]  338 	ld	(hl), #0x00
   018F DD E1         [14]  339 	pop	ix
   0191 C9            [10]  340 	ret
                            341 ;src/niveles/niveles.c:63: void limpiarPantalla(){
                            342 ;	---------------------------------
                            343 ; Function limpiarPantalla
                            344 ; ---------------------------------
   0192                     345 _limpiarPantalla::
                            346 ;src/niveles/niveles.c:64: cpct_drawSolidBox(cpctm_screenPtr(CPCT_VMEM_START, 0, 0),0x00,36,144);
   0192 21 24 90      [10]  347 	ld	hl, #0x9024
   0195 E5            [11]  348 	push	hl
   0196 21 00 00      [10]  349 	ld	hl, #0x0000
   0199 E5            [11]  350 	push	hl
   019A 26 C0         [ 7]  351 	ld	h, #0xc0
   019C E5            [11]  352 	push	hl
   019D CDr00r00      [17]  353 	call	_cpct_drawSolidBox
                            354 ;src/niveles/niveles.c:65: cpct_drawSolidBox(cpctm_screenPtr(CPCT_VMEM_START, 36, 0),0x00,33,144);
   01A0 21 21 90      [10]  355 	ld	hl, #0x9021
   01A3 E5            [11]  356 	push	hl
   01A4 21 00 00      [10]  357 	ld	hl, #0x0000
   01A7 E5            [11]  358 	push	hl
   01A8 21 24 C0      [10]  359 	ld	hl, #0xc024
   01AB E5            [11]  360 	push	hl
   01AC CDr00r00      [17]  361 	call	_cpct_drawSolidBox
   01AF C9            [10]  362 	ret
                            363 ;src/niveles/niveles.c:69: void createMarco(u8 hay){
                            364 ;	---------------------------------
                            365 ; Function createMarco
                            366 ; ---------------------------------
   01B0                     367 _createMarco::
                            368 ;src/niveles/niveles.c:70: if (hay==si){
   01B0 21 02 00      [10]  369 	ld	hl, #2+0
   01B3 39            [11]  370 	add	hl, sp
   01B4 7E            [ 7]  371 	ld	a, (hl)
   01B5 B7            [ 4]  372 	or	a, a
   01B6 C0            [11]  373 	ret	NZ
                            374 ;src/niveles/niveles.c:71: crearMapa(0);  
   01B7 AF            [ 4]  375 	xor	a, a
   01B8 F5            [11]  376 	push	af
   01B9 33            [ 6]  377 	inc	sp
   01BA CDr00r00      [17]  378 	call	_crearMapa
   01BD 33            [ 6]  379 	inc	sp
   01BE C9            [10]  380 	ret
                            381 ;src/niveles/niveles.c:76: void createPlayer(TGameObject* player,u8 posx, u8 posy,u8* posicion){
                            382 ;	---------------------------------
                            383 ; Function createPlayer
                            384 ; ---------------------------------
   01BF                     385 _createPlayer::
                            386 ;src/niveles/niveles.c:78: *posicion=posicion_Izquieda;
   01BF 21 06 00      [10]  387 	ld	hl, #6
   01C2 39            [11]  388 	add	hl, sp
   01C3 4E            [ 7]  389 	ld	c, (hl)
   01C4 23            [ 6]  390 	inc	hl
   01C5 46            [ 7]  391 	ld	b, (hl)
                            392 ;src/niveles/niveles.c:77: if(posx<9){
   01C6 21 04 00      [10]  393 	ld	hl, #4+0
   01C9 39            [11]  394 	add	hl, sp
   01CA 7E            [ 7]  395 	ld	a, (hl)
   01CB D6 09         [ 7]  396 	sub	a, #0x09
   01CD 30 04         [12]  397 	jr	NC,00102$
                            398 ;src/niveles/niveles.c:78: *posicion=posicion_Izquieda;
   01CF AF            [ 4]  399 	xor	a, a
   01D0 02            [ 7]  400 	ld	(bc), a
   01D1 18 03         [12]  401 	jr	00103$
   01D3                     402 00102$:
                            403 ;src/niveles/niveles.c:80: *posicion=posicion_Derecha;        
   01D3 3E 01         [ 7]  404 	ld	a, #0x01
   01D5 02            [ 7]  405 	ld	(bc), a
   01D6                     406 00103$:
                            407 ;src/niveles/niveles.c:82: player->num=-1;
   01D6 D1            [10]  408 	pop	de
   01D7 C1            [10]  409 	pop	bc
   01D8 C5            [11]  410 	push	bc
   01D9 D5            [11]  411 	push	de
   01DA 3E FF         [ 7]  412 	ld	a, #0xff
   01DC 02            [ 7]  413 	ld	(bc), a
                            414 ;src/niveles/niveles.c:83: player->posx=posx;
   01DD 59            [ 4]  415 	ld	e, c
   01DE 50            [ 4]  416 	ld	d, b
   01DF 13            [ 6]  417 	inc	de
   01E0 21 04 00      [10]  418 	ld	hl, #4+0
   01E3 39            [11]  419 	add	hl, sp
   01E4 7E            [ 7]  420 	ld	a, (hl)
   01E5 12            [ 7]  421 	ld	(de), a
                            422 ;src/niveles/niveles.c:84: player->posy=posy;   
   01E6 59            [ 4]  423 	ld	e, c
   01E7 50            [ 4]  424 	ld	d, b
   01E8 13            [ 6]  425 	inc	de
   01E9 13            [ 6]  426 	inc	de
   01EA 21 05 00      [10]  427 	ld	hl, #5+0
   01ED 39            [11]  428 	add	hl, sp
   01EE 7E            [ 7]  429 	ld	a, (hl)
   01EF 12            [ 7]  430 	ld	(de), a
                            431 ;src/niveles/niveles.c:85: player->sprite=sprite_Player;
   01F0 69            [ 4]  432 	ld	l, c
   01F1 60            [ 4]  433 	ld	h, b
   01F2 23            [ 6]  434 	inc	hl
   01F3 23            [ 6]  435 	inc	hl
   01F4 23            [ 6]  436 	inc	hl
   01F5 36 01         [10]  437 	ld	(hl), #0x01
                            438 ;src/niveles/niveles.c:86: player->movimiento=mover_1;
   01F7 21 04 00      [10]  439 	ld	hl, #0x0004
   01FA 09            [11]  440 	add	hl, bc
   01FB 36 01         [10]  441 	ld	(hl), #0x01
   01FD C9            [10]  442 	ret
                            443 ;src/niveles/niveles.c:88: void createRoca(TGameObject* rocas,u8 posx, u8 posy,u8 mivimiento,u8 sprite, u8 simetria){
                            444 ;	---------------------------------
                            445 ; Function createRoca
                            446 ; ---------------------------------
   01FE                     447 _createRoca::
   01FE DD E5         [15]  448 	push	ix
   0200 DD 21 00 00   [14]  449 	ld	ix,#0
   0204 DD 39         [15]  450 	add	ix,sp
                            451 ;src/niveles/niveles.c:89: rocas[contadorRocas].num=simetria;
   0206 ED 4Br64r00   [20]  452 	ld	bc, (_contadorRocas)
   020A 06 00         [ 7]  453 	ld	b, #0x00
   020C 69            [ 4]  454 	ld	l, c
   020D 60            [ 4]  455 	ld	h, b
   020E 29            [11]  456 	add	hl, hl
   020F 09            [11]  457 	add	hl, bc
   0210 29            [11]  458 	add	hl, hl
   0211 09            [11]  459 	add	hl, bc
   0212 4D            [ 4]  460 	ld	c, l
   0213 44            [ 4]  461 	ld	b, h
   0214 DD 6E 04      [19]  462 	ld	l,4 (ix)
   0217 DD 66 05      [19]  463 	ld	h,5 (ix)
   021A 09            [11]  464 	add	hl, bc
   021B DD 7E 0A      [19]  465 	ld	a, 10 (ix)
   021E 77            [ 7]  466 	ld	(hl), a
                            467 ;src/niveles/niveles.c:90: rocas[contadorRocas].posx=posx;
   021F ED 4Br64r00   [20]  468 	ld	bc, (_contadorRocas)
   0223 06 00         [ 7]  469 	ld	b, #0x00
   0225 69            [ 4]  470 	ld	l, c
   0226 60            [ 4]  471 	ld	h, b
   0227 29            [11]  472 	add	hl, hl
   0228 09            [11]  473 	add	hl, bc
   0229 29            [11]  474 	add	hl, hl
   022A 09            [11]  475 	add	hl, bc
   022B 4D            [ 4]  476 	ld	c, l
   022C 44            [ 4]  477 	ld	b, h
   022D DD 6E 04      [19]  478 	ld	l,4 (ix)
   0230 DD 66 05      [19]  479 	ld	h,5 (ix)
   0233 09            [11]  480 	add	hl, bc
   0234 23            [ 6]  481 	inc	hl
   0235 DD 7E 06      [19]  482 	ld	a, 6 (ix)
   0238 77            [ 7]  483 	ld	(hl), a
                            484 ;src/niveles/niveles.c:91: rocas[contadorRocas].posy=posy;
   0239 ED 4Br64r00   [20]  485 	ld	bc, (_contadorRocas)
   023D 06 00         [ 7]  486 	ld	b, #0x00
   023F 69            [ 4]  487 	ld	l, c
   0240 60            [ 4]  488 	ld	h, b
   0241 29            [11]  489 	add	hl, hl
   0242 09            [11]  490 	add	hl, bc
   0243 29            [11]  491 	add	hl, hl
   0244 09            [11]  492 	add	hl, bc
   0245 4D            [ 4]  493 	ld	c, l
   0246 44            [ 4]  494 	ld	b, h
   0247 DD 6E 04      [19]  495 	ld	l,4 (ix)
   024A DD 66 05      [19]  496 	ld	h,5 (ix)
   024D 09            [11]  497 	add	hl, bc
   024E 23            [ 6]  498 	inc	hl
   024F 23            [ 6]  499 	inc	hl
   0250 DD 7E 07      [19]  500 	ld	a, 7 (ix)
   0253 77            [ 7]  501 	ld	(hl), a
                            502 ;src/niveles/niveles.c:92: rocas[contadorRocas].sprite=sprite;
   0254 ED 4Br64r00   [20]  503 	ld	bc, (_contadorRocas)
   0258 06 00         [ 7]  504 	ld	b, #0x00
   025A 69            [ 4]  505 	ld	l, c
   025B 60            [ 4]  506 	ld	h, b
   025C 29            [11]  507 	add	hl, hl
   025D 09            [11]  508 	add	hl, bc
   025E 29            [11]  509 	add	hl, hl
   025F 09            [11]  510 	add	hl, bc
   0260 4D            [ 4]  511 	ld	c, l
   0261 44            [ 4]  512 	ld	b, h
   0262 DD 6E 04      [19]  513 	ld	l,4 (ix)
   0265 DD 66 05      [19]  514 	ld	h,5 (ix)
   0268 09            [11]  515 	add	hl, bc
   0269 23            [ 6]  516 	inc	hl
   026A 23            [ 6]  517 	inc	hl
   026B 23            [ 6]  518 	inc	hl
   026C DD 7E 09      [19]  519 	ld	a, 9 (ix)
   026F 77            [ 7]  520 	ld	(hl), a
                            521 ;src/niveles/niveles.c:93: rocas[contadorRocas].movimiento=mivimiento;
   0270 ED 4Br64r00   [20]  522 	ld	bc, (_contadorRocas)
   0274 06 00         [ 7]  523 	ld	b, #0x00
   0276 69            [ 4]  524 	ld	l, c
   0277 60            [ 4]  525 	ld	h, b
   0278 29            [11]  526 	add	hl, hl
   0279 09            [11]  527 	add	hl, bc
   027A 29            [11]  528 	add	hl, hl
   027B 09            [11]  529 	add	hl, bc
   027C 4D            [ 4]  530 	ld	c, l
   027D 44            [ 4]  531 	ld	b, h
   027E DD 6E 04      [19]  532 	ld	l,4 (ix)
   0281 DD 66 05      [19]  533 	ld	h,5 (ix)
   0284 09            [11]  534 	add	hl, bc
   0285 01 04 00      [10]  535 	ld	bc, #0x0004
   0288 09            [11]  536 	add	hl, bc
   0289 DD 7E 08      [19]  537 	ld	a, 8 (ix)
   028C 77            [ 7]  538 	ld	(hl), a
                            539 ;src/niveles/niveles.c:94: contadorRocas++;    
   028D 21r64r00      [10]  540 	ld	hl, #_contadorRocas+0
   0290 34            [11]  541 	inc	(hl)
   0291 DD E1         [14]  542 	pop	ix
   0293 C9            [10]  543 	ret
                            544 ;src/niveles/niveles.c:96: void createRocaEspejo(TGameObject* rocasEspejo,u8 posx, u8 posy,u8 mivimiento,u8 sprite, u8 simetria){
                            545 ;	---------------------------------
                            546 ; Function createRocaEspejo
                            547 ; ---------------------------------
   0294                     548 _createRocaEspejo::
   0294 DD E5         [15]  549 	push	ix
   0296 DD 21 00 00   [14]  550 	ld	ix,#0
   029A DD 39         [15]  551 	add	ix,sp
                            552 ;src/niveles/niveles.c:97: rocasEspejo[contadorRocasEspejo].num=simetria;
   029C ED 4Br65r00   [20]  553 	ld	bc, (_contadorRocasEspejo)
   02A0 06 00         [ 7]  554 	ld	b, #0x00
   02A2 69            [ 4]  555 	ld	l, c
   02A3 60            [ 4]  556 	ld	h, b
   02A4 29            [11]  557 	add	hl, hl
   02A5 09            [11]  558 	add	hl, bc
   02A6 29            [11]  559 	add	hl, hl
   02A7 09            [11]  560 	add	hl, bc
   02A8 4D            [ 4]  561 	ld	c, l
   02A9 44            [ 4]  562 	ld	b, h
   02AA DD 6E 04      [19]  563 	ld	l,4 (ix)
   02AD DD 66 05      [19]  564 	ld	h,5 (ix)
   02B0 09            [11]  565 	add	hl, bc
   02B1 DD 7E 0A      [19]  566 	ld	a, 10 (ix)
   02B4 77            [ 7]  567 	ld	(hl), a
                            568 ;src/niveles/niveles.c:98: rocasEspejo[contadorRocasEspejo].posx=posx;
   02B5 ED 4Br65r00   [20]  569 	ld	bc, (_contadorRocasEspejo)
   02B9 06 00         [ 7]  570 	ld	b, #0x00
   02BB 69            [ 4]  571 	ld	l, c
   02BC 60            [ 4]  572 	ld	h, b
   02BD 29            [11]  573 	add	hl, hl
   02BE 09            [11]  574 	add	hl, bc
   02BF 29            [11]  575 	add	hl, hl
   02C0 09            [11]  576 	add	hl, bc
   02C1 4D            [ 4]  577 	ld	c, l
   02C2 44            [ 4]  578 	ld	b, h
   02C3 DD 6E 04      [19]  579 	ld	l,4 (ix)
   02C6 DD 66 05      [19]  580 	ld	h,5 (ix)
   02C9 09            [11]  581 	add	hl, bc
   02CA 23            [ 6]  582 	inc	hl
   02CB DD 7E 06      [19]  583 	ld	a, 6 (ix)
   02CE 77            [ 7]  584 	ld	(hl), a
                            585 ;src/niveles/niveles.c:99: rocasEspejo[contadorRocasEspejo].posy=posy;
   02CF ED 4Br65r00   [20]  586 	ld	bc, (_contadorRocasEspejo)
   02D3 06 00         [ 7]  587 	ld	b, #0x00
   02D5 69            [ 4]  588 	ld	l, c
   02D6 60            [ 4]  589 	ld	h, b
   02D7 29            [11]  590 	add	hl, hl
   02D8 09            [11]  591 	add	hl, bc
   02D9 29            [11]  592 	add	hl, hl
   02DA 09            [11]  593 	add	hl, bc
   02DB 4D            [ 4]  594 	ld	c, l
   02DC 44            [ 4]  595 	ld	b, h
   02DD DD 6E 04      [19]  596 	ld	l,4 (ix)
   02E0 DD 66 05      [19]  597 	ld	h,5 (ix)
   02E3 09            [11]  598 	add	hl, bc
   02E4 23            [ 6]  599 	inc	hl
   02E5 23            [ 6]  600 	inc	hl
   02E6 DD 7E 07      [19]  601 	ld	a, 7 (ix)
   02E9 77            [ 7]  602 	ld	(hl), a
                            603 ;src/niveles/niveles.c:100: rocasEspejo[contadorRocasEspejo].sprite=sprite;
   02EA ED 4Br65r00   [20]  604 	ld	bc, (_contadorRocasEspejo)
   02EE 06 00         [ 7]  605 	ld	b, #0x00
   02F0 69            [ 4]  606 	ld	l, c
   02F1 60            [ 4]  607 	ld	h, b
   02F2 29            [11]  608 	add	hl, hl
   02F3 09            [11]  609 	add	hl, bc
   02F4 29            [11]  610 	add	hl, hl
   02F5 09            [11]  611 	add	hl, bc
   02F6 4D            [ 4]  612 	ld	c, l
   02F7 44            [ 4]  613 	ld	b, h
   02F8 DD 6E 04      [19]  614 	ld	l,4 (ix)
   02FB DD 66 05      [19]  615 	ld	h,5 (ix)
   02FE 09            [11]  616 	add	hl, bc
   02FF 23            [ 6]  617 	inc	hl
   0300 23            [ 6]  618 	inc	hl
   0301 23            [ 6]  619 	inc	hl
   0302 DD 7E 09      [19]  620 	ld	a, 9 (ix)
   0305 77            [ 7]  621 	ld	(hl), a
                            622 ;src/niveles/niveles.c:101: rocasEspejo[contadorRocasEspejo].movimiento=mivimiento;
   0306 ED 4Br65r00   [20]  623 	ld	bc, (_contadorRocasEspejo)
   030A 06 00         [ 7]  624 	ld	b, #0x00
   030C 69            [ 4]  625 	ld	l, c
   030D 60            [ 4]  626 	ld	h, b
   030E 29            [11]  627 	add	hl, hl
   030F 09            [11]  628 	add	hl, bc
   0310 29            [11]  629 	add	hl, hl
   0311 09            [11]  630 	add	hl, bc
   0312 4D            [ 4]  631 	ld	c, l
   0313 44            [ 4]  632 	ld	b, h
   0314 DD 6E 04      [19]  633 	ld	l,4 (ix)
   0317 DD 66 05      [19]  634 	ld	h,5 (ix)
   031A 09            [11]  635 	add	hl, bc
   031B 01 04 00      [10]  636 	ld	bc, #0x0004
   031E 09            [11]  637 	add	hl, bc
   031F DD 7E 08      [19]  638 	ld	a, 8 (ix)
   0322 77            [ 7]  639 	ld	(hl), a
                            640 ;src/niveles/niveles.c:102: contadorRocasEspejo++;
   0323 21r65r00      [10]  641 	ld	hl, #_contadorRocasEspejo+0
   0326 34            [11]  642 	inc	(hl)
   0327 DD E1         [14]  643 	pop	ix
   0329 C9            [10]  644 	ret
                            645 ;src/niveles/niveles.c:104: void createPuerta(TGameObject* puertas,u8 posx,u8 posy,u8 sprite,u8 nivel){
                            646 ;	---------------------------------
                            647 ; Function createPuerta
                            648 ; ---------------------------------
   032A                     649 _createPuerta::
   032A DD E5         [15]  650 	push	ix
   032C DD 21 00 00   [14]  651 	ld	ix,#0
   0330 DD 39         [15]  652 	add	ix,sp
                            653 ;src/niveles/niveles.c:105: puertas[contadorPuertas].num=nivel;
   0332 ED 4Br66r00   [20]  654 	ld	bc, (_contadorPuertas)
   0336 06 00         [ 7]  655 	ld	b, #0x00
   0338 69            [ 4]  656 	ld	l, c
   0339 60            [ 4]  657 	ld	h, b
   033A 29            [11]  658 	add	hl, hl
   033B 09            [11]  659 	add	hl, bc
   033C 29            [11]  660 	add	hl, hl
   033D 09            [11]  661 	add	hl, bc
   033E 4D            [ 4]  662 	ld	c, l
   033F 44            [ 4]  663 	ld	b, h
   0340 DD 6E 04      [19]  664 	ld	l,4 (ix)
   0343 DD 66 05      [19]  665 	ld	h,5 (ix)
   0346 09            [11]  666 	add	hl, bc
   0347 DD 7E 09      [19]  667 	ld	a, 9 (ix)
   034A 77            [ 7]  668 	ld	(hl), a
                            669 ;src/niveles/niveles.c:106: puertas[contadorPuertas].posx=posx;
   034B ED 4Br66r00   [20]  670 	ld	bc, (_contadorPuertas)
   034F 06 00         [ 7]  671 	ld	b, #0x00
   0351 69            [ 4]  672 	ld	l, c
   0352 60            [ 4]  673 	ld	h, b
   0353 29            [11]  674 	add	hl, hl
   0354 09            [11]  675 	add	hl, bc
   0355 29            [11]  676 	add	hl, hl
   0356 09            [11]  677 	add	hl, bc
   0357 4D            [ 4]  678 	ld	c, l
   0358 44            [ 4]  679 	ld	b, h
   0359 DD 6E 04      [19]  680 	ld	l,4 (ix)
   035C DD 66 05      [19]  681 	ld	h,5 (ix)
   035F 09            [11]  682 	add	hl, bc
   0360 23            [ 6]  683 	inc	hl
   0361 DD 7E 06      [19]  684 	ld	a, 6 (ix)
   0364 77            [ 7]  685 	ld	(hl), a
                            686 ;src/niveles/niveles.c:107: puertas[contadorPuertas].posy=posy;
   0365 ED 4Br66r00   [20]  687 	ld	bc, (_contadorPuertas)
   0369 06 00         [ 7]  688 	ld	b, #0x00
   036B 69            [ 4]  689 	ld	l, c
   036C 60            [ 4]  690 	ld	h, b
   036D 29            [11]  691 	add	hl, hl
   036E 09            [11]  692 	add	hl, bc
   036F 29            [11]  693 	add	hl, hl
   0370 09            [11]  694 	add	hl, bc
   0371 4D            [ 4]  695 	ld	c, l
   0372 44            [ 4]  696 	ld	b, h
   0373 DD 6E 04      [19]  697 	ld	l,4 (ix)
   0376 DD 66 05      [19]  698 	ld	h,5 (ix)
   0379 09            [11]  699 	add	hl, bc
   037A 23            [ 6]  700 	inc	hl
   037B 23            [ 6]  701 	inc	hl
   037C DD 7E 07      [19]  702 	ld	a, 7 (ix)
   037F 77            [ 7]  703 	ld	(hl), a
                            704 ;src/niveles/niveles.c:108: puertas[contadorPuertas].sprite=sprite;
   0380 ED 4Br66r00   [20]  705 	ld	bc, (_contadorPuertas)
   0384 06 00         [ 7]  706 	ld	b, #0x00
   0386 69            [ 4]  707 	ld	l, c
   0387 60            [ 4]  708 	ld	h, b
   0388 29            [11]  709 	add	hl, hl
   0389 09            [11]  710 	add	hl, bc
   038A 29            [11]  711 	add	hl, hl
   038B 09            [11]  712 	add	hl, bc
   038C 4D            [ 4]  713 	ld	c, l
   038D 44            [ 4]  714 	ld	b, h
   038E DD 6E 04      [19]  715 	ld	l,4 (ix)
   0391 DD 66 05      [19]  716 	ld	h,5 (ix)
   0394 09            [11]  717 	add	hl, bc
   0395 23            [ 6]  718 	inc	hl
   0396 23            [ 6]  719 	inc	hl
   0397 23            [ 6]  720 	inc	hl
   0398 DD 7E 08      [19]  721 	ld	a, 8 (ix)
   039B 77            [ 7]  722 	ld	(hl), a
                            723 ;src/niveles/niveles.c:109: contadorPuertas++;
   039C 21r66r00      [10]  724 	ld	hl, #_contadorPuertas+0
   039F 34            [11]  725 	inc	(hl)
   03A0 DD E1         [14]  726 	pop	ix
   03A2 C9            [10]  727 	ret
                            728 ;src/niveles/niveles.c:111: void createPortal(TGameObject* portal,TGameObject* roca,TGameObject* rocasEspejo,u8 hay){
                            729 ;	---------------------------------
                            730 ; Function createPortal
                            731 ; ---------------------------------
   03A3                     732 _createPortal::
                            733 ;src/niveles/niveles.c:112: if(hay==si){
   03A3 21 08 00      [10]  734 	ld	hl, #8+0
   03A6 39            [11]  735 	add	hl, sp
   03A7 7E            [ 7]  736 	ld	a, (hl)
   03A8 B7            [ 4]  737 	or	a, a
   03A9 C0            [11]  738 	ret	NZ
                            739 ;src/niveles/niveles.c:113: portal[0].posx=7;
   03AA D1            [10]  740 	pop	de
   03AB C1            [10]  741 	pop	bc
   03AC C5            [11]  742 	push	bc
   03AD D5            [11]  743 	push	de
   03AE 69            [ 4]  744 	ld	l, c
   03AF 60            [ 4]  745 	ld	h, b
   03B0 23            [ 6]  746 	inc	hl
   03B1 36 07         [10]  747 	ld	(hl), #0x07
                            748 ;src/niveles/niveles.c:114: portal[0].posy=4;
   03B3 69            [ 4]  749 	ld	l, c
   03B4 60            [ 4]  750 	ld	h, b
   03B5 23            [ 6]  751 	inc	hl
   03B6 23            [ 6]  752 	inc	hl
   03B7 36 04         [10]  753 	ld	(hl), #0x04
                            754 ;src/niveles/niveles.c:115: portal[0].sprite=sprite_PuertaPortal_G;
   03B9 69            [ 4]  755 	ld	l, c
   03BA 60            [ 4]  756 	ld	h, b
   03BB 23            [ 6]  757 	inc	hl
   03BC 23            [ 6]  758 	inc	hl
   03BD 23            [ 6]  759 	inc	hl
   03BE 36 1A         [10]  760 	ld	(hl), #0x1a
                            761 ;src/niveles/niveles.c:117: portal[1].posx=9;
   03C0 21 08 00      [10]  762 	ld	hl, #0x0008
   03C3 09            [11]  763 	add	hl, bc
   03C4 36 09         [10]  764 	ld	(hl), #0x09
                            765 ;src/niveles/niveles.c:118: portal[1].posy=4;
   03C6 21 09 00      [10]  766 	ld	hl, #0x0009
   03C9 09            [11]  767 	add	hl, bc
   03CA 36 04         [10]  768 	ld	(hl), #0x04
                            769 ;src/niveles/niveles.c:119: portal[1].sprite=sprite_PuertaPortal_B;
   03CC 21 0A 00      [10]  770 	ld	hl, #0x000a
   03CF 09            [11]  771 	add	hl, bc
   03D0 36 1B         [10]  772 	ld	(hl), #0x1b
                            773 ;src/niveles/niveles.c:120: createRoca(roca,8,4,sin_Movimiento,sprite_PortalMuro,1);
   03D2 21 19 01      [10]  774 	ld	hl, #0x0119
   03D5 E5            [11]  775 	push	hl
   03D6 21 04 00      [10]  776 	ld	hl, #0x0004
   03D9 E5            [11]  777 	push	hl
   03DA 3E 08         [ 7]  778 	ld	a, #0x08
   03DC F5            [11]  779 	push	af
   03DD 33            [ 6]  780 	inc	sp
   03DE 21 09 00      [10]  781 	ld	hl, #9
   03E1 39            [11]  782 	add	hl, sp
   03E2 4E            [ 7]  783 	ld	c, (hl)
   03E3 23            [ 6]  784 	inc	hl
   03E4 46            [ 7]  785 	ld	b, (hl)
   03E5 C5            [11]  786 	push	bc
   03E6 CDrFEr01      [17]  787 	call	_createRoca
   03E9 21 07 00      [10]  788 	ld	hl, #7
   03EC 39            [11]  789 	add	hl, sp
   03ED F9            [ 6]  790 	ld	sp, hl
   03EE C9            [10]  791 	ret
                            792 ;src/niveles/niveles.c:125: void createHoleIzquierda(TGameObject* rocas,u8 posx, u8 posy,u8 sprite, u8 simetria){
                            793 ;	---------------------------------
                            794 ; Function createHoleIzquierda
                            795 ; ---------------------------------
   03EF                     796 _createHoleIzquierda::
   03EF DD E5         [15]  797 	push	ix
   03F1 DD 21 00 00   [14]  798 	ld	ix,#0
   03F5 DD 39         [15]  799 	add	ix,sp
                            800 ;src/niveles/niveles.c:126: rocas[contadorRocas].num=simetria;
   03F7 ED 4Br64r00   [20]  801 	ld	bc, (_contadorRocas)
   03FB 06 00         [ 7]  802 	ld	b, #0x00
   03FD 69            [ 4]  803 	ld	l, c
   03FE 60            [ 4]  804 	ld	h, b
   03FF 29            [11]  805 	add	hl, hl
   0400 09            [11]  806 	add	hl, bc
   0401 29            [11]  807 	add	hl, hl
   0402 09            [11]  808 	add	hl, bc
   0403 4D            [ 4]  809 	ld	c, l
   0404 44            [ 4]  810 	ld	b, h
   0405 DD 6E 04      [19]  811 	ld	l,4 (ix)
   0408 DD 66 05      [19]  812 	ld	h,5 (ix)
   040B 09            [11]  813 	add	hl, bc
   040C DD 7E 09      [19]  814 	ld	a, 9 (ix)
   040F 77            [ 7]  815 	ld	(hl), a
                            816 ;src/niveles/niveles.c:127: rocas[contadorRocas].posx=posx;
   0410 ED 4Br64r00   [20]  817 	ld	bc, (_contadorRocas)
   0414 06 00         [ 7]  818 	ld	b, #0x00
   0416 69            [ 4]  819 	ld	l, c
   0417 60            [ 4]  820 	ld	h, b
   0418 29            [11]  821 	add	hl, hl
   0419 09            [11]  822 	add	hl, bc
   041A 29            [11]  823 	add	hl, hl
   041B 09            [11]  824 	add	hl, bc
   041C 4D            [ 4]  825 	ld	c, l
   041D 44            [ 4]  826 	ld	b, h
   041E DD 6E 04      [19]  827 	ld	l,4 (ix)
   0421 DD 66 05      [19]  828 	ld	h,5 (ix)
   0424 09            [11]  829 	add	hl, bc
   0425 23            [ 6]  830 	inc	hl
   0426 DD 7E 06      [19]  831 	ld	a, 6 (ix)
   0429 77            [ 7]  832 	ld	(hl), a
                            833 ;src/niveles/niveles.c:128: rocas[contadorRocas].posy=posy;
   042A ED 4Br64r00   [20]  834 	ld	bc, (_contadorRocas)
   042E 06 00         [ 7]  835 	ld	b, #0x00
   0430 69            [ 4]  836 	ld	l, c
   0431 60            [ 4]  837 	ld	h, b
   0432 29            [11]  838 	add	hl, hl
   0433 09            [11]  839 	add	hl, bc
   0434 29            [11]  840 	add	hl, hl
   0435 09            [11]  841 	add	hl, bc
   0436 4D            [ 4]  842 	ld	c, l
   0437 44            [ 4]  843 	ld	b, h
   0438 DD 6E 04      [19]  844 	ld	l,4 (ix)
   043B DD 66 05      [19]  845 	ld	h,5 (ix)
   043E 09            [11]  846 	add	hl, bc
   043F 23            [ 6]  847 	inc	hl
   0440 23            [ 6]  848 	inc	hl
   0441 DD 7E 07      [19]  849 	ld	a, 7 (ix)
   0444 77            [ 7]  850 	ld	(hl), a
                            851 ;src/niveles/niveles.c:129: rocas[contadorRocas].sprite=sprite;
   0445 ED 4Br64r00   [20]  852 	ld	bc, (_contadorRocas)
   0449 06 00         [ 7]  853 	ld	b, #0x00
   044B 69            [ 4]  854 	ld	l, c
   044C 60            [ 4]  855 	ld	h, b
   044D 29            [11]  856 	add	hl, hl
   044E 09            [11]  857 	add	hl, bc
   044F 29            [11]  858 	add	hl, hl
   0450 09            [11]  859 	add	hl, bc
   0451 4D            [ 4]  860 	ld	c, l
   0452 44            [ 4]  861 	ld	b, h
   0453 DD 6E 04      [19]  862 	ld	l,4 (ix)
   0456 DD 66 05      [19]  863 	ld	h,5 (ix)
   0459 09            [11]  864 	add	hl, bc
   045A 23            [ 6]  865 	inc	hl
   045B 23            [ 6]  866 	inc	hl
   045C 23            [ 6]  867 	inc	hl
   045D DD 7E 08      [19]  868 	ld	a, 8 (ix)
   0460 77            [ 7]  869 	ld	(hl), a
                            870 ;src/niveles/niveles.c:130: rocas[contadorRocas].movimiento=sin_Movimiento;
   0461 ED 4Br64r00   [20]  871 	ld	bc, (_contadorRocas)
   0465 06 00         [ 7]  872 	ld	b, #0x00
   0467 69            [ 4]  873 	ld	l, c
   0468 60            [ 4]  874 	ld	h, b
   0469 29            [11]  875 	add	hl, hl
   046A 09            [11]  876 	add	hl, bc
   046B 29            [11]  877 	add	hl, hl
   046C 09            [11]  878 	add	hl, bc
   046D 4D            [ 4]  879 	ld	c, l
   046E 44            [ 4]  880 	ld	b, h
   046F DD 6E 04      [19]  881 	ld	l,4 (ix)
   0472 DD 66 05      [19]  882 	ld	h,5 (ix)
   0475 09            [11]  883 	add	hl, bc
   0476 01 04 00      [10]  884 	ld	bc, #0x0004
   0479 09            [11]  885 	add	hl, bc
   047A 36 00         [10]  886 	ld	(hl), #0x00
                            887 ;src/niveles/niveles.c:131: contadorRocas++;
   047C 21r64r00      [10]  888 	ld	hl, #_contadorRocas+0
   047F 34            [11]  889 	inc	(hl)
   0480 DD E1         [14]  890 	pop	ix
   0482 C9            [10]  891 	ret
                            892 ;src/niveles/niveles.c:133: void createHoleDerecha(TGameObject* rocasEspejo,u8 posx, u8 posy,u8 sprite, u8 simetria){
                            893 ;	---------------------------------
                            894 ; Function createHoleDerecha
                            895 ; ---------------------------------
   0483                     896 _createHoleDerecha::
   0483 DD E5         [15]  897 	push	ix
   0485 DD 21 00 00   [14]  898 	ld	ix,#0
   0489 DD 39         [15]  899 	add	ix,sp
                            900 ;src/niveles/niveles.c:134: rocasEspejo[contadorRocasEspejo].num=simetria;
   048B ED 4Br65r00   [20]  901 	ld	bc, (_contadorRocasEspejo)
   048F 06 00         [ 7]  902 	ld	b, #0x00
   0491 69            [ 4]  903 	ld	l, c
   0492 60            [ 4]  904 	ld	h, b
   0493 29            [11]  905 	add	hl, hl
   0494 09            [11]  906 	add	hl, bc
   0495 29            [11]  907 	add	hl, hl
   0496 09            [11]  908 	add	hl, bc
   0497 4D            [ 4]  909 	ld	c, l
   0498 44            [ 4]  910 	ld	b, h
   0499 DD 6E 04      [19]  911 	ld	l,4 (ix)
   049C DD 66 05      [19]  912 	ld	h,5 (ix)
   049F 09            [11]  913 	add	hl, bc
   04A0 DD 7E 09      [19]  914 	ld	a, 9 (ix)
   04A3 77            [ 7]  915 	ld	(hl), a
                            916 ;src/niveles/niveles.c:135: rocasEspejo[contadorRocasEspejo].posx=posx;
   04A4 ED 4Br65r00   [20]  917 	ld	bc, (_contadorRocasEspejo)
   04A8 06 00         [ 7]  918 	ld	b, #0x00
   04AA 69            [ 4]  919 	ld	l, c
   04AB 60            [ 4]  920 	ld	h, b
   04AC 29            [11]  921 	add	hl, hl
   04AD 09            [11]  922 	add	hl, bc
   04AE 29            [11]  923 	add	hl, hl
   04AF 09            [11]  924 	add	hl, bc
   04B0 4D            [ 4]  925 	ld	c, l
   04B1 44            [ 4]  926 	ld	b, h
   04B2 DD 6E 04      [19]  927 	ld	l,4 (ix)
   04B5 DD 66 05      [19]  928 	ld	h,5 (ix)
   04B8 09            [11]  929 	add	hl, bc
   04B9 23            [ 6]  930 	inc	hl
   04BA DD 7E 06      [19]  931 	ld	a, 6 (ix)
   04BD 77            [ 7]  932 	ld	(hl), a
                            933 ;src/niveles/niveles.c:136: rocasEspejo[contadorRocasEspejo].posy=posy;
   04BE ED 4Br65r00   [20]  934 	ld	bc, (_contadorRocasEspejo)
   04C2 06 00         [ 7]  935 	ld	b, #0x00
   04C4 69            [ 4]  936 	ld	l, c
   04C5 60            [ 4]  937 	ld	h, b
   04C6 29            [11]  938 	add	hl, hl
   04C7 09            [11]  939 	add	hl, bc
   04C8 29            [11]  940 	add	hl, hl
   04C9 09            [11]  941 	add	hl, bc
   04CA 4D            [ 4]  942 	ld	c, l
   04CB 44            [ 4]  943 	ld	b, h
   04CC DD 6E 04      [19]  944 	ld	l,4 (ix)
   04CF DD 66 05      [19]  945 	ld	h,5 (ix)
   04D2 09            [11]  946 	add	hl, bc
   04D3 23            [ 6]  947 	inc	hl
   04D4 23            [ 6]  948 	inc	hl
   04D5 DD 7E 07      [19]  949 	ld	a, 7 (ix)
   04D8 77            [ 7]  950 	ld	(hl), a
                            951 ;src/niveles/niveles.c:137: rocasEspejo[contadorRocasEspejo].sprite=sprite;
   04D9 ED 4Br65r00   [20]  952 	ld	bc, (_contadorRocasEspejo)
   04DD 06 00         [ 7]  953 	ld	b, #0x00
   04DF 69            [ 4]  954 	ld	l, c
   04E0 60            [ 4]  955 	ld	h, b
   04E1 29            [11]  956 	add	hl, hl
   04E2 09            [11]  957 	add	hl, bc
   04E3 29            [11]  958 	add	hl, hl
   04E4 09            [11]  959 	add	hl, bc
   04E5 4D            [ 4]  960 	ld	c, l
   04E6 44            [ 4]  961 	ld	b, h
   04E7 DD 6E 04      [19]  962 	ld	l,4 (ix)
   04EA DD 66 05      [19]  963 	ld	h,5 (ix)
   04ED 09            [11]  964 	add	hl, bc
   04EE 23            [ 6]  965 	inc	hl
   04EF 23            [ 6]  966 	inc	hl
   04F0 23            [ 6]  967 	inc	hl
   04F1 DD 7E 08      [19]  968 	ld	a, 8 (ix)
   04F4 77            [ 7]  969 	ld	(hl), a
                            970 ;src/niveles/niveles.c:138: rocasEspejo[contadorRocasEspejo].movimiento=sin_Movimiento;
   04F5 ED 4Br65r00   [20]  971 	ld	bc, (_contadorRocasEspejo)
   04F9 06 00         [ 7]  972 	ld	b, #0x00
   04FB 69            [ 4]  973 	ld	l, c
   04FC 60            [ 4]  974 	ld	h, b
   04FD 29            [11]  975 	add	hl, hl
   04FE 09            [11]  976 	add	hl, bc
   04FF 29            [11]  977 	add	hl, hl
   0500 09            [11]  978 	add	hl, bc
   0501 4D            [ 4]  979 	ld	c, l
   0502 44            [ 4]  980 	ld	b, h
   0503 DD 6E 04      [19]  981 	ld	l,4 (ix)
   0506 DD 66 05      [19]  982 	ld	h,5 (ix)
   0509 09            [11]  983 	add	hl, bc
   050A 01 04 00      [10]  984 	ld	bc, #0x0004
   050D 09            [11]  985 	add	hl, bc
   050E 36 00         [10]  986 	ld	(hl), #0x00
                            987 ;src/niveles/niveles.c:139: contadorRocasEspejo++;
   0510 21r65r00      [10]  988 	ld	hl, #_contadorRocasEspejo+0
   0513 34            [11]  989 	inc	(hl)
   0514 DD E1         [14]  990 	pop	ix
   0516 C9            [10]  991 	ret
                            992 ;src/niveles/niveles.c:141: void createColeccionabeLuz(TGameObjectCol* coleccionable,u8 posx, u8 posy,u8 id){
                            993 ;	---------------------------------
                            994 ; Function createColeccionabeLuz
                            995 ; ---------------------------------
   0517                     996 _createColeccionabeLuz::
   0517 DD E5         [15]  997 	push	ix
   0519 DD 21 00 00   [14]  998 	ld	ix,#0
   051D DD 39         [15]  999 	add	ix,sp
                           1000 ;src/niveles/niveles.c:142: if(P_colList2[id]==coleccionable_activo){
   051F FD 21r68r00   [14] 1001 	ld	iy, #_P_colList2
   0523 FD 7E 00      [19] 1002 	ld	a, 0 (iy)
   0526 DD 86 08      [19] 1003 	add	a, 8 (ix)
   0529 4F            [ 4] 1004 	ld	c, a
   052A FD 7E 01      [19] 1005 	ld	a, 1 (iy)
   052D CE 00         [ 7] 1006 	adc	a, #0x00
   052F 47            [ 4] 1007 	ld	b, a
   0530 0A            [ 7] 1008 	ld	a, (bc)
   0531 B7            [ 4] 1009 	or	a, a
   0532 20 58         [12] 1010 	jr	NZ,00103$
                           1011 ;src/niveles/niveles.c:143: coleccionable[contadorColeccionables].num=id;
   0534 FD 21r67r00   [14] 1012 	ld	iy, #_contadorColeccionables
   0538 FD 6E 00      [19] 1013 	ld	l, 0 (iy)
   053B 26 00         [ 7] 1014 	ld	h, #0x00
   053D 29            [11] 1015 	add	hl, hl
   053E 29            [11] 1016 	add	hl, hl
   053F 4D            [ 4] 1017 	ld	c, l
   0540 44            [ 4] 1018 	ld	b, h
   0541 DD 6E 04      [19] 1019 	ld	l,4 (ix)
   0544 DD 66 05      [19] 1020 	ld	h,5 (ix)
   0547 09            [11] 1021 	add	hl, bc
   0548 DD 7E 08      [19] 1022 	ld	a, 8 (ix)
   054B 77            [ 7] 1023 	ld	(hl), a
                           1024 ;src/niveles/niveles.c:144: coleccionable[contadorColeccionables].posx=posx;
   054C FD 6E 00      [19] 1025 	ld	l, 0 (iy)
   054F 26 00         [ 7] 1026 	ld	h, #0x00
   0551 29            [11] 1027 	add	hl, hl
   0552 29            [11] 1028 	add	hl, hl
   0553 4D            [ 4] 1029 	ld	c, l
   0554 44            [ 4] 1030 	ld	b, h
   0555 DD 6E 04      [19] 1031 	ld	l,4 (ix)
   0558 DD 66 05      [19] 1032 	ld	h,5 (ix)
   055B 09            [11] 1033 	add	hl, bc
   055C 23            [ 6] 1034 	inc	hl
   055D DD 7E 06      [19] 1035 	ld	a, 6 (ix)
   0560 77            [ 7] 1036 	ld	(hl), a
                           1037 ;src/niveles/niveles.c:145: coleccionable[contadorColeccionables].posy=posy;
   0561 FD 6E 00      [19] 1038 	ld	l, 0 (iy)
   0564 26 00         [ 7] 1039 	ld	h, #0x00
   0566 29            [11] 1040 	add	hl, hl
   0567 29            [11] 1041 	add	hl, hl
   0568 4D            [ 4] 1042 	ld	c, l
   0569 44            [ 4] 1043 	ld	b, h
   056A DD 6E 04      [19] 1044 	ld	l,4 (ix)
   056D DD 66 05      [19] 1045 	ld	h,5 (ix)
   0570 09            [11] 1046 	add	hl, bc
   0571 23            [ 6] 1047 	inc	hl
   0572 23            [ 6] 1048 	inc	hl
   0573 DD 7E 07      [19] 1049 	ld	a, 7 (ix)
   0576 77            [ 7] 1050 	ld	(hl), a
                           1051 ;src/niveles/niveles.c:146: coleccionable[contadorColeccionables].sprite=sprite_luz;
   0577 FD 6E 00      [19] 1052 	ld	l, 0 (iy)
   057A 26 00         [ 7] 1053 	ld	h, #0x00
   057C 29            [11] 1054 	add	hl, hl
   057D 29            [11] 1055 	add	hl, hl
   057E 4D            [ 4] 1056 	ld	c, l
   057F 44            [ 4] 1057 	ld	b, h
   0580 DD 6E 04      [19] 1058 	ld	l,4 (ix)
   0583 DD 66 05      [19] 1059 	ld	h,5 (ix)
   0586 09            [11] 1060 	add	hl, bc
   0587 23            [ 6] 1061 	inc	hl
   0588 23            [ 6] 1062 	inc	hl
   0589 23            [ 6] 1063 	inc	hl
   058A 36 25         [10] 1064 	ld	(hl), #0x25
   058C                    1065 00103$:
   058C DD E1         [14] 1066 	pop	ix
   058E C9            [10] 1067 	ret
                           1068 ;src/niveles/niveles.c:149: void createColeccionabeFamilia(TGameObjectCol* coleccionable,u8 posx, u8 posy,u8 sprite,u8 id){
                           1069 ;	---------------------------------
                           1070 ; Function createColeccionabeFamilia
                           1071 ; ---------------------------------
   058F                    1072 _createColeccionabeFamilia::
   058F DD E5         [15] 1073 	push	ix
   0591 DD 21 00 00   [14] 1074 	ld	ix,#0
   0595 DD 39         [15] 1075 	add	ix,sp
                           1076 ;src/niveles/niveles.c:150: if(P_colList2[id]==coleccionable_activo){
   0597 FD 21r68r00   [14] 1077 	ld	iy, #_P_colList2
   059B FD 7E 00      [19] 1078 	ld	a, 0 (iy)
   059E DD 86 09      [19] 1079 	add	a, 9 (ix)
   05A1 4F            [ 4] 1080 	ld	c, a
   05A2 FD 7E 01      [19] 1081 	ld	a, 1 (iy)
   05A5 CE 00         [ 7] 1082 	adc	a, #0x00
   05A7 47            [ 4] 1083 	ld	b, a
   05A8 0A            [ 7] 1084 	ld	a, (bc)
   05A9 B7            [ 4] 1085 	or	a, a
   05AA 20 5A         [12] 1086 	jr	NZ,00103$
                           1087 ;src/niveles/niveles.c:151: coleccionable[contadorColeccionables].num=id;
   05AC FD 21r67r00   [14] 1088 	ld	iy, #_contadorColeccionables
   05B0 FD 6E 00      [19] 1089 	ld	l, 0 (iy)
   05B3 26 00         [ 7] 1090 	ld	h, #0x00
   05B5 29            [11] 1091 	add	hl, hl
   05B6 29            [11] 1092 	add	hl, hl
   05B7 4D            [ 4] 1093 	ld	c, l
   05B8 44            [ 4] 1094 	ld	b, h
   05B9 DD 6E 04      [19] 1095 	ld	l,4 (ix)
   05BC DD 66 05      [19] 1096 	ld	h,5 (ix)
   05BF 09            [11] 1097 	add	hl, bc
   05C0 DD 7E 09      [19] 1098 	ld	a, 9 (ix)
   05C3 77            [ 7] 1099 	ld	(hl), a
                           1100 ;src/niveles/niveles.c:152: coleccionable[contadorColeccionables].posx=posx;
   05C4 FD 6E 00      [19] 1101 	ld	l, 0 (iy)
   05C7 26 00         [ 7] 1102 	ld	h, #0x00
   05C9 29            [11] 1103 	add	hl, hl
   05CA 29            [11] 1104 	add	hl, hl
   05CB 4D            [ 4] 1105 	ld	c, l
   05CC 44            [ 4] 1106 	ld	b, h
   05CD DD 6E 04      [19] 1107 	ld	l,4 (ix)
   05D0 DD 66 05      [19] 1108 	ld	h,5 (ix)
   05D3 09            [11] 1109 	add	hl, bc
   05D4 23            [ 6] 1110 	inc	hl
   05D5 DD 7E 06      [19] 1111 	ld	a, 6 (ix)
   05D8 77            [ 7] 1112 	ld	(hl), a
                           1113 ;src/niveles/niveles.c:153: coleccionable[contadorColeccionables].posy=posy;
   05D9 FD 6E 00      [19] 1114 	ld	l, 0 (iy)
   05DC 26 00         [ 7] 1115 	ld	h, #0x00
   05DE 29            [11] 1116 	add	hl, hl
   05DF 29            [11] 1117 	add	hl, hl
   05E0 4D            [ 4] 1118 	ld	c, l
   05E1 44            [ 4] 1119 	ld	b, h
   05E2 DD 6E 04      [19] 1120 	ld	l,4 (ix)
   05E5 DD 66 05      [19] 1121 	ld	h,5 (ix)
   05E8 09            [11] 1122 	add	hl, bc
   05E9 23            [ 6] 1123 	inc	hl
   05EA 23            [ 6] 1124 	inc	hl
   05EB DD 7E 07      [19] 1125 	ld	a, 7 (ix)
   05EE 77            [ 7] 1126 	ld	(hl), a
                           1127 ;src/niveles/niveles.c:154: coleccionable[contadorColeccionables].sprite=sprite;
   05EF FD 6E 00      [19] 1128 	ld	l, 0 (iy)
   05F2 26 00         [ 7] 1129 	ld	h, #0x00
   05F4 29            [11] 1130 	add	hl, hl
   05F5 29            [11] 1131 	add	hl, hl
   05F6 4D            [ 4] 1132 	ld	c, l
   05F7 44            [ 4] 1133 	ld	b, h
   05F8 DD 6E 04      [19] 1134 	ld	l,4 (ix)
   05FB DD 66 05      [19] 1135 	ld	h,5 (ix)
   05FE 09            [11] 1136 	add	hl, bc
   05FF 23            [ 6] 1137 	inc	hl
   0600 23            [ 6] 1138 	inc	hl
   0601 23            [ 6] 1139 	inc	hl
   0602 DD 7E 08      [19] 1140 	ld	a, 8 (ix)
   0605 77            [ 7] 1141 	ld	(hl), a
   0606                    1142 00103$:
   0606 DD E1         [14] 1143 	pop	ix
   0608 C9            [10] 1144 	ret
                           1145 ;src/niveles/niveles.c:157: void createColeccionabeAmstr(TGameObjectCol* coleccionable,u8 posx, u8 posy,u8 id){
                           1146 ;	---------------------------------
                           1147 ; Function createColeccionabeAmstr
                           1148 ; ---------------------------------
   0609                    1149 _createColeccionabeAmstr::
   0609 DD E5         [15] 1150 	push	ix
   060B DD 21 00 00   [14] 1151 	ld	ix,#0
   060F DD 39         [15] 1152 	add	ix,sp
                           1153 ;src/niveles/niveles.c:158: if(P_colList2[id]==coleccionable_activo){
   0611 FD 21r68r00   [14] 1154 	ld	iy, #_P_colList2
   0615 FD 7E 00      [19] 1155 	ld	a, 0 (iy)
   0618 DD 86 08      [19] 1156 	add	a, 8 (ix)
   061B 4F            [ 4] 1157 	ld	c, a
   061C FD 7E 01      [19] 1158 	ld	a, 1 (iy)
   061F CE 00         [ 7] 1159 	adc	a, #0x00
   0621 47            [ 4] 1160 	ld	b, a
   0622 0A            [ 7] 1161 	ld	a, (bc)
   0623 B7            [ 4] 1162 	or	a, a
   0624 20 58         [12] 1163 	jr	NZ,00103$
                           1164 ;src/niveles/niveles.c:159: coleccionable[contadorColeccionables].num=id;
   0626 FD 21r67r00   [14] 1165 	ld	iy, #_contadorColeccionables
   062A FD 6E 00      [19] 1166 	ld	l, 0 (iy)
   062D 26 00         [ 7] 1167 	ld	h, #0x00
   062F 29            [11] 1168 	add	hl, hl
   0630 29            [11] 1169 	add	hl, hl
   0631 4D            [ 4] 1170 	ld	c, l
   0632 44            [ 4] 1171 	ld	b, h
   0633 DD 6E 04      [19] 1172 	ld	l,4 (ix)
   0636 DD 66 05      [19] 1173 	ld	h,5 (ix)
   0639 09            [11] 1174 	add	hl, bc
   063A DD 7E 08      [19] 1175 	ld	a, 8 (ix)
   063D 77            [ 7] 1176 	ld	(hl), a
                           1177 ;src/niveles/niveles.c:160: coleccionable[contadorColeccionables].posx=posx;
   063E FD 6E 00      [19] 1178 	ld	l, 0 (iy)
   0641 26 00         [ 7] 1179 	ld	h, #0x00
   0643 29            [11] 1180 	add	hl, hl
   0644 29            [11] 1181 	add	hl, hl
   0645 4D            [ 4] 1182 	ld	c, l
   0646 44            [ 4] 1183 	ld	b, h
   0647 DD 6E 04      [19] 1184 	ld	l,4 (ix)
   064A DD 66 05      [19] 1185 	ld	h,5 (ix)
   064D 09            [11] 1186 	add	hl, bc
   064E 23            [ 6] 1187 	inc	hl
   064F DD 7E 06      [19] 1188 	ld	a, 6 (ix)
   0652 77            [ 7] 1189 	ld	(hl), a
                           1190 ;src/niveles/niveles.c:161: coleccionable[contadorColeccionables].posy=posy;
   0653 FD 6E 00      [19] 1191 	ld	l, 0 (iy)
   0656 26 00         [ 7] 1192 	ld	h, #0x00
   0658 29            [11] 1193 	add	hl, hl
   0659 29            [11] 1194 	add	hl, hl
   065A 4D            [ 4] 1195 	ld	c, l
   065B 44            [ 4] 1196 	ld	b, h
   065C DD 6E 04      [19] 1197 	ld	l,4 (ix)
   065F DD 66 05      [19] 1198 	ld	h,5 (ix)
   0662 09            [11] 1199 	add	hl, bc
   0663 23            [ 6] 1200 	inc	hl
   0664 23            [ 6] 1201 	inc	hl
   0665 DD 7E 07      [19] 1202 	ld	a, 7 (ix)
   0668 77            [ 7] 1203 	ld	(hl), a
                           1204 ;src/niveles/niveles.c:162: coleccionable[contadorColeccionables].sprite=sprite_amstradTape;
   0669 FD 6E 00      [19] 1205 	ld	l, 0 (iy)
   066C 26 00         [ 7] 1206 	ld	h, #0x00
   066E 29            [11] 1207 	add	hl, hl
   066F 29            [11] 1208 	add	hl, hl
   0670 4D            [ 4] 1209 	ld	c, l
   0671 44            [ 4] 1210 	ld	b, h
   0672 DD 6E 04      [19] 1211 	ld	l,4 (ix)
   0675 DD 66 05      [19] 1212 	ld	h,5 (ix)
   0678 09            [11] 1213 	add	hl, bc
   0679 23            [ 6] 1214 	inc	hl
   067A 23            [ 6] 1215 	inc	hl
   067B 23            [ 6] 1216 	inc	hl
   067C 36 2F         [10] 1217 	ld	(hl), #0x2f
   067E                    1218 00103$:
   067E DD E1         [14] 1219 	pop	ix
   0680 C9            [10] 1220 	ret
                           1221 ;src/niveles/niveles.c:168: void crearNivel1(TGameObject* player,TGameObject* rocas,TGameObject* rocasEspejo,TGameObject* puertas,TGameObject* portales,TGameObjectCol* col,u8* posicion){
                           1222 ;	---------------------------------
                           1223 ; Function crearNivel1
                           1224 ; ---------------------------------
   0681                    1225 _crearNivel1::
   0681 DD E5         [15] 1226 	push	ix
   0683 DD 21 00 00   [14] 1227 	ld	ix,#0
   0687 DD 39         [15] 1228 	add	ix,sp
                           1229 ;src/niveles/niveles.c:170: createPlayer(player,3,4,posicion);
   0689 DD 6E 10      [19] 1230 	ld	l,16 (ix)
   068C DD 66 11      [19] 1231 	ld	h,17 (ix)
   068F E5            [11] 1232 	push	hl
   0690 21 03 04      [10] 1233 	ld	hl, #0x0403
   0693 E5            [11] 1234 	push	hl
   0694 DD 6E 04      [19] 1235 	ld	l,4 (ix)
   0697 DD 66 05      [19] 1236 	ld	h,5 (ix)
   069A E5            [11] 1237 	push	hl
   069B CDrBFr01      [17] 1238 	call	_createPlayer
   069E 21 06 00      [10] 1239 	ld	hl, #6
   06A1 39            [11] 1240 	add	hl, sp
   06A2 F9            [ 6] 1241 	ld	sp, hl
                           1242 ;src/niveles/niveles.c:171: createMarco(si);
   06A3 AF            [ 4] 1243 	xor	a, a
   06A4 F5            [11] 1244 	push	af
   06A5 33            [ 6] 1245 	inc	sp
   06A6 CDrB0r01      [17] 1246 	call	_createMarco
   06A9 33            [ 6] 1247 	inc	sp
                           1248 ;src/niveles/niveles.c:172: createPortal(portales,rocas,rocasEspejo,si);
   06AA AF            [ 4] 1249 	xor	a, a
   06AB F5            [11] 1250 	push	af
   06AC 33            [ 6] 1251 	inc	sp
   06AD DD 6E 08      [19] 1252 	ld	l,8 (ix)
   06B0 DD 66 09      [19] 1253 	ld	h,9 (ix)
   06B3 E5            [11] 1254 	push	hl
   06B4 DD 6E 06      [19] 1255 	ld	l,6 (ix)
   06B7 DD 66 07      [19] 1256 	ld	h,7 (ix)
   06BA E5            [11] 1257 	push	hl
   06BB DD 6E 0C      [19] 1258 	ld	l,12 (ix)
   06BE DD 66 0D      [19] 1259 	ld	h,13 (ix)
   06C1 E5            [11] 1260 	push	hl
   06C2 CDrA3r03      [17] 1261 	call	_createPortal
   06C5 21 07 00      [10] 1262 	ld	hl, #7
   06C8 39            [11] 1263 	add	hl, sp
   06C9 F9            [ 6] 1264 	ld	sp, hl
                           1265 ;src/niveles/niveles.c:173: createPuerta(puertas,3,7,sprite_Puerta_G,nivel_07);
   06CA 21 1E 0A      [10] 1266 	ld	hl, #0x0a1e
   06CD E5            [11] 1267 	push	hl
   06CE 21 03 07      [10] 1268 	ld	hl, #0x0703
   06D1 E5            [11] 1269 	push	hl
   06D2 DD 6E 0A      [19] 1270 	ld	l,10 (ix)
   06D5 DD 66 0B      [19] 1271 	ld	h,11 (ix)
   06D8 E5            [11] 1272 	push	hl
   06D9 CDr2Ar03      [17] 1273 	call	_createPuerta
   06DC 21 06 00      [10] 1274 	ld	hl, #6
   06DF 39            [11] 1275 	add	hl, sp
   06E0 F9            [ 6] 1276 	ld	sp, hl
                           1277 ;src/niveles/niveles.c:174: createPuerta(puertas,13,7,sprite_Puerta_B,nivel_01_01);
   06E1 21 1F 02      [10] 1278 	ld	hl, #0x021f
   06E4 E5            [11] 1279 	push	hl
   06E5 21 0D 07      [10] 1280 	ld	hl, #0x070d
   06E8 E5            [11] 1281 	push	hl
   06E9 DD 6E 0A      [19] 1282 	ld	l,10 (ix)
   06EC DD 66 0B      [19] 1283 	ld	h,11 (ix)
   06EF E5            [11] 1284 	push	hl
   06F0 CDr2Ar03      [17] 1285 	call	_createPuerta
   06F3 21 06 00      [10] 1286 	ld	hl, #6
   06F6 39            [11] 1287 	add	hl, sp
   06F7 F9            [ 6] 1288 	ld	sp, hl
                           1289 ;src/niveles/niveles.c:177: createRoca(rocas,2,4,mover_1,sprite_Rock_G,2);
   06F8 21 02 02      [10] 1290 	ld	hl, #0x0202
   06FB E5            [11] 1291 	push	hl
   06FC 21 04 01      [10] 1292 	ld	hl, #0x0104
   06FF E5            [11] 1293 	push	hl
   0700 3E 02         [ 7] 1294 	ld	a, #0x02
   0702 F5            [11] 1295 	push	af
   0703 33            [ 6] 1296 	inc	sp
   0704 DD 6E 06      [19] 1297 	ld	l,6 (ix)
   0707 DD 66 07      [19] 1298 	ld	h,7 (ix)
   070A E5            [11] 1299 	push	hl
   070B CDrFEr01      [17] 1300 	call	_createRoca
   070E 21 07 00      [10] 1301 	ld	hl, #7
   0711 39            [11] 1302 	add	hl, sp
   0712 F9            [ 6] 1303 	ld	sp, hl
                           1304 ;src/niveles/niveles.c:178: createRocaEspejo(rocasEspejo,14,4,sin_Movimiento,sprite_Rock_nomove_B,2);
   0713 21 04 02      [10] 1305 	ld	hl, #0x0204
   0716 E5            [11] 1306 	push	hl
   0717 26 00         [ 7] 1307 	ld	h, #0x00
   0719 E5            [11] 1308 	push	hl
   071A 3E 0E         [ 7] 1309 	ld	a, #0x0e
   071C F5            [11] 1310 	push	af
   071D 33            [ 6] 1311 	inc	sp
   071E DD 6E 08      [19] 1312 	ld	l,8 (ix)
   0721 DD 66 09      [19] 1313 	ld	h,9 (ix)
   0724 E5            [11] 1314 	push	hl
   0725 CDr94r02      [17] 1315 	call	_createRocaEspejo
   0728 21 07 00      [10] 1316 	ld	hl, #7
   072B 39            [11] 1317 	add	hl, sp
   072C F9            [ 6] 1318 	ld	sp, hl
                           1319 ;src/niveles/niveles.c:181: createColeccionabeLuz(col,15,4,0);
   072D 21 04 00      [10] 1320 	ld	hl, #0x0004
   0730 E5            [11] 1321 	push	hl
   0731 3E 0F         [ 7] 1322 	ld	a, #0x0f
   0733 F5            [11] 1323 	push	af
   0734 33            [ 6] 1324 	inc	sp
   0735 DD 6E 0E      [19] 1325 	ld	l,14 (ix)
   0738 DD 66 0F      [19] 1326 	ld	h,15 (ix)
   073B E5            [11] 1327 	push	hl
   073C CDr17r05      [17] 1328 	call	_createColeccionabeLuz
   073F F1            [10] 1329 	pop	af
                           1330 ;src/niveles/niveles.c:184: createRoca(rocas,1,2,sin_Movimiento,sprite_RockInmovil3_G,1);
   0740 33            [ 6] 1331 	inc	sp
   0741 21 0B 01      [10] 1332 	ld	hl,#0x010b
   0744 E3            [19] 1333 	ex	(sp),hl
   0745 21 02 00      [10] 1334 	ld	hl, #0x0002
   0748 E5            [11] 1335 	push	hl
   0749 3E 01         [ 7] 1336 	ld	a, #0x01
   074B F5            [11] 1337 	push	af
   074C 33            [ 6] 1338 	inc	sp
   074D DD 6E 06      [19] 1339 	ld	l,6 (ix)
   0750 DD 66 07      [19] 1340 	ld	h,7 (ix)
   0753 E5            [11] 1341 	push	hl
   0754 CDrFEr01      [17] 1342 	call	_createRoca
   0757 21 07 00      [10] 1343 	ld	hl, #7
   075A 39            [11] 1344 	add	hl, sp
   075B F9            [ 6] 1345 	ld	sp, hl
                           1346 ;src/niveles/niveles.c:185: createRoca(rocas,2,2,sin_Movimiento,sprite_RockInmovil4_G,1);
   075C 21 0D 01      [10] 1347 	ld	hl, #0x010d
   075F E5            [11] 1348 	push	hl
   0760 21 02 00      [10] 1349 	ld	hl, #0x0002
   0763 E5            [11] 1350 	push	hl
   0764 3E 02         [ 7] 1351 	ld	a, #0x02
   0766 F5            [11] 1352 	push	af
   0767 33            [ 6] 1353 	inc	sp
   0768 DD 6E 06      [19] 1354 	ld	l,6 (ix)
   076B DD 66 07      [19] 1355 	ld	h,7 (ix)
   076E E5            [11] 1356 	push	hl
   076F CDrFEr01      [17] 1357 	call	_createRoca
   0772 21 07 00      [10] 1358 	ld	hl, #7
   0775 39            [11] 1359 	add	hl, sp
   0776 F9            [ 6] 1360 	ld	sp, hl
                           1361 ;src/niveles/niveles.c:186: createRoca(rocas,1,3,sin_Movimiento,sprite_RockInmovil1_G,1);
   0777 21 07 01      [10] 1362 	ld	hl, #0x0107
   077A E5            [11] 1363 	push	hl
   077B 21 03 00      [10] 1364 	ld	hl, #0x0003
   077E E5            [11] 1365 	push	hl
   077F 3E 01         [ 7] 1366 	ld	a, #0x01
   0781 F5            [11] 1367 	push	af
   0782 33            [ 6] 1368 	inc	sp
   0783 DD 6E 06      [19] 1369 	ld	l,6 (ix)
   0786 DD 66 07      [19] 1370 	ld	h,7 (ix)
   0789 E5            [11] 1371 	push	hl
   078A CDrFEr01      [17] 1372 	call	_createRoca
   078D 21 07 00      [10] 1373 	ld	hl, #7
   0790 39            [11] 1374 	add	hl, sp
   0791 F9            [ 6] 1375 	ld	sp, hl
                           1376 ;src/niveles/niveles.c:187: createRoca(rocas,6,3,sin_Movimiento,sprite_RockInmovil1_G,1);
   0792 21 07 01      [10] 1377 	ld	hl, #0x0107
   0795 E5            [11] 1378 	push	hl
   0796 21 03 00      [10] 1379 	ld	hl, #0x0003
   0799 E5            [11] 1380 	push	hl
   079A 3E 06         [ 7] 1381 	ld	a, #0x06
   079C F5            [11] 1382 	push	af
   079D 33            [ 6] 1383 	inc	sp
   079E DD 6E 06      [19] 1384 	ld	l,6 (ix)
   07A1 DD 66 07      [19] 1385 	ld	h,7 (ix)
   07A4 E5            [11] 1386 	push	hl
   07A5 CDrFEr01      [17] 1387 	call	_createRoca
   07A8 21 07 00      [10] 1388 	ld	hl, #7
   07AB 39            [11] 1389 	add	hl, sp
   07AC F9            [ 6] 1390 	ld	sp, hl
                           1391 ;src/niveles/niveles.c:188: createRoca(rocas,1,5,sin_Movimiento,sprite_RockInmovil1_G,1);
   07AD 21 07 01      [10] 1392 	ld	hl, #0x0107
   07B0 E5            [11] 1393 	push	hl
   07B1 21 05 00      [10] 1394 	ld	hl, #0x0005
   07B4 E5            [11] 1395 	push	hl
   07B5 3E 01         [ 7] 1396 	ld	a, #0x01
   07B7 F5            [11] 1397 	push	af
   07B8 33            [ 6] 1398 	inc	sp
   07B9 DD 6E 06      [19] 1399 	ld	l,6 (ix)
   07BC DD 66 07      [19] 1400 	ld	h,7 (ix)
   07BF E5            [11] 1401 	push	hl
   07C0 CDrFEr01      [17] 1402 	call	_createRoca
   07C3 21 07 00      [10] 1403 	ld	hl, #7
   07C6 39            [11] 1404 	add	hl, sp
   07C7 F9            [ 6] 1405 	ld	sp, hl
                           1406 ;src/niveles/niveles.c:189: createRoca(rocas,6,5,sin_Movimiento,sprite_RockInmovil1_G,1);
   07C8 21 07 01      [10] 1407 	ld	hl, #0x0107
   07CB E5            [11] 1408 	push	hl
   07CC 21 05 00      [10] 1409 	ld	hl, #0x0005
   07CF E5            [11] 1410 	push	hl
   07D0 3E 06         [ 7] 1411 	ld	a, #0x06
   07D2 F5            [11] 1412 	push	af
   07D3 33            [ 6] 1413 	inc	sp
   07D4 DD 6E 06      [19] 1414 	ld	l,6 (ix)
   07D7 DD 66 07      [19] 1415 	ld	h,7 (ix)
   07DA E5            [11] 1416 	push	hl
   07DB CDrFEr01      [17] 1417 	call	_createRoca
   07DE 21 07 00      [10] 1418 	ld	hl, #7
   07E1 39            [11] 1419 	add	hl, sp
   07E2 F9            [ 6] 1420 	ld	sp, hl
                           1421 ;src/niveles/niveles.c:190: createRoca(rocas,7,1,sin_Movimiento,sprite_RockInmovil2_G,1);
   07E3 21 09 01      [10] 1422 	ld	hl, #0x0109
   07E6 E5            [11] 1423 	push	hl
   07E7 21 01 00      [10] 1424 	ld	hl, #0x0001
   07EA E5            [11] 1425 	push	hl
   07EB 3E 07         [ 7] 1426 	ld	a, #0x07
   07ED F5            [11] 1427 	push	af
   07EE 33            [ 6] 1428 	inc	sp
   07EF DD 6E 06      [19] 1429 	ld	l,6 (ix)
   07F2 DD 66 07      [19] 1430 	ld	h,7 (ix)
   07F5 E5            [11] 1431 	push	hl
   07F6 CDrFEr01      [17] 1432 	call	_createRoca
   07F9 21 07 00      [10] 1433 	ld	hl, #7
   07FC 39            [11] 1434 	add	hl, sp
   07FD F9            [ 6] 1435 	ld	sp, hl
                           1436 ;src/niveles/niveles.c:191: createRoca(rocas,7,7,sin_Movimiento,sprite_RockInmovil2_G,1);
   07FE 21 09 01      [10] 1437 	ld	hl, #0x0109
   0801 E5            [11] 1438 	push	hl
   0802 21 07 00      [10] 1439 	ld	hl, #0x0007
   0805 E5            [11] 1440 	push	hl
   0806 3E 07         [ 7] 1441 	ld	a, #0x07
   0808 F5            [11] 1442 	push	af
   0809 33            [ 6] 1443 	inc	sp
   080A DD 6E 06      [19] 1444 	ld	l,6 (ix)
   080D DD 66 07      [19] 1445 	ld	h,7 (ix)
   0810 E5            [11] 1446 	push	hl
   0811 CDrFEr01      [17] 1447 	call	_createRoca
   0814 21 07 00      [10] 1448 	ld	hl, #7
   0817 39            [11] 1449 	add	hl, sp
   0818 F9            [ 6] 1450 	ld	sp, hl
                           1451 ;src/niveles/niveles.c:192: createRoca(rocas,1,4,sin_Movimiento,sprite_amstrad,1);
   0819 21 2E 01      [10] 1452 	ld	hl, #0x012e
   081C E5            [11] 1453 	push	hl
   081D 21 04 00      [10] 1454 	ld	hl, #0x0004
   0820 E5            [11] 1455 	push	hl
   0821 3E 01         [ 7] 1456 	ld	a, #0x01
   0823 F5            [11] 1457 	push	af
   0824 33            [ 6] 1458 	inc	sp
   0825 DD 6E 06      [19] 1459 	ld	l,6 (ix)
   0828 DD 66 07      [19] 1460 	ld	h,7 (ix)
   082B E5            [11] 1461 	push	hl
   082C CDrFEr01      [17] 1462 	call	_createRoca
   082F 21 07 00      [10] 1463 	ld	hl, #7
   0832 39            [11] 1464 	add	hl, sp
   0833 F9            [ 6] 1465 	ld	sp, hl
                           1466 ;src/niveles/niveles.c:193: createRoca(rocas,1,1,sin_Movimiento,sprite_PrinceofPersia2_G,1);
   0834 21 32 01      [10] 1467 	ld	hl, #0x0132
   0837 E5            [11] 1468 	push	hl
   0838 21 01 00      [10] 1469 	ld	hl, #0x0001
   083B E5            [11] 1470 	push	hl
   083C 3E 01         [ 7] 1471 	ld	a, #0x01
   083E F5            [11] 1472 	push	af
   083F 33            [ 6] 1473 	inc	sp
   0840 DD 6E 06      [19] 1474 	ld	l,6 (ix)
   0843 DD 66 07      [19] 1475 	ld	h,7 (ix)
   0846 E5            [11] 1476 	push	hl
   0847 CDrFEr01      [17] 1477 	call	_createRoca
   084A 21 07 00      [10] 1478 	ld	hl, #7
   084D 39            [11] 1479 	add	hl, sp
   084E F9            [ 6] 1480 	ld	sp, hl
                           1481 ;src/niveles/niveles.c:194: createRoca(rocas,2,1,sin_Movimiento,sprite_PrinceofPersia1_G,1);
   084F 21 30 01      [10] 1482 	ld	hl, #0x0130
   0852 E5            [11] 1483 	push	hl
   0853 21 01 00      [10] 1484 	ld	hl, #0x0001
   0856 E5            [11] 1485 	push	hl
   0857 3E 02         [ 7] 1486 	ld	a, #0x02
   0859 F5            [11] 1487 	push	af
   085A 33            [ 6] 1488 	inc	sp
   085B DD 6E 06      [19] 1489 	ld	l,6 (ix)
   085E DD 66 07      [19] 1490 	ld	h,7 (ix)
   0861 E5            [11] 1491 	push	hl
   0862 CDrFEr01      [17] 1492 	call	_createRoca
   0865 21 07 00      [10] 1493 	ld	hl, #7
   0868 39            [11] 1494 	add	hl, sp
   0869 F9            [ 6] 1495 	ld	sp, hl
                           1496 ;src/niveles/niveles.c:198: createRocaEspejo(rocasEspejo,14,2,sin_Movimiento,sprite_RockInmovil3_B,1);
   086A 21 0C 01      [10] 1497 	ld	hl, #0x010c
   086D E5            [11] 1498 	push	hl
   086E 21 02 00      [10] 1499 	ld	hl, #0x0002
   0871 E5            [11] 1500 	push	hl
   0872 3E 0E         [ 7] 1501 	ld	a, #0x0e
   0874 F5            [11] 1502 	push	af
   0875 33            [ 6] 1503 	inc	sp
   0876 DD 6E 08      [19] 1504 	ld	l,8 (ix)
   0879 DD 66 09      [19] 1505 	ld	h,9 (ix)
   087C E5            [11] 1506 	push	hl
   087D CDr94r02      [17] 1507 	call	_createRocaEspejo
   0880 21 07 00      [10] 1508 	ld	hl, #7
   0883 39            [11] 1509 	add	hl, sp
   0884 F9            [ 6] 1510 	ld	sp, hl
                           1511 ;src/niveles/niveles.c:199: createRocaEspejo(rocasEspejo,15,2,sin_Movimiento,sprite_RockInmovil4_B,1);
   0885 21 0E 01      [10] 1512 	ld	hl, #0x010e
   0888 E5            [11] 1513 	push	hl
   0889 21 02 00      [10] 1514 	ld	hl, #0x0002
   088C E5            [11] 1515 	push	hl
   088D 3E 0F         [ 7] 1516 	ld	a, #0x0f
   088F F5            [11] 1517 	push	af
   0890 33            [ 6] 1518 	inc	sp
   0891 DD 6E 08      [19] 1519 	ld	l,8 (ix)
   0894 DD 66 09      [19] 1520 	ld	h,9 (ix)
   0897 E5            [11] 1521 	push	hl
   0898 CDr94r02      [17] 1522 	call	_createRocaEspejo
   089B 21 07 00      [10] 1523 	ld	hl, #7
   089E 39            [11] 1524 	add	hl, sp
   089F F9            [ 6] 1525 	ld	sp, hl
                           1526 ;src/niveles/niveles.c:200: createRocaEspejo(rocasEspejo,15,3,sin_Movimiento,sprite_RockInmovil1_B,1);
   08A0 21 08 01      [10] 1527 	ld	hl, #0x0108
   08A3 E5            [11] 1528 	push	hl
   08A4 21 03 00      [10] 1529 	ld	hl, #0x0003
   08A7 E5            [11] 1530 	push	hl
   08A8 3E 0F         [ 7] 1531 	ld	a, #0x0f
   08AA F5            [11] 1532 	push	af
   08AB 33            [ 6] 1533 	inc	sp
   08AC DD 6E 08      [19] 1534 	ld	l,8 (ix)
   08AF DD 66 09      [19] 1535 	ld	h,9 (ix)
   08B2 E5            [11] 1536 	push	hl
   08B3 CDr94r02      [17] 1537 	call	_createRocaEspejo
   08B6 21 07 00      [10] 1538 	ld	hl, #7
   08B9 39            [11] 1539 	add	hl, sp
   08BA F9            [ 6] 1540 	ld	sp, hl
                           1541 ;src/niveles/niveles.c:201: createRocaEspejo(rocasEspejo,10,3,sin_Movimiento,sprite_RockInmovil1_B,1);
   08BB 21 08 01      [10] 1542 	ld	hl, #0x0108
   08BE E5            [11] 1543 	push	hl
   08BF 21 03 00      [10] 1544 	ld	hl, #0x0003
   08C2 E5            [11] 1545 	push	hl
   08C3 3E 0A         [ 7] 1546 	ld	a, #0x0a
   08C5 F5            [11] 1547 	push	af
   08C6 33            [ 6] 1548 	inc	sp
   08C7 DD 6E 08      [19] 1549 	ld	l,8 (ix)
   08CA DD 66 09      [19] 1550 	ld	h,9 (ix)
   08CD E5            [11] 1551 	push	hl
   08CE CDr94r02      [17] 1552 	call	_createRocaEspejo
   08D1 21 07 00      [10] 1553 	ld	hl, #7
   08D4 39            [11] 1554 	add	hl, sp
   08D5 F9            [ 6] 1555 	ld	sp, hl
                           1556 ;src/niveles/niveles.c:202: createRocaEspejo(rocasEspejo,15,5,sin_Movimiento,sprite_RockInmovil1_B,1);
   08D6 21 08 01      [10] 1557 	ld	hl, #0x0108
   08D9 E5            [11] 1558 	push	hl
   08DA 21 05 00      [10] 1559 	ld	hl, #0x0005
   08DD E5            [11] 1560 	push	hl
   08DE 3E 0F         [ 7] 1561 	ld	a, #0x0f
   08E0 F5            [11] 1562 	push	af
   08E1 33            [ 6] 1563 	inc	sp
   08E2 DD 6E 08      [19] 1564 	ld	l,8 (ix)
   08E5 DD 66 09      [19] 1565 	ld	h,9 (ix)
   08E8 E5            [11] 1566 	push	hl
   08E9 CDr94r02      [17] 1567 	call	_createRocaEspejo
   08EC 21 07 00      [10] 1568 	ld	hl, #7
   08EF 39            [11] 1569 	add	hl, sp
   08F0 F9            [ 6] 1570 	ld	sp, hl
                           1571 ;src/niveles/niveles.c:203: createRocaEspejo(rocasEspejo,10,5,sin_Movimiento,sprite_RockInmovil1_B,1);
   08F1 21 08 01      [10] 1572 	ld	hl, #0x0108
   08F4 E5            [11] 1573 	push	hl
   08F5 21 05 00      [10] 1574 	ld	hl, #0x0005
   08F8 E5            [11] 1575 	push	hl
   08F9 3E 0A         [ 7] 1576 	ld	a, #0x0a
   08FB F5            [11] 1577 	push	af
   08FC 33            [ 6] 1578 	inc	sp
   08FD DD 6E 08      [19] 1579 	ld	l,8 (ix)
   0900 DD 66 09      [19] 1580 	ld	h,9 (ix)
   0903 E5            [11] 1581 	push	hl
   0904 CDr94r02      [17] 1582 	call	_createRocaEspejo
   0907 21 07 00      [10] 1583 	ld	hl, #7
   090A 39            [11] 1584 	add	hl, sp
   090B F9            [ 6] 1585 	ld	sp, hl
                           1586 ;src/niveles/niveles.c:204: createRocaEspejo(rocasEspejo,9,1,sin_Movimiento,sprite_RockInmovil2_B,1);
   090C 21 0A 01      [10] 1587 	ld	hl, #0x010a
   090F E5            [11] 1588 	push	hl
   0910 21 01 00      [10] 1589 	ld	hl, #0x0001
   0913 E5            [11] 1590 	push	hl
   0914 3E 09         [ 7] 1591 	ld	a, #0x09
   0916 F5            [11] 1592 	push	af
   0917 33            [ 6] 1593 	inc	sp
   0918 DD 6E 08      [19] 1594 	ld	l,8 (ix)
   091B DD 66 09      [19] 1595 	ld	h,9 (ix)
   091E E5            [11] 1596 	push	hl
   091F CDr94r02      [17] 1597 	call	_createRocaEspejo
   0922 21 07 00      [10] 1598 	ld	hl, #7
   0925 39            [11] 1599 	add	hl, sp
   0926 F9            [ 6] 1600 	ld	sp, hl
                           1601 ;src/niveles/niveles.c:205: createRocaEspejo(rocasEspejo,9,7,sin_Movimiento,sprite_RockInmovil2_B,1);
   0927 21 0A 01      [10] 1602 	ld	hl, #0x010a
   092A E5            [11] 1603 	push	hl
   092B 21 07 00      [10] 1604 	ld	hl, #0x0007
   092E E5            [11] 1605 	push	hl
   092F 3E 09         [ 7] 1606 	ld	a, #0x09
   0931 F5            [11] 1607 	push	af
   0932 33            [ 6] 1608 	inc	sp
   0933 DD 6E 08      [19] 1609 	ld	l,8 (ix)
   0936 DD 66 09      [19] 1610 	ld	h,9 (ix)
   0939 E5            [11] 1611 	push	hl
   093A CDr94r02      [17] 1612 	call	_createRocaEspejo
   093D 21 07 00      [10] 1613 	ld	hl, #7
   0940 39            [11] 1614 	add	hl, sp
   0941 F9            [ 6] 1615 	ld	sp, hl
                           1616 ;src/niveles/niveles.c:206: createRocaEspejo(rocasEspejo,14,1,sin_Movimiento,sprite_PrinceofPersia1_B,1);
   0942 21 31 01      [10] 1617 	ld	hl, #0x0131
   0945 E5            [11] 1618 	push	hl
   0946 21 01 00      [10] 1619 	ld	hl, #0x0001
   0949 E5            [11] 1620 	push	hl
   094A 3E 0E         [ 7] 1621 	ld	a, #0x0e
   094C F5            [11] 1622 	push	af
   094D 33            [ 6] 1623 	inc	sp
   094E DD 6E 08      [19] 1624 	ld	l,8 (ix)
   0951 DD 66 09      [19] 1625 	ld	h,9 (ix)
   0954 E5            [11] 1626 	push	hl
   0955 CDr94r02      [17] 1627 	call	_createRocaEspejo
   0958 21 07 00      [10] 1628 	ld	hl, #7
   095B 39            [11] 1629 	add	hl, sp
   095C F9            [ 6] 1630 	ld	sp, hl
                           1631 ;src/niveles/niveles.c:207: createRocaEspejo(rocasEspejo,15,1,sin_Movimiento,sprite_PrinceofPersia2_B,1);
   095D 21 33 01      [10] 1632 	ld	hl, #0x0133
   0960 E5            [11] 1633 	push	hl
   0961 21 01 00      [10] 1634 	ld	hl, #0x0001
   0964 E5            [11] 1635 	push	hl
   0965 3E 0F         [ 7] 1636 	ld	a, #0x0f
   0967 F5            [11] 1637 	push	af
   0968 33            [ 6] 1638 	inc	sp
   0969 DD 6E 08      [19] 1639 	ld	l,8 (ix)
   096C DD 66 09      [19] 1640 	ld	h,9 (ix)
   096F E5            [11] 1641 	push	hl
   0970 CDr94r02      [17] 1642 	call	_createRocaEspejo
   0973 21 07 00      [10] 1643 	ld	hl, #7
   0976 39            [11] 1644 	add	hl, sp
   0977 F9            [ 6] 1645 	ld	sp, hl
   0978 DD E1         [14] 1646 	pop	ix
   097A C9            [10] 1647 	ret
                           1648 ;src/niveles/niveles.c:209: void crearNivel01_01(TGameObject* player,TGameObject* rocas,TGameObject* rocasEspejo,TGameObject* puertas,TGameObject* portales,TGameObjectCol* col,u8* posicion){
                           1649 ;	---------------------------------
                           1650 ; Function crearNivel01_01
                           1651 ; ---------------------------------
   097B                    1652 _crearNivel01_01::
                           1653 ;src/niveles/niveles.c:214: }
   097B C9            [10] 1654 	ret
                           1655 ;src/niveles/niveles.c:215: void crearNivel2(TGameObject* player,TGameObject* rocas,TGameObject* rocasEspejo,TGameObject* puertas,TGameObject* portales,TGameObjectCol* col,u8* posicion){
                           1656 ;	---------------------------------
                           1657 ; Function crearNivel2
                           1658 ; ---------------------------------
   097C                    1659 _crearNivel2::
                           1660 ;src/niveles/niveles.c:220: }
   097C C9            [10] 1661 	ret
                           1662 ;src/niveles/niveles.c:222: void crearNivelTRAP01(TGameObject* player,TGameObject* rocas,TGameObject* rocasEspejo,TGameObject* puertas,TGameObject* portales,TGameObjectCol* col,u8* posicion){
                           1663 ;	---------------------------------
                           1664 ; Function crearNivelTRAP01
                           1665 ; ---------------------------------
   097D                    1666 _crearNivelTRAP01::
   097D DD E5         [15] 1667 	push	ix
   097F DD 21 00 00   [14] 1668 	ld	ix,#0
   0983 DD 39         [15] 1669 	add	ix,sp
                           1670 ;src/niveles/niveles.c:224: createPlayer(player,4,4,posicion);
   0985 DD 6E 10      [19] 1671 	ld	l,16 (ix)
   0988 DD 66 11      [19] 1672 	ld	h,17 (ix)
   098B E5            [11] 1673 	push	hl
   098C 21 04 04      [10] 1674 	ld	hl, #0x0404
   098F E5            [11] 1675 	push	hl
   0990 DD 6E 04      [19] 1676 	ld	l,4 (ix)
   0993 DD 66 05      [19] 1677 	ld	h,5 (ix)
   0996 E5            [11] 1678 	push	hl
   0997 CDrBFr01      [17] 1679 	call	_createPlayer
   099A 21 06 00      [10] 1680 	ld	hl, #6
   099D 39            [11] 1681 	add	hl, sp
   099E F9            [ 6] 1682 	ld	sp, hl
                           1683 ;src/niveles/niveles.c:225: createMarco(no);
   099F 3E 01         [ 7] 1684 	ld	a, #0x01
   09A1 F5            [11] 1685 	push	af
   09A2 33            [ 6] 1686 	inc	sp
   09A3 CDrB0r01      [17] 1687 	call	_createMarco
   09A6 33            [ 6] 1688 	inc	sp
                           1689 ;src/niveles/niveles.c:226: createPortal(portales,rocas,rocasEspejo,no);
   09A7 3E 01         [ 7] 1690 	ld	a, #0x01
   09A9 F5            [11] 1691 	push	af
   09AA 33            [ 6] 1692 	inc	sp
   09AB DD 6E 08      [19] 1693 	ld	l,8 (ix)
   09AE DD 66 09      [19] 1694 	ld	h,9 (ix)
   09B1 E5            [11] 1695 	push	hl
   09B2 DD 6E 06      [19] 1696 	ld	l,6 (ix)
   09B5 DD 66 07      [19] 1697 	ld	h,7 (ix)
   09B8 E5            [11] 1698 	push	hl
   09B9 DD 6E 0C      [19] 1699 	ld	l,12 (ix)
   09BC DD 66 0D      [19] 1700 	ld	h,13 (ix)
   09BF E5            [11] 1701 	push	hl
   09C0 CDrA3r03      [17] 1702 	call	_createPortal
   09C3 21 07 00      [10] 1703 	ld	hl, #7
   09C6 39            [11] 1704 	add	hl, sp
   09C7 F9            [ 6] 1705 	ld	sp, hl
                           1706 ;src/niveles/niveles.c:227: createPuerta(puertas,4,2,sprite_Puerta_B,nivel_02);
   09C8 21 1F 04      [10] 1707 	ld	hl, #0x041f
   09CB E5            [11] 1708 	push	hl
   09CC 21 04 02      [10] 1709 	ld	hl, #0x0204
   09CF E5            [11] 1710 	push	hl
   09D0 DD 6E 0A      [19] 1711 	ld	l,10 (ix)
   09D3 DD 66 0B      [19] 1712 	ld	h,11 (ix)
   09D6 E5            [11] 1713 	push	hl
   09D7 CDr2Ar03      [17] 1714 	call	_createPuerta
   09DA 21 06 00      [10] 1715 	ld	hl, #6
   09DD 39            [11] 1716 	add	hl, sp
   09DE F9            [ 6] 1717 	ld	sp, hl
                           1718 ;src/niveles/niveles.c:228: createPuerta(puertas,4,6,sprite_Puerta_B,nivel_02);
   09DF 21 1F 04      [10] 1719 	ld	hl, #0x041f
   09E2 E5            [11] 1720 	push	hl
   09E3 21 04 06      [10] 1721 	ld	hl, #0x0604
   09E6 E5            [11] 1722 	push	hl
   09E7 DD 6E 0A      [19] 1723 	ld	l,10 (ix)
   09EA DD 66 0B      [19] 1724 	ld	h,11 (ix)
   09ED E5            [11] 1725 	push	hl
   09EE CDr2Ar03      [17] 1726 	call	_createPuerta
   09F1 21 06 00      [10] 1727 	ld	hl, #6
   09F4 39            [11] 1728 	add	hl, sp
   09F5 F9            [ 6] 1729 	ld	sp, hl
                           1730 ;src/niveles/niveles.c:234: createRoca(rocas,1,1,sin_Movimiento, sprite_Muro_Polvo1,1);
   09F6 21 1C 01      [10] 1731 	ld	hl, #0x011c
   09F9 E5            [11] 1732 	push	hl
   09FA 21 01 00      [10] 1733 	ld	hl, #0x0001
   09FD E5            [11] 1734 	push	hl
   09FE 3E 01         [ 7] 1735 	ld	a, #0x01
   0A00 F5            [11] 1736 	push	af
   0A01 33            [ 6] 1737 	inc	sp
   0A02 DD 6E 06      [19] 1738 	ld	l,6 (ix)
   0A05 DD 66 07      [19] 1739 	ld	h,7 (ix)
   0A08 E5            [11] 1740 	push	hl
   0A09 CDrFEr01      [17] 1741 	call	_createRoca
   0A0C 21 07 00      [10] 1742 	ld	hl, #7
   0A0F 39            [11] 1743 	add	hl, sp
   0A10 F9            [ 6] 1744 	ld	sp, hl
                           1745 ;src/niveles/niveles.c:235: createRoca(rocas,2,1,sin_Movimiento, sprite_Muro_Polvo1,1);
   0A11 21 1C 01      [10] 1746 	ld	hl, #0x011c
   0A14 E5            [11] 1747 	push	hl
   0A15 21 01 00      [10] 1748 	ld	hl, #0x0001
   0A18 E5            [11] 1749 	push	hl
   0A19 3E 02         [ 7] 1750 	ld	a, #0x02
   0A1B F5            [11] 1751 	push	af
   0A1C 33            [ 6] 1752 	inc	sp
   0A1D DD 6E 06      [19] 1753 	ld	l,6 (ix)
   0A20 DD 66 07      [19] 1754 	ld	h,7 (ix)
   0A23 E5            [11] 1755 	push	hl
   0A24 CDrFEr01      [17] 1756 	call	_createRoca
   0A27 21 07 00      [10] 1757 	ld	hl, #7
   0A2A 39            [11] 1758 	add	hl, sp
   0A2B F9            [ 6] 1759 	ld	sp, hl
                           1760 ;src/niveles/niveles.c:236: createRoca(rocas,4,1,sin_Movimiento, sprite_Muro_Polvo1,1);
   0A2C 21 1C 01      [10] 1761 	ld	hl, #0x011c
   0A2F E5            [11] 1762 	push	hl
   0A30 21 01 00      [10] 1763 	ld	hl, #0x0001
   0A33 E5            [11] 1764 	push	hl
   0A34 3E 04         [ 7] 1765 	ld	a, #0x04
   0A36 F5            [11] 1766 	push	af
   0A37 33            [ 6] 1767 	inc	sp
   0A38 DD 6E 06      [19] 1768 	ld	l,6 (ix)
   0A3B DD 66 07      [19] 1769 	ld	h,7 (ix)
   0A3E E5            [11] 1770 	push	hl
   0A3F CDrFEr01      [17] 1771 	call	_createRoca
   0A42 21 07 00      [10] 1772 	ld	hl, #7
   0A45 39            [11] 1773 	add	hl, sp
   0A46 F9            [ 6] 1774 	ld	sp, hl
                           1775 ;src/niveles/niveles.c:237: createRoca(rocas,3,1,sin_Movimiento, sprite_Muro_Polvo1,1);
   0A47 21 1C 01      [10] 1776 	ld	hl, #0x011c
   0A4A E5            [11] 1777 	push	hl
   0A4B 21 01 00      [10] 1778 	ld	hl, #0x0001
   0A4E E5            [11] 1779 	push	hl
   0A4F 3E 03         [ 7] 1780 	ld	a, #0x03
   0A51 F5            [11] 1781 	push	af
   0A52 33            [ 6] 1782 	inc	sp
   0A53 DD 6E 06      [19] 1783 	ld	l,6 (ix)
   0A56 DD 66 07      [19] 1784 	ld	h,7 (ix)
   0A59 E5            [11] 1785 	push	hl
   0A5A CDrFEr01      [17] 1786 	call	_createRoca
   0A5D 21 07 00      [10] 1787 	ld	hl, #7
   0A60 39            [11] 1788 	add	hl, sp
   0A61 F9            [ 6] 1789 	ld	sp, hl
                           1790 ;src/niveles/niveles.c:238: createRoca(rocas,5,1,sin_Movimiento, sprite_Muro_Polvo1,1);
   0A62 21 1C 01      [10] 1791 	ld	hl, #0x011c
   0A65 E5            [11] 1792 	push	hl
   0A66 21 01 00      [10] 1793 	ld	hl, #0x0001
   0A69 E5            [11] 1794 	push	hl
   0A6A 3E 05         [ 7] 1795 	ld	a, #0x05
   0A6C F5            [11] 1796 	push	af
   0A6D 33            [ 6] 1797 	inc	sp
   0A6E DD 6E 06      [19] 1798 	ld	l,6 (ix)
   0A71 DD 66 07      [19] 1799 	ld	h,7 (ix)
   0A74 E5            [11] 1800 	push	hl
   0A75 CDrFEr01      [17] 1801 	call	_createRoca
   0A78 21 07 00      [10] 1802 	ld	hl, #7
   0A7B 39            [11] 1803 	add	hl, sp
   0A7C F9            [ 6] 1804 	ld	sp, hl
                           1805 ;src/niveles/niveles.c:239: createRoca(rocas,6,1,sin_Movimiento, sprite_Muro_Polvo1,1);
   0A7D 21 1C 01      [10] 1806 	ld	hl, #0x011c
   0A80 E5            [11] 1807 	push	hl
   0A81 21 01 00      [10] 1808 	ld	hl, #0x0001
   0A84 E5            [11] 1809 	push	hl
   0A85 3E 06         [ 7] 1810 	ld	a, #0x06
   0A87 F5            [11] 1811 	push	af
   0A88 33            [ 6] 1812 	inc	sp
   0A89 DD 6E 06      [19] 1813 	ld	l,6 (ix)
   0A8C DD 66 07      [19] 1814 	ld	h,7 (ix)
   0A8F E5            [11] 1815 	push	hl
   0A90 CDrFEr01      [17] 1816 	call	_createRoca
   0A93 21 07 00      [10] 1817 	ld	hl, #7
   0A96 39            [11] 1818 	add	hl, sp
   0A97 F9            [ 6] 1819 	ld	sp, hl
                           1820 ;src/niveles/niveles.c:240: createRoca(rocas,7,1,sin_Movimiento, sprite_Muro_Polvo1,1);
   0A98 21 1C 01      [10] 1821 	ld	hl, #0x011c
   0A9B E5            [11] 1822 	push	hl
   0A9C 21 01 00      [10] 1823 	ld	hl, #0x0001
   0A9F E5            [11] 1824 	push	hl
   0AA0 3E 07         [ 7] 1825 	ld	a, #0x07
   0AA2 F5            [11] 1826 	push	af
   0AA3 33            [ 6] 1827 	inc	sp
   0AA4 DD 6E 06      [19] 1828 	ld	l,6 (ix)
   0AA7 DD 66 07      [19] 1829 	ld	h,7 (ix)
   0AAA E5            [11] 1830 	push	hl
   0AAB CDrFEr01      [17] 1831 	call	_createRoca
   0AAE 21 07 00      [10] 1832 	ld	hl, #7
   0AB1 39            [11] 1833 	add	hl, sp
   0AB2 F9            [ 6] 1834 	ld	sp, hl
                           1835 ;src/niveles/niveles.c:241: createRoca(rocas,1,7,sin_Movimiento, sprite_Muro_Polvo1,1);
   0AB3 21 1C 01      [10] 1836 	ld	hl, #0x011c
   0AB6 E5            [11] 1837 	push	hl
   0AB7 21 07 00      [10] 1838 	ld	hl, #0x0007
   0ABA E5            [11] 1839 	push	hl
   0ABB 3E 01         [ 7] 1840 	ld	a, #0x01
   0ABD F5            [11] 1841 	push	af
   0ABE 33            [ 6] 1842 	inc	sp
   0ABF DD 6E 06      [19] 1843 	ld	l,6 (ix)
   0AC2 DD 66 07      [19] 1844 	ld	h,7 (ix)
   0AC5 E5            [11] 1845 	push	hl
   0AC6 CDrFEr01      [17] 1846 	call	_createRoca
   0AC9 21 07 00      [10] 1847 	ld	hl, #7
   0ACC 39            [11] 1848 	add	hl, sp
   0ACD F9            [ 6] 1849 	ld	sp, hl
                           1850 ;src/niveles/niveles.c:242: createRoca(rocas,2,7,sin_Movimiento, sprite_Muro_Polvo1,1);
   0ACE 21 1C 01      [10] 1851 	ld	hl, #0x011c
   0AD1 E5            [11] 1852 	push	hl
   0AD2 21 07 00      [10] 1853 	ld	hl, #0x0007
   0AD5 E5            [11] 1854 	push	hl
   0AD6 3E 02         [ 7] 1855 	ld	a, #0x02
   0AD8 F5            [11] 1856 	push	af
   0AD9 33            [ 6] 1857 	inc	sp
   0ADA DD 6E 06      [19] 1858 	ld	l,6 (ix)
   0ADD DD 66 07      [19] 1859 	ld	h,7 (ix)
   0AE0 E5            [11] 1860 	push	hl
   0AE1 CDrFEr01      [17] 1861 	call	_createRoca
   0AE4 21 07 00      [10] 1862 	ld	hl, #7
   0AE7 39            [11] 1863 	add	hl, sp
   0AE8 F9            [ 6] 1864 	ld	sp, hl
                           1865 ;src/niveles/niveles.c:243: createRoca(rocas,3,7,sin_Movimiento, sprite_Muro_Polvo1,1);
   0AE9 21 1C 01      [10] 1866 	ld	hl, #0x011c
   0AEC E5            [11] 1867 	push	hl
   0AED 21 07 00      [10] 1868 	ld	hl, #0x0007
   0AF0 E5            [11] 1869 	push	hl
   0AF1 3E 03         [ 7] 1870 	ld	a, #0x03
   0AF3 F5            [11] 1871 	push	af
   0AF4 33            [ 6] 1872 	inc	sp
   0AF5 DD 6E 06      [19] 1873 	ld	l,6 (ix)
   0AF8 DD 66 07      [19] 1874 	ld	h,7 (ix)
   0AFB E5            [11] 1875 	push	hl
   0AFC CDrFEr01      [17] 1876 	call	_createRoca
   0AFF 21 07 00      [10] 1877 	ld	hl, #7
   0B02 39            [11] 1878 	add	hl, sp
   0B03 F9            [ 6] 1879 	ld	sp, hl
                           1880 ;src/niveles/niveles.c:244: createRoca(rocas,4,7,sin_Movimiento, sprite_Muro_Polvo1,1);
   0B04 21 1C 01      [10] 1881 	ld	hl, #0x011c
   0B07 E5            [11] 1882 	push	hl
   0B08 21 07 00      [10] 1883 	ld	hl, #0x0007
   0B0B E5            [11] 1884 	push	hl
   0B0C 3E 04         [ 7] 1885 	ld	a, #0x04
   0B0E F5            [11] 1886 	push	af
   0B0F 33            [ 6] 1887 	inc	sp
   0B10 DD 6E 06      [19] 1888 	ld	l,6 (ix)
   0B13 DD 66 07      [19] 1889 	ld	h,7 (ix)
   0B16 E5            [11] 1890 	push	hl
   0B17 CDrFEr01      [17] 1891 	call	_createRoca
   0B1A 21 07 00      [10] 1892 	ld	hl, #7
   0B1D 39            [11] 1893 	add	hl, sp
   0B1E F9            [ 6] 1894 	ld	sp, hl
                           1895 ;src/niveles/niveles.c:245: createRoca(rocas,5,7,sin_Movimiento, sprite_Muro_Polvo1,1);
   0B1F 21 1C 01      [10] 1896 	ld	hl, #0x011c
   0B22 E5            [11] 1897 	push	hl
   0B23 21 07 00      [10] 1898 	ld	hl, #0x0007
   0B26 E5            [11] 1899 	push	hl
   0B27 3E 05         [ 7] 1900 	ld	a, #0x05
   0B29 F5            [11] 1901 	push	af
   0B2A 33            [ 6] 1902 	inc	sp
   0B2B DD 6E 06      [19] 1903 	ld	l,6 (ix)
   0B2E DD 66 07      [19] 1904 	ld	h,7 (ix)
   0B31 E5            [11] 1905 	push	hl
   0B32 CDrFEr01      [17] 1906 	call	_createRoca
   0B35 21 07 00      [10] 1907 	ld	hl, #7
   0B38 39            [11] 1908 	add	hl, sp
   0B39 F9            [ 6] 1909 	ld	sp, hl
                           1910 ;src/niveles/niveles.c:246: createRoca(rocas,6,7,sin_Movimiento, sprite_Muro_Polvo1,1);
   0B3A 21 1C 01      [10] 1911 	ld	hl, #0x011c
   0B3D E5            [11] 1912 	push	hl
   0B3E 21 07 00      [10] 1913 	ld	hl, #0x0007
   0B41 E5            [11] 1914 	push	hl
   0B42 3E 06         [ 7] 1915 	ld	a, #0x06
   0B44 F5            [11] 1916 	push	af
   0B45 33            [ 6] 1917 	inc	sp
   0B46 DD 6E 06      [19] 1918 	ld	l,6 (ix)
   0B49 DD 66 07      [19] 1919 	ld	h,7 (ix)
   0B4C E5            [11] 1920 	push	hl
   0B4D CDrFEr01      [17] 1921 	call	_createRoca
   0B50 21 07 00      [10] 1922 	ld	hl, #7
   0B53 39            [11] 1923 	add	hl, sp
   0B54 F9            [ 6] 1924 	ld	sp, hl
                           1925 ;src/niveles/niveles.c:247: createRoca(rocas,7,7,sin_Movimiento, sprite_Muro_Polvo1,1);
   0B55 21 1C 01      [10] 1926 	ld	hl, #0x011c
   0B58 E5            [11] 1927 	push	hl
   0B59 21 07 00      [10] 1928 	ld	hl, #0x0007
   0B5C E5            [11] 1929 	push	hl
   0B5D 3E 07         [ 7] 1930 	ld	a, #0x07
   0B5F F5            [11] 1931 	push	af
   0B60 33            [ 6] 1932 	inc	sp
   0B61 DD 6E 06      [19] 1933 	ld	l,6 (ix)
   0B64 DD 66 07      [19] 1934 	ld	h,7 (ix)
   0B67 E5            [11] 1935 	push	hl
   0B68 CDrFEr01      [17] 1936 	call	_createRoca
   0B6B 21 07 00      [10] 1937 	ld	hl, #7
   0B6E 39            [11] 1938 	add	hl, sp
   0B6F F9            [ 6] 1939 	ld	sp, hl
                           1940 ;src/niveles/niveles.c:248: createRoca(rocas,1,2,sin_Movimiento, sprite_Muro_Polvo1,1);
   0B70 21 1C 01      [10] 1941 	ld	hl, #0x011c
   0B73 E5            [11] 1942 	push	hl
   0B74 21 02 00      [10] 1943 	ld	hl, #0x0002
   0B77 E5            [11] 1944 	push	hl
   0B78 3E 01         [ 7] 1945 	ld	a, #0x01
   0B7A F5            [11] 1946 	push	af
   0B7B 33            [ 6] 1947 	inc	sp
   0B7C DD 6E 06      [19] 1948 	ld	l,6 (ix)
   0B7F DD 66 07      [19] 1949 	ld	h,7 (ix)
   0B82 E5            [11] 1950 	push	hl
   0B83 CDrFEr01      [17] 1951 	call	_createRoca
   0B86 21 07 00      [10] 1952 	ld	hl, #7
   0B89 39            [11] 1953 	add	hl, sp
   0B8A F9            [ 6] 1954 	ld	sp, hl
                           1955 ;src/niveles/niveles.c:249: createRoca(rocas,1,3,sin_Movimiento, sprite_Muro_Polvo1,1);
   0B8B 21 1C 01      [10] 1956 	ld	hl, #0x011c
   0B8E E5            [11] 1957 	push	hl
   0B8F 21 03 00      [10] 1958 	ld	hl, #0x0003
   0B92 E5            [11] 1959 	push	hl
   0B93 3E 01         [ 7] 1960 	ld	a, #0x01
   0B95 F5            [11] 1961 	push	af
   0B96 33            [ 6] 1962 	inc	sp
   0B97 DD 6E 06      [19] 1963 	ld	l,6 (ix)
   0B9A DD 66 07      [19] 1964 	ld	h,7 (ix)
   0B9D E5            [11] 1965 	push	hl
   0B9E CDrFEr01      [17] 1966 	call	_createRoca
   0BA1 21 07 00      [10] 1967 	ld	hl, #7
   0BA4 39            [11] 1968 	add	hl, sp
   0BA5 F9            [ 6] 1969 	ld	sp, hl
                           1970 ;src/niveles/niveles.c:250: createRoca(rocas,1,4,sin_Movimiento, sprite_Muro_Polvo1,1);
   0BA6 21 1C 01      [10] 1971 	ld	hl, #0x011c
   0BA9 E5            [11] 1972 	push	hl
   0BAA 21 04 00      [10] 1973 	ld	hl, #0x0004
   0BAD E5            [11] 1974 	push	hl
   0BAE 3E 01         [ 7] 1975 	ld	a, #0x01
   0BB0 F5            [11] 1976 	push	af
   0BB1 33            [ 6] 1977 	inc	sp
   0BB2 DD 6E 06      [19] 1978 	ld	l,6 (ix)
   0BB5 DD 66 07      [19] 1979 	ld	h,7 (ix)
   0BB8 E5            [11] 1980 	push	hl
   0BB9 CDrFEr01      [17] 1981 	call	_createRoca
   0BBC 21 07 00      [10] 1982 	ld	hl, #7
   0BBF 39            [11] 1983 	add	hl, sp
   0BC0 F9            [ 6] 1984 	ld	sp, hl
                           1985 ;src/niveles/niveles.c:251: createRoca(rocas,1,5,sin_Movimiento, sprite_Muro_Polvo1,1);
   0BC1 21 1C 01      [10] 1986 	ld	hl, #0x011c
   0BC4 E5            [11] 1987 	push	hl
   0BC5 21 05 00      [10] 1988 	ld	hl, #0x0005
   0BC8 E5            [11] 1989 	push	hl
   0BC9 3E 01         [ 7] 1990 	ld	a, #0x01
   0BCB F5            [11] 1991 	push	af
   0BCC 33            [ 6] 1992 	inc	sp
   0BCD DD 6E 06      [19] 1993 	ld	l,6 (ix)
   0BD0 DD 66 07      [19] 1994 	ld	h,7 (ix)
   0BD3 E5            [11] 1995 	push	hl
   0BD4 CDrFEr01      [17] 1996 	call	_createRoca
   0BD7 21 07 00      [10] 1997 	ld	hl, #7
   0BDA 39            [11] 1998 	add	hl, sp
   0BDB F9            [ 6] 1999 	ld	sp, hl
                           2000 ;src/niveles/niveles.c:252: createRoca(rocas,1,6,sin_Movimiento, sprite_Muro_Polvo1,1);
   0BDC 21 1C 01      [10] 2001 	ld	hl, #0x011c
   0BDF E5            [11] 2002 	push	hl
   0BE0 21 06 00      [10] 2003 	ld	hl, #0x0006
   0BE3 E5            [11] 2004 	push	hl
   0BE4 3E 01         [ 7] 2005 	ld	a, #0x01
   0BE6 F5            [11] 2006 	push	af
   0BE7 33            [ 6] 2007 	inc	sp
   0BE8 DD 6E 06      [19] 2008 	ld	l,6 (ix)
   0BEB DD 66 07      [19] 2009 	ld	h,7 (ix)
   0BEE E5            [11] 2010 	push	hl
   0BEF CDrFEr01      [17] 2011 	call	_createRoca
   0BF2 21 07 00      [10] 2012 	ld	hl, #7
   0BF5 39            [11] 2013 	add	hl, sp
   0BF6 F9            [ 6] 2014 	ld	sp, hl
                           2015 ;src/niveles/niveles.c:253: createRoca(rocas,7,2,sin_Movimiento, sprite_Muro_Polvo1,1);
   0BF7 21 1C 01      [10] 2016 	ld	hl, #0x011c
   0BFA E5            [11] 2017 	push	hl
   0BFB 21 02 00      [10] 2018 	ld	hl, #0x0002
   0BFE E5            [11] 2019 	push	hl
   0BFF 3E 07         [ 7] 2020 	ld	a, #0x07
   0C01 F5            [11] 2021 	push	af
   0C02 33            [ 6] 2022 	inc	sp
   0C03 DD 6E 06      [19] 2023 	ld	l,6 (ix)
   0C06 DD 66 07      [19] 2024 	ld	h,7 (ix)
   0C09 E5            [11] 2025 	push	hl
   0C0A CDrFEr01      [17] 2026 	call	_createRoca
   0C0D 21 07 00      [10] 2027 	ld	hl, #7
   0C10 39            [11] 2028 	add	hl, sp
   0C11 F9            [ 6] 2029 	ld	sp, hl
                           2030 ;src/niveles/niveles.c:254: createRoca(rocas,7,3,sin_Movimiento, sprite_Muro_Polvo1,1);
   0C12 21 1C 01      [10] 2031 	ld	hl, #0x011c
   0C15 E5            [11] 2032 	push	hl
   0C16 21 03 00      [10] 2033 	ld	hl, #0x0003
   0C19 E5            [11] 2034 	push	hl
   0C1A 3E 07         [ 7] 2035 	ld	a, #0x07
   0C1C F5            [11] 2036 	push	af
   0C1D 33            [ 6] 2037 	inc	sp
   0C1E DD 6E 06      [19] 2038 	ld	l,6 (ix)
   0C21 DD 66 07      [19] 2039 	ld	h,7 (ix)
   0C24 E5            [11] 2040 	push	hl
   0C25 CDrFEr01      [17] 2041 	call	_createRoca
   0C28 21 07 00      [10] 2042 	ld	hl, #7
   0C2B 39            [11] 2043 	add	hl, sp
   0C2C F9            [ 6] 2044 	ld	sp, hl
                           2045 ;src/niveles/niveles.c:255: createRoca(rocas,7,4,sin_Movimiento, sprite_Muro_Polvo1,1);
   0C2D 21 1C 01      [10] 2046 	ld	hl, #0x011c
   0C30 E5            [11] 2047 	push	hl
   0C31 21 04 00      [10] 2048 	ld	hl, #0x0004
   0C34 E5            [11] 2049 	push	hl
   0C35 3E 07         [ 7] 2050 	ld	a, #0x07
   0C37 F5            [11] 2051 	push	af
   0C38 33            [ 6] 2052 	inc	sp
   0C39 DD 6E 06      [19] 2053 	ld	l,6 (ix)
   0C3C DD 66 07      [19] 2054 	ld	h,7 (ix)
   0C3F E5            [11] 2055 	push	hl
   0C40 CDrFEr01      [17] 2056 	call	_createRoca
   0C43 21 07 00      [10] 2057 	ld	hl, #7
   0C46 39            [11] 2058 	add	hl, sp
   0C47 F9            [ 6] 2059 	ld	sp, hl
                           2060 ;src/niveles/niveles.c:256: createRoca(rocas,7,5,sin_Movimiento, sprite_Muro_Polvo1,1);
   0C48 21 1C 01      [10] 2061 	ld	hl, #0x011c
   0C4B E5            [11] 2062 	push	hl
   0C4C 21 05 00      [10] 2063 	ld	hl, #0x0005
   0C4F E5            [11] 2064 	push	hl
   0C50 3E 07         [ 7] 2065 	ld	a, #0x07
   0C52 F5            [11] 2066 	push	af
   0C53 33            [ 6] 2067 	inc	sp
   0C54 DD 6E 06      [19] 2068 	ld	l,6 (ix)
   0C57 DD 66 07      [19] 2069 	ld	h,7 (ix)
   0C5A E5            [11] 2070 	push	hl
   0C5B CDrFEr01      [17] 2071 	call	_createRoca
   0C5E 21 07 00      [10] 2072 	ld	hl, #7
   0C61 39            [11] 2073 	add	hl, sp
   0C62 F9            [ 6] 2074 	ld	sp, hl
                           2075 ;src/niveles/niveles.c:257: createRoca(rocas,7,6,sin_Movimiento, sprite_Muro_Polvo1,1);
   0C63 21 1C 01      [10] 2076 	ld	hl, #0x011c
   0C66 E5            [11] 2077 	push	hl
   0C67 21 06 00      [10] 2078 	ld	hl, #0x0006
   0C6A E5            [11] 2079 	push	hl
   0C6B 3E 07         [ 7] 2080 	ld	a, #0x07
   0C6D F5            [11] 2081 	push	af
   0C6E 33            [ 6] 2082 	inc	sp
   0C6F DD 6E 06      [19] 2083 	ld	l,6 (ix)
   0C72 DD 66 07      [19] 2084 	ld	h,7 (ix)
   0C75 E5            [11] 2085 	push	hl
   0C76 CDrFEr01      [17] 2086 	call	_createRoca
   0C79 21 07 00      [10] 2087 	ld	hl, #7
   0C7C 39            [11] 2088 	add	hl, sp
   0C7D F9            [ 6] 2089 	ld	sp, hl
                           2090 ;src/niveles/niveles.c:258: createRoca(rocas,7,7,sin_Movimiento, sprite_Muro_Polvo1,1);
   0C7E 21 1C 01      [10] 2091 	ld	hl, #0x011c
   0C81 E5            [11] 2092 	push	hl
   0C82 21 07 00      [10] 2093 	ld	hl, #0x0007
   0C85 E5            [11] 2094 	push	hl
   0C86 3E 07         [ 7] 2095 	ld	a, #0x07
   0C88 F5            [11] 2096 	push	af
   0C89 33            [ 6] 2097 	inc	sp
   0C8A DD 6E 06      [19] 2098 	ld	l,6 (ix)
   0C8D DD 66 07      [19] 2099 	ld	h,7 (ix)
   0C90 E5            [11] 2100 	push	hl
   0C91 CDrFEr01      [17] 2101 	call	_createRoca
   0C94 21 07 00      [10] 2102 	ld	hl, #7
   0C97 39            [11] 2103 	add	hl, sp
   0C98 F9            [ 6] 2104 	ld	sp, hl
                           2105 ;src/niveles/niveles.c:259: createRoca(rocas,3,3,sin_Movimiento,sprite_RockInmovil1_B,1);
   0C99 21 08 01      [10] 2106 	ld	hl, #0x0108
   0C9C E5            [11] 2107 	push	hl
   0C9D 21 03 00      [10] 2108 	ld	hl, #0x0003
   0CA0 E5            [11] 2109 	push	hl
   0CA1 3E 03         [ 7] 2110 	ld	a, #0x03
   0CA3 F5            [11] 2111 	push	af
   0CA4 33            [ 6] 2112 	inc	sp
   0CA5 DD 6E 06      [19] 2113 	ld	l,6 (ix)
   0CA8 DD 66 07      [19] 2114 	ld	h,7 (ix)
   0CAB E5            [11] 2115 	push	hl
   0CAC CDrFEr01      [17] 2116 	call	_createRoca
   0CAF 21 07 00      [10] 2117 	ld	hl, #7
   0CB2 39            [11] 2118 	add	hl, sp
   0CB3 F9            [ 6] 2119 	ld	sp, hl
                           2120 ;src/niveles/niveles.c:260: createRoca(rocas,3,5,sin_Movimiento,sprite_RockInmovil1_B,1);
   0CB4 21 08 01      [10] 2121 	ld	hl, #0x0108
   0CB7 E5            [11] 2122 	push	hl
   0CB8 21 05 00      [10] 2123 	ld	hl, #0x0005
   0CBB E5            [11] 2124 	push	hl
   0CBC 3E 03         [ 7] 2125 	ld	a, #0x03
   0CBE F5            [11] 2126 	push	af
   0CBF 33            [ 6] 2127 	inc	sp
   0CC0 DD 6E 06      [19] 2128 	ld	l,6 (ix)
   0CC3 DD 66 07      [19] 2129 	ld	h,7 (ix)
   0CC6 E5            [11] 2130 	push	hl
   0CC7 CDrFEr01      [17] 2131 	call	_createRoca
   0CCA 21 07 00      [10] 2132 	ld	hl, #7
   0CCD 39            [11] 2133 	add	hl, sp
   0CCE F9            [ 6] 2134 	ld	sp, hl
                           2135 ;src/niveles/niveles.c:261: createRoca(rocas,5,3,sin_Movimiento,sprite_RockInmovil1_B,1);
   0CCF 21 08 01      [10] 2136 	ld	hl, #0x0108
   0CD2 E5            [11] 2137 	push	hl
   0CD3 21 03 00      [10] 2138 	ld	hl, #0x0003
   0CD6 E5            [11] 2139 	push	hl
   0CD7 3E 05         [ 7] 2140 	ld	a, #0x05
   0CD9 F5            [11] 2141 	push	af
   0CDA 33            [ 6] 2142 	inc	sp
   0CDB DD 6E 06      [19] 2143 	ld	l,6 (ix)
   0CDE DD 66 07      [19] 2144 	ld	h,7 (ix)
   0CE1 E5            [11] 2145 	push	hl
   0CE2 CDrFEr01      [17] 2146 	call	_createRoca
   0CE5 21 07 00      [10] 2147 	ld	hl, #7
   0CE8 39            [11] 2148 	add	hl, sp
   0CE9 F9            [ 6] 2149 	ld	sp, hl
                           2150 ;src/niveles/niveles.c:262: createRoca(rocas,5,5,sin_Movimiento,sprite_RockInmovil1_B,1);
   0CEA 21 08 01      [10] 2151 	ld	hl, #0x0108
   0CED E5            [11] 2152 	push	hl
   0CEE 21 05 00      [10] 2153 	ld	hl, #0x0005
   0CF1 E5            [11] 2154 	push	hl
   0CF2 3E 05         [ 7] 2155 	ld	a, #0x05
   0CF4 F5            [11] 2156 	push	af
   0CF5 33            [ 6] 2157 	inc	sp
   0CF6 DD 6E 06      [19] 2158 	ld	l,6 (ix)
   0CF9 DD 66 07      [19] 2159 	ld	h,7 (ix)
   0CFC E5            [11] 2160 	push	hl
   0CFD CDrFEr01      [17] 2161 	call	_createRoca
   0D00 21 07 00      [10] 2162 	ld	hl, #7
   0D03 39            [11] 2163 	add	hl, sp
   0D04 F9            [ 6] 2164 	ld	sp, hl
   0D05 DD E1         [14] 2165 	pop	ix
   0D07 C9            [10] 2166 	ret
                           2167 ;src/niveles/niveles.c:267: void crearNievel3(TGameObject* player,TGameObject* rocas,TGameObject* rocasEspejo,TGameObject* puertas,TGameObject* portales,TGameObjectCol* col,u8* posicion){
                           2168 ;	---------------------------------
                           2169 ; Function crearNievel3
                           2170 ; ---------------------------------
   0D08                    2171 _crearNievel3::
   0D08 DD E5         [15] 2172 	push	ix
   0D0A DD 21 00 00   [14] 2173 	ld	ix,#0
   0D0E DD 39         [15] 2174 	add	ix,sp
                           2175 ;src/niveles/niveles.c:269: createPlayer(player,3,3,posicion);
   0D10 DD 6E 10      [19] 2176 	ld	l,16 (ix)
   0D13 DD 66 11      [19] 2177 	ld	h,17 (ix)
   0D16 E5            [11] 2178 	push	hl
   0D17 21 03 03      [10] 2179 	ld	hl, #0x0303
   0D1A E5            [11] 2180 	push	hl
   0D1B DD 6E 04      [19] 2181 	ld	l,4 (ix)
   0D1E DD 66 05      [19] 2182 	ld	h,5 (ix)
   0D21 E5            [11] 2183 	push	hl
   0D22 CDrBFr01      [17] 2184 	call	_createPlayer
   0D25 21 06 00      [10] 2185 	ld	hl, #6
   0D28 39            [11] 2186 	add	hl, sp
   0D29 F9            [ 6] 2187 	ld	sp, hl
                           2188 ;src/niveles/niveles.c:270: createMarco(si);
   0D2A AF            [ 4] 2189 	xor	a, a
   0D2B F5            [11] 2190 	push	af
   0D2C 33            [ 6] 2191 	inc	sp
   0D2D CDrB0r01      [17] 2192 	call	_createMarco
   0D30 33            [ 6] 2193 	inc	sp
                           2194 ;src/niveles/niveles.c:271: createPortal(portales,rocas,rocasEspejo,si);
   0D31 AF            [ 4] 2195 	xor	a, a
   0D32 F5            [11] 2196 	push	af
   0D33 33            [ 6] 2197 	inc	sp
   0D34 DD 6E 08      [19] 2198 	ld	l,8 (ix)
   0D37 DD 66 09      [19] 2199 	ld	h,9 (ix)
   0D3A E5            [11] 2200 	push	hl
   0D3B DD 6E 06      [19] 2201 	ld	l,6 (ix)
   0D3E DD 66 07      [19] 2202 	ld	h,7 (ix)
   0D41 E5            [11] 2203 	push	hl
   0D42 DD 6E 0C      [19] 2204 	ld	l,12 (ix)
   0D45 DD 66 0D      [19] 2205 	ld	h,13 (ix)
   0D48 E5            [11] 2206 	push	hl
   0D49 CDrA3r03      [17] 2207 	call	_createPortal
   0D4C 21 07 00      [10] 2208 	ld	hl, #7
   0D4F 39            [11] 2209 	add	hl, sp
   0D50 F9            [ 6] 2210 	ld	sp, hl
                           2211 ;src/niveles/niveles.c:272: createPuerta(puertas,3,1,sprite_Puerta_G,nivel_02);
   0D51 21 1E 04      [10] 2212 	ld	hl, #0x041e
   0D54 E5            [11] 2213 	push	hl
   0D55 21 03 01      [10] 2214 	ld	hl, #0x0103
   0D58 E5            [11] 2215 	push	hl
   0D59 DD 6E 0A      [19] 2216 	ld	l,10 (ix)
   0D5C DD 66 0B      [19] 2217 	ld	h,11 (ix)
   0D5F E5            [11] 2218 	push	hl
   0D60 CDr2Ar03      [17] 2219 	call	_createPuerta
   0D63 21 06 00      [10] 2220 	ld	hl, #6
   0D66 39            [11] 2221 	add	hl, sp
   0D67 F9            [ 6] 2222 	ld	sp, hl
                           2223 ;src/niveles/niveles.c:273: createPuerta(puertas,13,1,sprite_Puerta_B,nivel_01_01);
   0D68 21 1F 02      [10] 2224 	ld	hl, #0x021f
   0D6B E5            [11] 2225 	push	hl
   0D6C 21 0D 01      [10] 2226 	ld	hl, #0x010d
   0D6F E5            [11] 2227 	push	hl
   0D70 DD 6E 0A      [19] 2228 	ld	l,10 (ix)
   0D73 DD 66 0B      [19] 2229 	ld	h,11 (ix)
   0D76 E5            [11] 2230 	push	hl
   0D77 CDr2Ar03      [17] 2231 	call	_createPuerta
   0D7A 21 06 00      [10] 2232 	ld	hl, #6
   0D7D 39            [11] 2233 	add	hl, sp
   0D7E F9            [ 6] 2234 	ld	sp, hl
                           2235 ;src/niveles/niveles.c:276: createPuerta(puertas,11,7,sprite_StairDown1_B,nivel_TRAP_01);
   0D7F 21 23 03      [10] 2236 	ld	hl, #0x0323
   0D82 E5            [11] 2237 	push	hl
   0D83 21 0B 07      [10] 2238 	ld	hl, #0x070b
   0D86 E5            [11] 2239 	push	hl
   0D87 DD 6E 0A      [19] 2240 	ld	l,10 (ix)
   0D8A DD 66 0B      [19] 2241 	ld	h,11 (ix)
   0D8D E5            [11] 2242 	push	hl
   0D8E CDr2Ar03      [17] 2243 	call	_createPuerta
   0D91 21 06 00      [10] 2244 	ld	hl, #6
   0D94 39            [11] 2245 	add	hl, sp
   0D95 F9            [ 6] 2246 	ld	sp, hl
                           2247 ;src/niveles/niveles.c:277: createPuerta(puertas,9,7,sprite_StairUp1_B,nivel_TRAP_01);
   0D96 21 21 03      [10] 2248 	ld	hl, #0x0321
   0D99 E5            [11] 2249 	push	hl
   0D9A 21 09 07      [10] 2250 	ld	hl, #0x0709
   0D9D E5            [11] 2251 	push	hl
   0D9E DD 6E 0A      [19] 2252 	ld	l,10 (ix)
   0DA1 DD 66 0B      [19] 2253 	ld	h,11 (ix)
   0DA4 E5            [11] 2254 	push	hl
   0DA5 CDr2Ar03      [17] 2255 	call	_createPuerta
   0DA8 21 06 00      [10] 2256 	ld	hl, #6
   0DAB 39            [11] 2257 	add	hl, sp
   0DAC F9            [ 6] 2258 	ld	sp, hl
                           2259 ;src/niveles/niveles.c:281: createRoca(rocas,5,4,mover_1,sprite_Rock_G,2);
   0DAD 21 02 02      [10] 2260 	ld	hl, #0x0202
   0DB0 E5            [11] 2261 	push	hl
   0DB1 21 04 01      [10] 2262 	ld	hl, #0x0104
   0DB4 E5            [11] 2263 	push	hl
   0DB5 3E 05         [ 7] 2264 	ld	a, #0x05
   0DB7 F5            [11] 2265 	push	af
   0DB8 33            [ 6] 2266 	inc	sp
   0DB9 DD 6E 06      [19] 2267 	ld	l,6 (ix)
   0DBC DD 66 07      [19] 2268 	ld	h,7 (ix)
   0DBF E5            [11] 2269 	push	hl
   0DC0 CDrFEr01      [17] 2270 	call	_createRoca
   0DC3 21 07 00      [10] 2271 	ld	hl, #7
   0DC6 39            [11] 2272 	add	hl, sp
   0DC7 F9            [ 6] 2273 	ld	sp, hl
                           2274 ;src/niveles/niveles.c:282: createRoca(rocas,1,6,mover_1,sprite_Rock_G,3);
   0DC8 21 02 03      [10] 2275 	ld	hl, #0x0302
   0DCB E5            [11] 2276 	push	hl
   0DCC 21 06 01      [10] 2277 	ld	hl, #0x0106
   0DCF E5            [11] 2278 	push	hl
   0DD0 3E 01         [ 7] 2279 	ld	a, #0x01
   0DD2 F5            [11] 2280 	push	af
   0DD3 33            [ 6] 2281 	inc	sp
   0DD4 DD 6E 06      [19] 2282 	ld	l,6 (ix)
   0DD7 DD 66 07      [19] 2283 	ld	h,7 (ix)
   0DDA E5            [11] 2284 	push	hl
   0DDB CDrFEr01      [17] 2285 	call	_createRoca
   0DDE 21 07 00      [10] 2286 	ld	hl, #7
   0DE1 39            [11] 2287 	add	hl, sp
   0DE2 F9            [ 6] 2288 	ld	sp, hl
                           2289 ;src/niveles/niveles.c:283: createRocaEspejo(rocasEspejo,11,4,mover_Linea,sprite_RockLineal1_G,2);
   0DE3 21 05 02      [10] 2290 	ld	hl, #0x0205
   0DE6 E5            [11] 2291 	push	hl
   0DE7 2E 04         [ 7] 2292 	ld	l, #0x04
   0DE9 E5            [11] 2293 	push	hl
   0DEA 3E 0B         [ 7] 2294 	ld	a, #0x0b
   0DEC F5            [11] 2295 	push	af
   0DED 33            [ 6] 2296 	inc	sp
   0DEE DD 6E 08      [19] 2297 	ld	l,8 (ix)
   0DF1 DD 66 09      [19] 2298 	ld	h,9 (ix)
   0DF4 E5            [11] 2299 	push	hl
   0DF5 CDr94r02      [17] 2300 	call	_createRocaEspejo
   0DF8 21 07 00      [10] 2301 	ld	hl, #7
   0DFB 39            [11] 2302 	add	hl, sp
   0DFC F9            [ 6] 2303 	ld	sp, hl
                           2304 ;src/niveles/niveles.c:287: createColeccionabeFamilia(col,15,5,sprite_familia1,5);
   0DFD 21 26 05      [10] 2305 	ld	hl, #0x0526
   0E00 E5            [11] 2306 	push	hl
   0E01 2E 0F         [ 7] 2307 	ld	l, #0x0f
   0E03 E5            [11] 2308 	push	hl
   0E04 DD 6E 0E      [19] 2309 	ld	l,14 (ix)
   0E07 DD 66 0F      [19] 2310 	ld	h,15 (ix)
   0E0A E5            [11] 2311 	push	hl
   0E0B CDr8Fr05      [17] 2312 	call	_createColeccionabeFamilia
   0E0E 21 06 00      [10] 2313 	ld	hl, #6
   0E11 39            [11] 2314 	add	hl, sp
   0E12 F9            [ 6] 2315 	ld	sp, hl
                           2316 ;src/niveles/niveles.c:290: createRoca(rocas,4,2,sin_Movimiento,sprite_RockInmovil1_G,1);
   0E13 21 07 01      [10] 2317 	ld	hl, #0x0107
   0E16 E5            [11] 2318 	push	hl
   0E17 21 02 00      [10] 2319 	ld	hl, #0x0002
   0E1A E5            [11] 2320 	push	hl
   0E1B 3E 04         [ 7] 2321 	ld	a, #0x04
   0E1D F5            [11] 2322 	push	af
   0E1E 33            [ 6] 2323 	inc	sp
   0E1F DD 6E 06      [19] 2324 	ld	l,6 (ix)
   0E22 DD 66 07      [19] 2325 	ld	h,7 (ix)
   0E25 E5            [11] 2326 	push	hl
   0E26 CDrFEr01      [17] 2327 	call	_createRoca
   0E29 21 07 00      [10] 2328 	ld	hl, #7
   0E2C 39            [11] 2329 	add	hl, sp
   0E2D F9            [ 6] 2330 	ld	sp, hl
                           2331 ;src/niveles/niveles.c:291: createRoca(rocas,4,6,sin_Movimiento,sprite_RockInmovil1_G,1);
   0E2E 21 07 01      [10] 2332 	ld	hl, #0x0107
   0E31 E5            [11] 2333 	push	hl
   0E32 21 06 00      [10] 2334 	ld	hl, #0x0006
   0E35 E5            [11] 2335 	push	hl
   0E36 3E 04         [ 7] 2336 	ld	a, #0x04
   0E38 F5            [11] 2337 	push	af
   0E39 33            [ 6] 2338 	inc	sp
   0E3A DD 6E 06      [19] 2339 	ld	l,6 (ix)
   0E3D DD 66 07      [19] 2340 	ld	h,7 (ix)
   0E40 E5            [11] 2341 	push	hl
   0E41 CDrFEr01      [17] 2342 	call	_createRoca
   0E44 21 07 00      [10] 2343 	ld	hl, #7
   0E47 39            [11] 2344 	add	hl, sp
   0E48 F9            [ 6] 2345 	ld	sp, hl
                           2346 ;src/niveles/niveles.c:292: createRoca(rocas,6,2,sin_Movimiento,sprite_RockInmovil2_G,1);
   0E49 21 09 01      [10] 2347 	ld	hl, #0x0109
   0E4C E5            [11] 2348 	push	hl
   0E4D 21 02 00      [10] 2349 	ld	hl, #0x0002
   0E50 E5            [11] 2350 	push	hl
   0E51 3E 06         [ 7] 2351 	ld	a, #0x06
   0E53 F5            [11] 2352 	push	af
   0E54 33            [ 6] 2353 	inc	sp
   0E55 DD 6E 06      [19] 2354 	ld	l,6 (ix)
   0E58 DD 66 07      [19] 2355 	ld	h,7 (ix)
   0E5B E5            [11] 2356 	push	hl
   0E5C CDrFEr01      [17] 2357 	call	_createRoca
   0E5F 21 07 00      [10] 2358 	ld	hl, #7
   0E62 39            [11] 2359 	add	hl, sp
   0E63 F9            [ 6] 2360 	ld	sp, hl
                           2361 ;src/niveles/niveles.c:293: createRoca(rocas,6,6,sin_Movimiento,sprite_RockInmovil2_G,1);
   0E64 21 09 01      [10] 2362 	ld	hl, #0x0109
   0E67 E5            [11] 2363 	push	hl
   0E68 21 06 00      [10] 2364 	ld	hl, #0x0006
   0E6B E5            [11] 2365 	push	hl
   0E6C 3E 06         [ 7] 2366 	ld	a, #0x06
   0E6E F5            [11] 2367 	push	af
   0E6F 33            [ 6] 2368 	inc	sp
   0E70 DD 6E 06      [19] 2369 	ld	l,6 (ix)
   0E73 DD 66 07      [19] 2370 	ld	h,7 (ix)
   0E76 E5            [11] 2371 	push	hl
   0E77 CDrFEr01      [17] 2372 	call	_createRoca
   0E7A 21 07 00      [10] 2373 	ld	hl, #7
   0E7D 39            [11] 2374 	add	hl, sp
   0E7E F9            [ 6] 2375 	ld	sp, hl
                           2376 ;src/niveles/niveles.c:294: createRoca(rocas,2,5,sin_Movimiento,sprite_RockInmovil6_G,1);
   0E7F 21 11 01      [10] 2377 	ld	hl, #0x0111
   0E82 E5            [11] 2378 	push	hl
   0E83 21 05 00      [10] 2379 	ld	hl, #0x0005
   0E86 E5            [11] 2380 	push	hl
   0E87 3E 02         [ 7] 2381 	ld	a, #0x02
   0E89 F5            [11] 2382 	push	af
   0E8A 33            [ 6] 2383 	inc	sp
   0E8B DD 6E 06      [19] 2384 	ld	l,6 (ix)
   0E8E DD 66 07      [19] 2385 	ld	h,7 (ix)
   0E91 E5            [11] 2386 	push	hl
   0E92 CDrFEr01      [17] 2387 	call	_createRoca
   0E95 21 07 00      [10] 2388 	ld	hl, #7
   0E98 39            [11] 2389 	add	hl, sp
   0E99 F9            [ 6] 2390 	ld	sp, hl
                           2391 ;src/niveles/niveles.c:295: createRoca(rocas,2,4,sin_Movimiento,sprite_RockInmovil7_G,1);
   0E9A 21 13 01      [10] 2392 	ld	hl, #0x0113
   0E9D E5            [11] 2393 	push	hl
   0E9E 21 04 00      [10] 2394 	ld	hl, #0x0004
   0EA1 E5            [11] 2395 	push	hl
   0EA2 3E 02         [ 7] 2396 	ld	a, #0x02
   0EA4 F5            [11] 2397 	push	af
   0EA5 33            [ 6] 2398 	inc	sp
   0EA6 DD 6E 06      [19] 2399 	ld	l,6 (ix)
   0EA9 DD 66 07      [19] 2400 	ld	h,7 (ix)
   0EAC E5            [11] 2401 	push	hl
   0EAD CDrFEr01      [17] 2402 	call	_createRoca
   0EB0 21 07 00      [10] 2403 	ld	hl, #7
   0EB3 39            [11] 2404 	add	hl, sp
   0EB4 F9            [ 6] 2405 	ld	sp, hl
                           2406 ;src/niveles/niveles.c:296: createRoca(rocas,4,7,sin_Movimiento, sprite_Muro_Solid1,1);
   0EB5 21 1D 01      [10] 2407 	ld	hl, #0x011d
   0EB8 E5            [11] 2408 	push	hl
   0EB9 21 07 00      [10] 2409 	ld	hl, #0x0007
   0EBC E5            [11] 2410 	push	hl
   0EBD 3E 04         [ 7] 2411 	ld	a, #0x04
   0EBF F5            [11] 2412 	push	af
   0EC0 33            [ 6] 2413 	inc	sp
   0EC1 DD 6E 06      [19] 2414 	ld	l,6 (ix)
   0EC4 DD 66 07      [19] 2415 	ld	h,7 (ix)
   0EC7 E5            [11] 2416 	push	hl
   0EC8 CDrFEr01      [17] 2417 	call	_createRoca
   0ECB 21 07 00      [10] 2418 	ld	hl, #7
   0ECE 39            [11] 2419 	add	hl, sp
   0ECF F9            [ 6] 2420 	ld	sp, hl
                           2421 ;src/niveles/niveles.c:297: createRoca(rocas,5,6,sin_Movimiento, sprite_Muro_Solid1,1);
   0ED0 21 1D 01      [10] 2422 	ld	hl, #0x011d
   0ED3 E5            [11] 2423 	push	hl
   0ED4 21 06 00      [10] 2424 	ld	hl, #0x0006
   0ED7 E5            [11] 2425 	push	hl
   0ED8 3E 05         [ 7] 2426 	ld	a, #0x05
   0EDA F5            [11] 2427 	push	af
   0EDB 33            [ 6] 2428 	inc	sp
   0EDC DD 6E 06      [19] 2429 	ld	l,6 (ix)
   0EDF DD 66 07      [19] 2430 	ld	h,7 (ix)
   0EE2 E5            [11] 2431 	push	hl
   0EE3 CDrFEr01      [17] 2432 	call	_createRoca
   0EE6 21 07 00      [10] 2433 	ld	hl, #7
   0EE9 39            [11] 2434 	add	hl, sp
   0EEA F9            [ 6] 2435 	ld	sp, hl
                           2436 ;src/niveles/niveles.c:298: createRoca(rocas,7,6,sin_Movimiento, sprite_Muro_Solid1,1);
   0EEB 21 1D 01      [10] 2437 	ld	hl, #0x011d
   0EEE E5            [11] 2438 	push	hl
   0EEF 21 06 00      [10] 2439 	ld	hl, #0x0006
   0EF2 E5            [11] 2440 	push	hl
   0EF3 3E 07         [ 7] 2441 	ld	a, #0x07
   0EF5 F5            [11] 2442 	push	af
   0EF6 33            [ 6] 2443 	inc	sp
   0EF7 DD 6E 06      [19] 2444 	ld	l,6 (ix)
   0EFA DD 66 07      [19] 2445 	ld	h,7 (ix)
   0EFD E5            [11] 2446 	push	hl
   0EFE CDrFEr01      [17] 2447 	call	_createRoca
   0F01 21 07 00      [10] 2448 	ld	hl, #7
   0F04 39            [11] 2449 	add	hl, sp
   0F05 F9            [ 6] 2450 	ld	sp, hl
                           2451 ;src/niveles/niveles.c:302: createRocaEspejo(rocasEspejo,12,2,sin_Movimiento,sprite_RockInmovil1_B,1);
   0F06 21 08 01      [10] 2452 	ld	hl, #0x0108
   0F09 E5            [11] 2453 	push	hl
   0F0A 21 02 00      [10] 2454 	ld	hl, #0x0002
   0F0D E5            [11] 2455 	push	hl
   0F0E 3E 0C         [ 7] 2456 	ld	a, #0x0c
   0F10 F5            [11] 2457 	push	af
   0F11 33            [ 6] 2458 	inc	sp
   0F12 DD 6E 08      [19] 2459 	ld	l,8 (ix)
   0F15 DD 66 09      [19] 2460 	ld	h,9 (ix)
   0F18 E5            [11] 2461 	push	hl
   0F19 CDr94r02      [17] 2462 	call	_createRocaEspejo
   0F1C 21 07 00      [10] 2463 	ld	hl, #7
   0F1F 39            [11] 2464 	add	hl, sp
   0F20 F9            [ 6] 2465 	ld	sp, hl
                           2466 ;src/niveles/niveles.c:303: createRocaEspejo(rocasEspejo,12,6,sin_Movimiento,sprite_RockInmovil1_B,1);
   0F21 21 08 01      [10] 2467 	ld	hl, #0x0108
   0F24 E5            [11] 2468 	push	hl
   0F25 21 06 00      [10] 2469 	ld	hl, #0x0006
   0F28 E5            [11] 2470 	push	hl
   0F29 3E 0C         [ 7] 2471 	ld	a, #0x0c
   0F2B F5            [11] 2472 	push	af
   0F2C 33            [ 6] 2473 	inc	sp
   0F2D DD 6E 08      [19] 2474 	ld	l,8 (ix)
   0F30 DD 66 09      [19] 2475 	ld	h,9 (ix)
   0F33 E5            [11] 2476 	push	hl
   0F34 CDr94r02      [17] 2477 	call	_createRocaEspejo
   0F37 21 07 00      [10] 2478 	ld	hl, #7
   0F3A 39            [11] 2479 	add	hl, sp
   0F3B F9            [ 6] 2480 	ld	sp, hl
                           2481 ;src/niveles/niveles.c:304: createRocaEspejo(rocasEspejo,10,2,sin_Movimiento,sprite_RockInmovil2_B,1);
   0F3C 21 0A 01      [10] 2482 	ld	hl, #0x010a
   0F3F E5            [11] 2483 	push	hl
   0F40 21 02 00      [10] 2484 	ld	hl, #0x0002
   0F43 E5            [11] 2485 	push	hl
   0F44 3E 0A         [ 7] 2486 	ld	a, #0x0a
   0F46 F5            [11] 2487 	push	af
   0F47 33            [ 6] 2488 	inc	sp
   0F48 DD 6E 08      [19] 2489 	ld	l,8 (ix)
   0F4B DD 66 09      [19] 2490 	ld	h,9 (ix)
   0F4E E5            [11] 2491 	push	hl
   0F4F CDr94r02      [17] 2492 	call	_createRocaEspejo
   0F52 21 07 00      [10] 2493 	ld	hl, #7
   0F55 39            [11] 2494 	add	hl, sp
   0F56 F9            [ 6] 2495 	ld	sp, hl
                           2496 ;src/niveles/niveles.c:305: createRocaEspejo(rocasEspejo,10,6,sin_Movimiento,sprite_RockInmovil2_B,1);
   0F57 21 0A 01      [10] 2497 	ld	hl, #0x010a
   0F5A E5            [11] 2498 	push	hl
   0F5B 21 06 00      [10] 2499 	ld	hl, #0x0006
   0F5E E5            [11] 2500 	push	hl
   0F5F 3E 0A         [ 7] 2501 	ld	a, #0x0a
   0F61 F5            [11] 2502 	push	af
   0F62 33            [ 6] 2503 	inc	sp
   0F63 DD 6E 08      [19] 2504 	ld	l,8 (ix)
   0F66 DD 66 09      [19] 2505 	ld	h,9 (ix)
   0F69 E5            [11] 2506 	push	hl
   0F6A CDr94r02      [17] 2507 	call	_createRocaEspejo
   0F6D 21 07 00      [10] 2508 	ld	hl, #7
   0F70 39            [11] 2509 	add	hl, sp
   0F71 F9            [ 6] 2510 	ld	sp, hl
                           2511 ;src/niveles/niveles.c:306: createRocaEspejo(rocasEspejo,14,5,sin_Movimiento,sprite_RockInmovil6_B,1);
   0F72 21 12 01      [10] 2512 	ld	hl, #0x0112
   0F75 E5            [11] 2513 	push	hl
   0F76 21 05 00      [10] 2514 	ld	hl, #0x0005
   0F79 E5            [11] 2515 	push	hl
   0F7A 3E 0E         [ 7] 2516 	ld	a, #0x0e
   0F7C F5            [11] 2517 	push	af
   0F7D 33            [ 6] 2518 	inc	sp
   0F7E DD 6E 08      [19] 2519 	ld	l,8 (ix)
   0F81 DD 66 09      [19] 2520 	ld	h,9 (ix)
   0F84 E5            [11] 2521 	push	hl
   0F85 CDr94r02      [17] 2522 	call	_createRocaEspejo
   0F88 21 07 00      [10] 2523 	ld	hl, #7
   0F8B 39            [11] 2524 	add	hl, sp
   0F8C F9            [ 6] 2525 	ld	sp, hl
                           2526 ;src/niveles/niveles.c:307: createRocaEspejo(rocasEspejo,14,4,sin_Movimiento,sprite_RockInmovil7_B,1);
   0F8D 21 14 01      [10] 2527 	ld	hl, #0x0114
   0F90 E5            [11] 2528 	push	hl
   0F91 21 04 00      [10] 2529 	ld	hl, #0x0004
   0F94 E5            [11] 2530 	push	hl
   0F95 3E 0E         [ 7] 2531 	ld	a, #0x0e
   0F97 F5            [11] 2532 	push	af
   0F98 33            [ 6] 2533 	inc	sp
   0F99 DD 6E 08      [19] 2534 	ld	l,8 (ix)
   0F9C DD 66 09      [19] 2535 	ld	h,9 (ix)
   0F9F E5            [11] 2536 	push	hl
   0FA0 CDr94r02      [17] 2537 	call	_createRocaEspejo
   0FA3 21 07 00      [10] 2538 	ld	hl, #7
   0FA6 39            [11] 2539 	add	hl, sp
   0FA7 F9            [ 6] 2540 	ld	sp, hl
                           2541 ;src/niveles/niveles.c:308: createRocaEspejo(rocasEspejo,12,7,sin_Movimiento, sprite_Muro_Solid1,1);
   0FA8 21 1D 01      [10] 2542 	ld	hl, #0x011d
   0FAB E5            [11] 2543 	push	hl
   0FAC 21 07 00      [10] 2544 	ld	hl, #0x0007
   0FAF E5            [11] 2545 	push	hl
   0FB0 3E 0C         [ 7] 2546 	ld	a, #0x0c
   0FB2 F5            [11] 2547 	push	af
   0FB3 33            [ 6] 2548 	inc	sp
   0FB4 DD 6E 08      [19] 2549 	ld	l,8 (ix)
   0FB7 DD 66 09      [19] 2550 	ld	h,9 (ix)
   0FBA E5            [11] 2551 	push	hl
   0FBB CDr94r02      [17] 2552 	call	_createRocaEspejo
   0FBE 21 07 00      [10] 2553 	ld	hl, #7
   0FC1 39            [11] 2554 	add	hl, sp
   0FC2 F9            [ 6] 2555 	ld	sp, hl
                           2556 ;src/niveles/niveles.c:309: createRocaEspejo(rocasEspejo,9,6,sin_Movimiento, sprite_Muro_Solid1,1);
   0FC3 21 1D 01      [10] 2557 	ld	hl, #0x011d
   0FC6 E5            [11] 2558 	push	hl
   0FC7 21 06 00      [10] 2559 	ld	hl, #0x0006
   0FCA E5            [11] 2560 	push	hl
   0FCB 3E 09         [ 7] 2561 	ld	a, #0x09
   0FCD F5            [11] 2562 	push	af
   0FCE 33            [ 6] 2563 	inc	sp
   0FCF DD 6E 08      [19] 2564 	ld	l,8 (ix)
   0FD2 DD 66 09      [19] 2565 	ld	h,9 (ix)
   0FD5 E5            [11] 2566 	push	hl
   0FD6 CDr94r02      [17] 2567 	call	_createRocaEspejo
   0FD9 21 07 00      [10] 2568 	ld	hl, #7
   0FDC 39            [11] 2569 	add	hl, sp
   0FDD F9            [ 6] 2570 	ld	sp, hl
                           2571 ;src/niveles/niveles.c:310: createRocaEspejo(rocasEspejo,11,6,sin_Movimiento, sprite_Muro_Solid1,1);
   0FDE 21 1D 01      [10] 2572 	ld	hl, #0x011d
   0FE1 E5            [11] 2573 	push	hl
   0FE2 21 06 00      [10] 2574 	ld	hl, #0x0006
   0FE5 E5            [11] 2575 	push	hl
   0FE6 3E 0B         [ 7] 2576 	ld	a, #0x0b
   0FE8 F5            [11] 2577 	push	af
   0FE9 33            [ 6] 2578 	inc	sp
   0FEA DD 6E 08      [19] 2579 	ld	l,8 (ix)
   0FED DD 66 09      [19] 2580 	ld	h,9 (ix)
   0FF0 E5            [11] 2581 	push	hl
   0FF1 CDr94r02      [17] 2582 	call	_createRocaEspejo
   0FF4 21 07 00      [10] 2583 	ld	hl, #7
   0FF7 39            [11] 2584 	add	hl, sp
   0FF8 F9            [ 6] 2585 	ld	sp, hl
                           2586 ;src/niveles/niveles.c:311: createHoleDerecha(rocasEspejo,15,3,sprite_hole,1);
   0FF9 21 24 01      [10] 2587 	ld	hl, #0x0124
   0FFC E5            [11] 2588 	push	hl
   0FFD 21 0F 03      [10] 2589 	ld	hl, #0x030f
   1000 E5            [11] 2590 	push	hl
   1001 DD 6E 08      [19] 2591 	ld	l,8 (ix)
   1004 DD 66 09      [19] 2592 	ld	h,9 (ix)
   1007 E5            [11] 2593 	push	hl
   1008 CDr83r04      [17] 2594 	call	_createHoleDerecha
   100B 21 06 00      [10] 2595 	ld	hl, #6
   100E 39            [11] 2596 	add	hl, sp
   100F F9            [ 6] 2597 	ld	sp, hl
                           2598 ;src/niveles/niveles.c:312: createHoleDerecha(rocasEspejo,15,6,sprite_hole,1);
   1010 21 24 01      [10] 2599 	ld	hl, #0x0124
   1013 E5            [11] 2600 	push	hl
   1014 21 0F 06      [10] 2601 	ld	hl, #0x060f
   1017 E5            [11] 2602 	push	hl
   1018 DD 6E 08      [19] 2603 	ld	l,8 (ix)
   101B DD 66 09      [19] 2604 	ld	h,9 (ix)
   101E E5            [11] 2605 	push	hl
   101F CDr83r04      [17] 2606 	call	_createHoleDerecha
   1022 21 06 00      [10] 2607 	ld	hl, #6
   1025 39            [11] 2608 	add	hl, sp
   1026 F9            [ 6] 2609 	ld	sp, hl
   1027 DD E1         [14] 2610 	pop	ix
   1029 C9            [10] 2611 	ret
                           2612 ;src/niveles/niveles.c:319: void crearNievel4(TGameObject* player,TGameObject* rocas,TGameObject* rocasEspejo,TGameObject* puertas,TGameObject* portales,TGameObjectCol* col,u8* posicion){
                           2613 ;	---------------------------------
                           2614 ; Function crearNievel4
                           2615 ; ---------------------------------
   102A                    2616 _crearNievel4::
   102A DD E5         [15] 2617 	push	ix
   102C DD 21 00 00   [14] 2618 	ld	ix,#0
   1030 DD 39         [15] 2619 	add	ix,sp
                           2620 ;src/niveles/niveles.c:321: createPlayer(player,14,4,posicion);
   1032 DD 6E 10      [19] 2621 	ld	l,16 (ix)
   1035 DD 66 11      [19] 2622 	ld	h,17 (ix)
   1038 E5            [11] 2623 	push	hl
   1039 21 0E 04      [10] 2624 	ld	hl, #0x040e
   103C E5            [11] 2625 	push	hl
   103D DD 6E 04      [19] 2626 	ld	l,4 (ix)
   1040 DD 66 05      [19] 2627 	ld	h,5 (ix)
   1043 E5            [11] 2628 	push	hl
   1044 CDrBFr01      [17] 2629 	call	_createPlayer
   1047 21 06 00      [10] 2630 	ld	hl, #6
   104A 39            [11] 2631 	add	hl, sp
   104B F9            [ 6] 2632 	ld	sp, hl
                           2633 ;src/niveles/niveles.c:322: createMarco(si);
   104C AF            [ 4] 2634 	xor	a, a
   104D F5            [11] 2635 	push	af
   104E 33            [ 6] 2636 	inc	sp
   104F CDrB0r01      [17] 2637 	call	_createMarco
   1052 33            [ 6] 2638 	inc	sp
                           2639 ;src/niveles/niveles.c:323: createPortal(portales,rocas,rocasEspejo,si);
   1053 AF            [ 4] 2640 	xor	a, a
   1054 F5            [11] 2641 	push	af
   1055 33            [ 6] 2642 	inc	sp
   1056 DD 6E 08      [19] 2643 	ld	l,8 (ix)
   1059 DD 66 09      [19] 2644 	ld	h,9 (ix)
   105C E5            [11] 2645 	push	hl
   105D DD 6E 06      [19] 2646 	ld	l,6 (ix)
   1060 DD 66 07      [19] 2647 	ld	h,7 (ix)
   1063 E5            [11] 2648 	push	hl
   1064 DD 6E 0C      [19] 2649 	ld	l,12 (ix)
   1067 DD 66 0D      [19] 2650 	ld	h,13 (ix)
   106A E5            [11] 2651 	push	hl
   106B CDrA3r03      [17] 2652 	call	_createPortal
   106E 21 07 00      [10] 2653 	ld	hl, #7
   1071 39            [11] 2654 	add	hl, sp
   1072 F9            [ 6] 2655 	ld	sp, hl
                           2656 ;src/niveles/niveles.c:324: createPuerta(puertas,15,4,sprite_Puerta_G,nivel_02);
   1073 21 1E 04      [10] 2657 	ld	hl, #0x041e
   1076 E5            [11] 2658 	push	hl
   1077 2E 0F         [ 7] 2659 	ld	l, #0x0f
   1079 E5            [11] 2660 	push	hl
   107A DD 6E 0A      [19] 2661 	ld	l,10 (ix)
   107D DD 66 0B      [19] 2662 	ld	h,11 (ix)
   1080 E5            [11] 2663 	push	hl
   1081 CDr2Ar03      [17] 2664 	call	_createPuerta
   1084 21 06 00      [10] 2665 	ld	hl, #6
   1087 39            [11] 2666 	add	hl, sp
   1088 F9            [ 6] 2667 	ld	sp, hl
                           2668 ;src/niveles/niveles.c:325: createPuerta(puertas,3,1,sprite_Puerta_G,nivel_05);
   1089 21 1E 08      [10] 2669 	ld	hl, #0x081e
   108C E5            [11] 2670 	push	hl
   108D 21 03 01      [10] 2671 	ld	hl, #0x0103
   1090 E5            [11] 2672 	push	hl
   1091 DD 6E 0A      [19] 2673 	ld	l,10 (ix)
   1094 DD 66 0B      [19] 2674 	ld	h,11 (ix)
   1097 E5            [11] 2675 	push	hl
   1098 CDr2Ar03      [17] 2676 	call	_createPuerta
   109B 21 06 00      [10] 2677 	ld	hl, #6
   109E 39            [11] 2678 	add	hl, sp
   109F F9            [ 6] 2679 	ld	sp, hl
                           2680 ;src/niveles/niveles.c:326: createPuerta(puertas,1,4,sprite_Puerta_G,nivel_04_01);
   10A0 21 1E 07      [10] 2681 	ld	hl, #0x071e
   10A3 E5            [11] 2682 	push	hl
   10A4 21 01 04      [10] 2683 	ld	hl, #0x0401
   10A7 E5            [11] 2684 	push	hl
   10A8 DD 6E 0A      [19] 2685 	ld	l,10 (ix)
   10AB DD 66 0B      [19] 2686 	ld	h,11 (ix)
   10AE E5            [11] 2687 	push	hl
   10AF CDr2Ar03      [17] 2688 	call	_createPuerta
   10B2 21 06 00      [10] 2689 	ld	hl, #6
   10B5 39            [11] 2690 	add	hl, sp
   10B6 F9            [ 6] 2691 	ld	sp, hl
                           2692 ;src/niveles/niveles.c:332: createRoca(rocas,3,4,mover_1,sprite_Rock_G,2);
   10B7 21 02 02      [10] 2693 	ld	hl, #0x0202
   10BA E5            [11] 2694 	push	hl
   10BB 21 04 01      [10] 2695 	ld	hl, #0x0104
   10BE E5            [11] 2696 	push	hl
   10BF 3E 03         [ 7] 2697 	ld	a, #0x03
   10C1 F5            [11] 2698 	push	af
   10C2 33            [ 6] 2699 	inc	sp
   10C3 DD 6E 06      [19] 2700 	ld	l,6 (ix)
   10C6 DD 66 07      [19] 2701 	ld	h,7 (ix)
   10C9 E5            [11] 2702 	push	hl
   10CA CDrFEr01      [17] 2703 	call	_createRoca
   10CD 21 07 00      [10] 2704 	ld	hl, #7
   10D0 39            [11] 2705 	add	hl, sp
   10D1 F9            [ 6] 2706 	ld	sp, hl
                           2707 ;src/niveles/niveles.c:333: createRocaEspejo(rocasEspejo,13,4,mover_1,sprite_Rock_G,2);
   10D2 21 02 02      [10] 2708 	ld	hl, #0x0202
   10D5 E5            [11] 2709 	push	hl
   10D6 21 04 01      [10] 2710 	ld	hl, #0x0104
   10D9 E5            [11] 2711 	push	hl
   10DA 3E 0D         [ 7] 2712 	ld	a, #0x0d
   10DC F5            [11] 2713 	push	af
   10DD 33            [ 6] 2714 	inc	sp
   10DE DD 6E 08      [19] 2715 	ld	l,8 (ix)
   10E1 DD 66 09      [19] 2716 	ld	h,9 (ix)
   10E4 E5            [11] 2717 	push	hl
   10E5 CDr94r02      [17] 2718 	call	_createRocaEspejo
   10E8 21 07 00      [10] 2719 	ld	hl, #7
   10EB 39            [11] 2720 	add	hl, sp
   10EC F9            [ 6] 2721 	ld	sp, hl
                           2722 ;src/niveles/niveles.c:334: createRoca(rocas,3,3,mover_1,sprite_Rock_G,3);
   10ED 21 02 03      [10] 2723 	ld	hl, #0x0302
   10F0 E5            [11] 2724 	push	hl
   10F1 21 03 01      [10] 2725 	ld	hl, #0x0103
   10F4 E5            [11] 2726 	push	hl
   10F5 3E 03         [ 7] 2727 	ld	a, #0x03
   10F7 F5            [11] 2728 	push	af
   10F8 33            [ 6] 2729 	inc	sp
   10F9 DD 6E 06      [19] 2730 	ld	l,6 (ix)
   10FC DD 66 07      [19] 2731 	ld	h,7 (ix)
   10FF E5            [11] 2732 	push	hl
   1100 CDrFEr01      [17] 2733 	call	_createRoca
   1103 21 07 00      [10] 2734 	ld	hl, #7
   1106 39            [11] 2735 	add	hl, sp
   1107 F9            [ 6] 2736 	ld	sp, hl
                           2737 ;src/niveles/niveles.c:335: createRocaEspejo(rocasEspejo,13,3,sin_Movimiento,sprite_Rock_nomove_B,3);
   1108 21 04 03      [10] 2738 	ld	hl, #0x0304
   110B E5            [11] 2739 	push	hl
   110C 21 03 00      [10] 2740 	ld	hl, #0x0003
   110F E5            [11] 2741 	push	hl
   1110 3E 0D         [ 7] 2742 	ld	a, #0x0d
   1112 F5            [11] 2743 	push	af
   1113 33            [ 6] 2744 	inc	sp
   1114 DD 6E 08      [19] 2745 	ld	l,8 (ix)
   1117 DD 66 09      [19] 2746 	ld	h,9 (ix)
   111A E5            [11] 2747 	push	hl
   111B CDr94r02      [17] 2748 	call	_createRocaEspejo
   111E 21 07 00      [10] 2749 	ld	hl, #7
   1121 39            [11] 2750 	add	hl, sp
   1122 F9            [ 6] 2751 	ld	sp, hl
                           2752 ;src/niveles/niveles.c:336: createRoca(rocas,3,5,mover_1,sprite_Rock_G,4);
   1123 21 02 04      [10] 2753 	ld	hl, #0x0402
   1126 E5            [11] 2754 	push	hl
   1127 21 05 01      [10] 2755 	ld	hl, #0x0105
   112A E5            [11] 2756 	push	hl
   112B 3E 03         [ 7] 2757 	ld	a, #0x03
   112D F5            [11] 2758 	push	af
   112E 33            [ 6] 2759 	inc	sp
   112F DD 6E 06      [19] 2760 	ld	l,6 (ix)
   1132 DD 66 07      [19] 2761 	ld	h,7 (ix)
   1135 E5            [11] 2762 	push	hl
   1136 CDrFEr01      [17] 2763 	call	_createRoca
   1139 21 07 00      [10] 2764 	ld	hl, #7
   113C 39            [11] 2765 	add	hl, sp
   113D F9            [ 6] 2766 	ld	sp, hl
                           2767 ;src/niveles/niveles.c:337: createRocaEspejo(rocasEspejo,13,5,mover_Linea,sprite_RockLineal1_G,4);
   113E 21 05 04      [10] 2768 	ld	hl, #0x0405
   1141 E5            [11] 2769 	push	hl
   1142 26 02         [ 7] 2770 	ld	h, #0x02
   1144 E5            [11] 2771 	push	hl
   1145 3E 0D         [ 7] 2772 	ld	a, #0x0d
   1147 F5            [11] 2773 	push	af
   1148 33            [ 6] 2774 	inc	sp
   1149 DD 6E 08      [19] 2775 	ld	l,8 (ix)
   114C DD 66 09      [19] 2776 	ld	h,9 (ix)
   114F E5            [11] 2777 	push	hl
   1150 CDr94r02      [17] 2778 	call	_createRocaEspejo
   1153 21 07 00      [10] 2779 	ld	hl, #7
   1156 39            [11] 2780 	add	hl, sp
   1157 F9            [ 6] 2781 	ld	sp, hl
                           2782 ;src/niveles/niveles.c:342: createRoca(rocas,1,2,sin_Movimiento,sprite_RockInmovil8_G,1);
   1158 21 15 01      [10] 2783 	ld	hl, #0x0115
   115B E5            [11] 2784 	push	hl
   115C 21 02 00      [10] 2785 	ld	hl, #0x0002
   115F E5            [11] 2786 	push	hl
   1160 3E 01         [ 7] 2787 	ld	a, #0x01
   1162 F5            [11] 2788 	push	af
   1163 33            [ 6] 2789 	inc	sp
   1164 DD 6E 06      [19] 2790 	ld	l,6 (ix)
   1167 DD 66 07      [19] 2791 	ld	h,7 (ix)
   116A E5            [11] 2792 	push	hl
   116B CDrFEr01      [17] 2793 	call	_createRoca
   116E 21 07 00      [10] 2794 	ld	hl, #7
   1171 39            [11] 2795 	add	hl, sp
   1172 F9            [ 6] 2796 	ld	sp, hl
                           2797 ;src/niveles/niveles.c:343: createRoca(rocas,1,3,sin_Movimiento,sprite_RockInmovil9_G,1);
   1173 21 17 01      [10] 2798 	ld	hl, #0x0117
   1176 E5            [11] 2799 	push	hl
   1177 21 03 00      [10] 2800 	ld	hl, #0x0003
   117A E5            [11] 2801 	push	hl
   117B 3E 01         [ 7] 2802 	ld	a, #0x01
   117D F5            [11] 2803 	push	af
   117E 33            [ 6] 2804 	inc	sp
   117F DD 6E 06      [19] 2805 	ld	l,6 (ix)
   1182 DD 66 07      [19] 2806 	ld	h,7 (ix)
   1185 E5            [11] 2807 	push	hl
   1186 CDrFEr01      [17] 2808 	call	_createRoca
   1189 21 07 00      [10] 2809 	ld	hl, #7
   118C 39            [11] 2810 	add	hl, sp
   118D F9            [ 6] 2811 	ld	sp, hl
                           2812 ;src/niveles/niveles.c:344: createRoca(rocas,6,2,sin_Movimiento,sprite_RockInmovil8_G,1);
   118E 21 15 01      [10] 2813 	ld	hl, #0x0115
   1191 E5            [11] 2814 	push	hl
   1192 21 02 00      [10] 2815 	ld	hl, #0x0002
   1195 E5            [11] 2816 	push	hl
   1196 3E 06         [ 7] 2817 	ld	a, #0x06
   1198 F5            [11] 2818 	push	af
   1199 33            [ 6] 2819 	inc	sp
   119A DD 6E 06      [19] 2820 	ld	l,6 (ix)
   119D DD 66 07      [19] 2821 	ld	h,7 (ix)
   11A0 E5            [11] 2822 	push	hl
   11A1 CDrFEr01      [17] 2823 	call	_createRoca
   11A4 21 07 00      [10] 2824 	ld	hl, #7
   11A7 39            [11] 2825 	add	hl, sp
   11A8 F9            [ 6] 2826 	ld	sp, hl
                           2827 ;src/niveles/niveles.c:345: createRoca(rocas,6,3,sin_Movimiento,sprite_RockInmovil9_G,1);
   11A9 21 17 01      [10] 2828 	ld	hl, #0x0117
   11AC E5            [11] 2829 	push	hl
   11AD 21 03 00      [10] 2830 	ld	hl, #0x0003
   11B0 E5            [11] 2831 	push	hl
   11B1 3E 06         [ 7] 2832 	ld	a, #0x06
   11B3 F5            [11] 2833 	push	af
   11B4 33            [ 6] 2834 	inc	sp
   11B5 DD 6E 06      [19] 2835 	ld	l,6 (ix)
   11B8 DD 66 07      [19] 2836 	ld	h,7 (ix)
   11BB E5            [11] 2837 	push	hl
   11BC CDrFEr01      [17] 2838 	call	_createRoca
   11BF 21 07 00      [10] 2839 	ld	hl, #7
   11C2 39            [11] 2840 	add	hl, sp
   11C3 F9            [ 6] 2841 	ld	sp, hl
                           2842 ;src/niveles/niveles.c:346: createRoca(rocas,1,5,sin_Movimiento,sprite_RockInmovil8_G,1);
   11C4 21 15 01      [10] 2843 	ld	hl, #0x0115
   11C7 E5            [11] 2844 	push	hl
   11C8 21 05 00      [10] 2845 	ld	hl, #0x0005
   11CB E5            [11] 2846 	push	hl
   11CC 3E 01         [ 7] 2847 	ld	a, #0x01
   11CE F5            [11] 2848 	push	af
   11CF 33            [ 6] 2849 	inc	sp
   11D0 DD 6E 06      [19] 2850 	ld	l,6 (ix)
   11D3 DD 66 07      [19] 2851 	ld	h,7 (ix)
   11D6 E5            [11] 2852 	push	hl
   11D7 CDrFEr01      [17] 2853 	call	_createRoca
   11DA 21 07 00      [10] 2854 	ld	hl, #7
   11DD 39            [11] 2855 	add	hl, sp
   11DE F9            [ 6] 2856 	ld	sp, hl
                           2857 ;src/niveles/niveles.c:347: createRoca(rocas,1,6,sin_Movimiento,sprite_RockInmovil9_G,1);
   11DF 21 17 01      [10] 2858 	ld	hl, #0x0117
   11E2 E5            [11] 2859 	push	hl
   11E3 21 06 00      [10] 2860 	ld	hl, #0x0006
   11E6 E5            [11] 2861 	push	hl
   11E7 3E 01         [ 7] 2862 	ld	a, #0x01
   11E9 F5            [11] 2863 	push	af
   11EA 33            [ 6] 2864 	inc	sp
   11EB DD 6E 06      [19] 2865 	ld	l,6 (ix)
   11EE DD 66 07      [19] 2866 	ld	h,7 (ix)
   11F1 E5            [11] 2867 	push	hl
   11F2 CDrFEr01      [17] 2868 	call	_createRoca
   11F5 21 07 00      [10] 2869 	ld	hl, #7
   11F8 39            [11] 2870 	add	hl, sp
   11F9 F9            [ 6] 2871 	ld	sp, hl
                           2872 ;src/niveles/niveles.c:348: createRoca(rocas,6,5,sin_Movimiento,sprite_RockInmovil8_G,1);
   11FA 21 15 01      [10] 2873 	ld	hl, #0x0115
   11FD E5            [11] 2874 	push	hl
   11FE 21 05 00      [10] 2875 	ld	hl, #0x0005
   1201 E5            [11] 2876 	push	hl
   1202 3E 06         [ 7] 2877 	ld	a, #0x06
   1204 F5            [11] 2878 	push	af
   1205 33            [ 6] 2879 	inc	sp
   1206 DD 6E 06      [19] 2880 	ld	l,6 (ix)
   1209 DD 66 07      [19] 2881 	ld	h,7 (ix)
   120C E5            [11] 2882 	push	hl
   120D CDrFEr01      [17] 2883 	call	_createRoca
   1210 21 07 00      [10] 2884 	ld	hl, #7
   1213 39            [11] 2885 	add	hl, sp
   1214 F9            [ 6] 2886 	ld	sp, hl
                           2887 ;src/niveles/niveles.c:349: createRoca(rocas,6,6,sin_Movimiento,sprite_RockInmovil9_G,1);
   1215 21 17 01      [10] 2888 	ld	hl, #0x0117
   1218 E5            [11] 2889 	push	hl
   1219 21 06 00      [10] 2890 	ld	hl, #0x0006
   121C E5            [11] 2891 	push	hl
   121D 3E 06         [ 7] 2892 	ld	a, #0x06
   121F F5            [11] 2893 	push	af
   1220 33            [ 6] 2894 	inc	sp
   1221 DD 6E 06      [19] 2895 	ld	l,6 (ix)
   1224 DD 66 07      [19] 2896 	ld	h,7 (ix)
   1227 E5            [11] 2897 	push	hl
   1228 CDrFEr01      [17] 2898 	call	_createRoca
   122B 21 07 00      [10] 2899 	ld	hl, #7
   122E 39            [11] 2900 	add	hl, sp
   122F F9            [ 6] 2901 	ld	sp, hl
                           2902 ;src/niveles/niveles.c:350: createRoca(rocas,4,2,sin_Movimiento,sprite_RockInmovil1_G,1);
   1230 21 07 01      [10] 2903 	ld	hl, #0x0107
   1233 E5            [11] 2904 	push	hl
   1234 21 02 00      [10] 2905 	ld	hl, #0x0002
   1237 E5            [11] 2906 	push	hl
   1238 3E 04         [ 7] 2907 	ld	a, #0x04
   123A F5            [11] 2908 	push	af
   123B 33            [ 6] 2909 	inc	sp
   123C DD 6E 06      [19] 2910 	ld	l,6 (ix)
   123F DD 66 07      [19] 2911 	ld	h,7 (ix)
   1242 E5            [11] 2912 	push	hl
   1243 CDrFEr01      [17] 2913 	call	_createRoca
   1246 21 07 00      [10] 2914 	ld	hl, #7
   1249 39            [11] 2915 	add	hl, sp
   124A F9            [ 6] 2916 	ld	sp, hl
                           2917 ;src/niveles/niveles.c:351: createRoca(rocas,4,6,sin_Movimiento,sprite_RockInmovil1_G,1);
   124B 21 07 01      [10] 2918 	ld	hl, #0x0107
   124E E5            [11] 2919 	push	hl
   124F 21 06 00      [10] 2920 	ld	hl, #0x0006
   1252 E5            [11] 2921 	push	hl
   1253 3E 04         [ 7] 2922 	ld	a, #0x04
   1255 F5            [11] 2923 	push	af
   1256 33            [ 6] 2924 	inc	sp
   1257 DD 6E 06      [19] 2925 	ld	l,6 (ix)
   125A DD 66 07      [19] 2926 	ld	h,7 (ix)
   125D E5            [11] 2927 	push	hl
   125E CDrFEr01      [17] 2928 	call	_createRoca
   1261 21 07 00      [10] 2929 	ld	hl, #7
   1264 39            [11] 2930 	add	hl, sp
   1265 F9            [ 6] 2931 	ld	sp, hl
                           2932 ;src/niveles/niveles.c:352: createRoca(rocas,2,3,sin_Movimiento,sprite_RockInmovil2_G,1);
   1266 21 09 01      [10] 2933 	ld	hl, #0x0109
   1269 E5            [11] 2934 	push	hl
   126A 21 03 00      [10] 2935 	ld	hl, #0x0003
   126D E5            [11] 2936 	push	hl
   126E 3E 02         [ 7] 2937 	ld	a, #0x02
   1270 F5            [11] 2938 	push	af
   1271 33            [ 6] 2939 	inc	sp
   1272 DD 6E 06      [19] 2940 	ld	l,6 (ix)
   1275 DD 66 07      [19] 2941 	ld	h,7 (ix)
   1278 E5            [11] 2942 	push	hl
   1279 CDrFEr01      [17] 2943 	call	_createRoca
   127C 21 07 00      [10] 2944 	ld	hl, #7
   127F 39            [11] 2945 	add	hl, sp
   1280 F9            [ 6] 2946 	ld	sp, hl
                           2947 ;src/niveles/niveles.c:353: createRoca(rocas,2,5,sin_Movimiento,sprite_RockInmovil2_G,1);
   1281 21 09 01      [10] 2948 	ld	hl, #0x0109
   1284 E5            [11] 2949 	push	hl
   1285 21 05 00      [10] 2950 	ld	hl, #0x0005
   1288 E5            [11] 2951 	push	hl
   1289 3E 02         [ 7] 2952 	ld	a, #0x02
   128B F5            [11] 2953 	push	af
   128C 33            [ 6] 2954 	inc	sp
   128D DD 6E 06      [19] 2955 	ld	l,6 (ix)
   1290 DD 66 07      [19] 2956 	ld	h,7 (ix)
   1293 E5            [11] 2957 	push	hl
   1294 CDrFEr01      [17] 2958 	call	_createRoca
   1297 21 07 00      [10] 2959 	ld	hl, #7
   129A 39            [11] 2960 	add	hl, sp
   129B F9            [ 6] 2961 	ld	sp, hl
                           2962 ;src/niveles/niveles.c:354: createRoca(rocas,2,2,sin_Movimiento,sprite_RockInmovil5_G,1);
   129C 21 0F 01      [10] 2963 	ld	hl, #0x010f
   129F E5            [11] 2964 	push	hl
   12A0 21 02 00      [10] 2965 	ld	hl, #0x0002
   12A3 E5            [11] 2966 	push	hl
   12A4 3E 02         [ 7] 2967 	ld	a, #0x02
   12A6 F5            [11] 2968 	push	af
   12A7 33            [ 6] 2969 	inc	sp
   12A8 DD 6E 06      [19] 2970 	ld	l,6 (ix)
   12AB DD 66 07      [19] 2971 	ld	h,7 (ix)
   12AE E5            [11] 2972 	push	hl
   12AF CDrFEr01      [17] 2973 	call	_createRoca
   12B2 21 07 00      [10] 2974 	ld	hl, #7
   12B5 39            [11] 2975 	add	hl, sp
   12B6 F9            [ 6] 2976 	ld	sp, hl
                           2977 ;src/niveles/niveles.c:355: createRoca(rocas,2,6,sin_Movimiento,sprite_RockInmovil5_G,1);
   12B7 21 0F 01      [10] 2978 	ld	hl, #0x010f
   12BA E5            [11] 2979 	push	hl
   12BB 21 06 00      [10] 2980 	ld	hl, #0x0006
   12BE E5            [11] 2981 	push	hl
   12BF 3E 02         [ 7] 2982 	ld	a, #0x02
   12C1 F5            [11] 2983 	push	af
   12C2 33            [ 6] 2984 	inc	sp
   12C3 DD 6E 06      [19] 2985 	ld	l,6 (ix)
   12C6 DD 66 07      [19] 2986 	ld	h,7 (ix)
   12C9 E5            [11] 2987 	push	hl
   12CA CDrFEr01      [17] 2988 	call	_createRoca
   12CD 21 07 00      [10] 2989 	ld	hl, #7
   12D0 39            [11] 2990 	add	hl, sp
   12D1 F9            [ 6] 2991 	ld	sp, hl
                           2992 ;src/niveles/niveles.c:356: createHoleIzquierda(rocas,4,1,sprite_hole,4);
   12D2 21 24 04      [10] 2993 	ld	hl, #0x0424
   12D5 E5            [11] 2994 	push	hl
   12D6 21 04 01      [10] 2995 	ld	hl, #0x0104
   12D9 E5            [11] 2996 	push	hl
   12DA DD 6E 06      [19] 2997 	ld	l,6 (ix)
   12DD DD 66 07      [19] 2998 	ld	h,7 (ix)
   12E0 E5            [11] 2999 	push	hl
   12E1 CDrEFr03      [17] 3000 	call	_createHoleIzquierda
   12E4 21 06 00      [10] 3001 	ld	hl, #6
   12E7 39            [11] 3002 	add	hl, sp
   12E8 F9            [ 6] 3003 	ld	sp, hl
                           3004 ;src/niveles/niveles.c:357: createHoleIzquierda(rocas,4,7,sprite_hole,4);
   12E9 21 24 04      [10] 3005 	ld	hl, #0x0424
   12EC E5            [11] 3006 	push	hl
   12ED 21 04 07      [10] 3007 	ld	hl, #0x0704
   12F0 E5            [11] 3008 	push	hl
   12F1 DD 6E 06      [19] 3009 	ld	l,6 (ix)
   12F4 DD 66 07      [19] 3010 	ld	h,7 (ix)
   12F7 E5            [11] 3011 	push	hl
   12F8 CDrEFr03      [17] 3012 	call	_createHoleIzquierda
   12FB 21 06 00      [10] 3013 	ld	hl, #6
   12FE 39            [11] 3014 	add	hl, sp
   12FF F9            [ 6] 3015 	ld	sp, hl
                           3016 ;src/niveles/niveles.c:363: createRocaEspejo(rocasEspejo,12,4,sin_Movimiento,sprite_RockInmovil1_B,1);
   1300 21 08 01      [10] 3017 	ld	hl, #0x0108
   1303 E5            [11] 3018 	push	hl
   1304 21 04 00      [10] 3019 	ld	hl, #0x0004
   1307 E5            [11] 3020 	push	hl
   1308 3E 0C         [ 7] 3021 	ld	a, #0x0c
   130A F5            [11] 3022 	push	af
   130B 33            [ 6] 3023 	inc	sp
   130C DD 6E 08      [19] 3024 	ld	l,8 (ix)
   130F DD 66 09      [19] 3025 	ld	h,9 (ix)
   1312 E5            [11] 3026 	push	hl
   1313 CDr94r02      [17] 3027 	call	_createRocaEspejo
   1316 21 07 00      [10] 3028 	ld	hl, #7
   1319 39            [11] 3029 	add	hl, sp
   131A F9            [ 6] 3030 	ld	sp, hl
                           3031 ;src/niveles/niveles.c:364: createHoleDerecha(rocasEspejo,10,3,sprite_hole,4);
   131B 21 24 04      [10] 3032 	ld	hl, #0x0424
   131E E5            [11] 3033 	push	hl
   131F 21 0A 03      [10] 3034 	ld	hl, #0x030a
   1322 E5            [11] 3035 	push	hl
   1323 DD 6E 08      [19] 3036 	ld	l,8 (ix)
   1326 DD 66 09      [19] 3037 	ld	h,9 (ix)
   1329 E5            [11] 3038 	push	hl
   132A CDr83r04      [17] 3039 	call	_createHoleDerecha
   132D 21 06 00      [10] 3040 	ld	hl, #6
   1330 39            [11] 3041 	add	hl, sp
   1331 F9            [ 6] 3042 	ld	sp, hl
                           3043 ;src/niveles/niveles.c:365: createHoleDerecha(rocasEspejo,10,5,sprite_hole,4);
   1332 21 24 04      [10] 3044 	ld	hl, #0x0424
   1335 E5            [11] 3045 	push	hl
   1336 21 0A 05      [10] 3046 	ld	hl, #0x050a
   1339 E5            [11] 3047 	push	hl
   133A DD 6E 08      [19] 3048 	ld	l,8 (ix)
   133D DD 66 09      [19] 3049 	ld	h,9 (ix)
   1340 E5            [11] 3050 	push	hl
   1341 CDr83r04      [17] 3051 	call	_createHoleDerecha
   1344 21 06 00      [10] 3052 	ld	hl, #6
   1347 39            [11] 3053 	add	hl, sp
   1348 F9            [ 6] 3054 	ld	sp, hl
                           3055 ;src/niveles/niveles.c:366: createHoleDerecha(rocasEspejo,11,2,sprite_hole,4);
   1349 21 24 04      [10] 3056 	ld	hl, #0x0424
   134C E5            [11] 3057 	push	hl
   134D 21 0B 02      [10] 3058 	ld	hl, #0x020b
   1350 E5            [11] 3059 	push	hl
   1351 DD 6E 08      [19] 3060 	ld	l,8 (ix)
   1354 DD 66 09      [19] 3061 	ld	h,9 (ix)
   1357 E5            [11] 3062 	push	hl
   1358 CDr83r04      [17] 3063 	call	_createHoleDerecha
   135B 21 06 00      [10] 3064 	ld	hl, #6
   135E 39            [11] 3065 	add	hl, sp
   135F F9            [ 6] 3066 	ld	sp, hl
                           3067 ;src/niveles/niveles.c:367: createHoleDerecha(rocasEspejo,11,4,sprite_hole,4);
   1360 21 24 04      [10] 3068 	ld	hl, #0x0424
   1363 E5            [11] 3069 	push	hl
   1364 2E 0B         [ 7] 3070 	ld	l, #0x0b
   1366 E5            [11] 3071 	push	hl
   1367 DD 6E 08      [19] 3072 	ld	l,8 (ix)
   136A DD 66 09      [19] 3073 	ld	h,9 (ix)
   136D E5            [11] 3074 	push	hl
   136E CDr83r04      [17] 3075 	call	_createHoleDerecha
   1371 21 06 00      [10] 3076 	ld	hl, #6
   1374 39            [11] 3077 	add	hl, sp
   1375 F9            [ 6] 3078 	ld	sp, hl
                           3079 ;src/niveles/niveles.c:368: createHoleDerecha(rocasEspejo,11,6,sprite_hole,4);
   1376 21 24 04      [10] 3080 	ld	hl, #0x0424
   1379 E5            [11] 3081 	push	hl
   137A 21 0B 06      [10] 3082 	ld	hl, #0x060b
   137D E5            [11] 3083 	push	hl
   137E DD 6E 08      [19] 3084 	ld	l,8 (ix)
   1381 DD 66 09      [19] 3085 	ld	h,9 (ix)
   1384 E5            [11] 3086 	push	hl
   1385 CDr83r04      [17] 3087 	call	_createHoleDerecha
   1388 21 06 00      [10] 3088 	ld	hl, #6
   138B 39            [11] 3089 	add	hl, sp
   138C F9            [ 6] 3090 	ld	sp, hl
   138D DD E1         [14] 3091 	pop	ix
   138F C9            [10] 3092 	ret
                           3093 ;src/niveles/niveles.c:371: void crearNievel4_01(TGameObject* player,TGameObject* rocas,TGameObject* rocasEspejo,TGameObject* puertas,TGameObject* portales,TGameObjectCol* col,u8* posicion){
                           3094 ;	---------------------------------
                           3095 ; Function crearNievel4_01
                           3096 ; ---------------------------------
   1390                    3097 _crearNievel4_01::
   1390 DD E5         [15] 3098 	push	ix
   1392 DD 21 00 00   [14] 3099 	ld	ix,#0
   1396 DD 39         [15] 3100 	add	ix,sp
                           3101 ;src/niveles/niveles.c:373: createPlayer(player,6,4,posicion);
   1398 DD 6E 10      [19] 3102 	ld	l,16 (ix)
   139B DD 66 11      [19] 3103 	ld	h,17 (ix)
   139E E5            [11] 3104 	push	hl
   139F 21 06 04      [10] 3105 	ld	hl, #0x0406
   13A2 E5            [11] 3106 	push	hl
   13A3 DD 6E 04      [19] 3107 	ld	l,4 (ix)
   13A6 DD 66 05      [19] 3108 	ld	h,5 (ix)
   13A9 E5            [11] 3109 	push	hl
   13AA CDrBFr01      [17] 3110 	call	_createPlayer
   13AD 21 06 00      [10] 3111 	ld	hl, #6
   13B0 39            [11] 3112 	add	hl, sp
   13B1 F9            [ 6] 3113 	ld	sp, hl
                           3114 ;src/niveles/niveles.c:374: createMarco(no);
   13B2 3E 01         [ 7] 3115 	ld	a, #0x01
   13B4 F5            [11] 3116 	push	af
   13B5 33            [ 6] 3117 	inc	sp
   13B6 CDrB0r01      [17] 3118 	call	_createMarco
   13B9 33            [ 6] 3119 	inc	sp
                           3120 ;src/niveles/niveles.c:375: createPortal(portales,rocas,rocasEspejo,no);
   13BA 3E 01         [ 7] 3121 	ld	a, #0x01
   13BC F5            [11] 3122 	push	af
   13BD 33            [ 6] 3123 	inc	sp
   13BE DD 6E 08      [19] 3124 	ld	l,8 (ix)
   13C1 DD 66 09      [19] 3125 	ld	h,9 (ix)
   13C4 E5            [11] 3126 	push	hl
   13C5 DD 6E 06      [19] 3127 	ld	l,6 (ix)
   13C8 DD 66 07      [19] 3128 	ld	h,7 (ix)
   13CB E5            [11] 3129 	push	hl
   13CC DD 6E 0C      [19] 3130 	ld	l,12 (ix)
   13CF DD 66 0D      [19] 3131 	ld	h,13 (ix)
   13D2 E5            [11] 3132 	push	hl
   13D3 CDrA3r03      [17] 3133 	call	_createPortal
   13D6 21 07 00      [10] 3134 	ld	hl, #7
   13D9 39            [11] 3135 	add	hl, sp
   13DA F9            [ 6] 3136 	ld	sp, hl
                           3137 ;src/niveles/niveles.c:376: createPuerta(puertas,7,4,sprite_Puerta_B,nivel_04);
   13DB 21 1F 06      [10] 3138 	ld	hl, #0x061f
   13DE E5            [11] 3139 	push	hl
   13DF 21 07 04      [10] 3140 	ld	hl, #0x0407
   13E2 E5            [11] 3141 	push	hl
   13E3 DD 6E 0A      [19] 3142 	ld	l,10 (ix)
   13E6 DD 66 0B      [19] 3143 	ld	h,11 (ix)
   13E9 E5            [11] 3144 	push	hl
   13EA CDr2Ar03      [17] 3145 	call	_createPuerta
   13ED 21 06 00      [10] 3146 	ld	hl, #6
   13F0 39            [11] 3147 	add	hl, sp
   13F1 F9            [ 6] 3148 	ld	sp, hl
                           3149 ;src/niveles/niveles.c:377: createPuerta(puertas,1,4,sprite_Puerta_B,nivel_TRAP_01);
   13F2 21 1F 03      [10] 3150 	ld	hl, #0x031f
   13F5 E5            [11] 3151 	push	hl
   13F6 21 01 04      [10] 3152 	ld	hl, #0x0401
   13F9 E5            [11] 3153 	push	hl
   13FA DD 6E 0A      [19] 3154 	ld	l,10 (ix)
   13FD DD 66 0B      [19] 3155 	ld	h,11 (ix)
   1400 E5            [11] 3156 	push	hl
   1401 CDr2Ar03      [17] 3157 	call	_createPuerta
   1404 21 06 00      [10] 3158 	ld	hl, #6
   1407 39            [11] 3159 	add	hl, sp
   1408 F9            [ 6] 3160 	ld	sp, hl
                           3161 ;src/niveles/niveles.c:380: createRoca(rocas,5,4,mover_1,sprite_Rock_B,1);
   1409 21 03 01      [10] 3162 	ld	hl, #0x0103
   140C E5            [11] 3163 	push	hl
   140D 2E 04         [ 7] 3164 	ld	l, #0x04
   140F E5            [11] 3165 	push	hl
   1410 3E 05         [ 7] 3166 	ld	a, #0x05
   1412 F5            [11] 3167 	push	af
   1413 33            [ 6] 3168 	inc	sp
   1414 DD 6E 06      [19] 3169 	ld	l,6 (ix)
   1417 DD 66 07      [19] 3170 	ld	h,7 (ix)
   141A E5            [11] 3171 	push	hl
   141B CDrFEr01      [17] 3172 	call	_createRoca
   141E 21 07 00      [10] 3173 	ld	hl, #7
   1421 39            [11] 3174 	add	hl, sp
   1422 F9            [ 6] 3175 	ld	sp, hl
                           3176 ;src/niveles/niveles.c:384: createColeccionabeAmstr(col,3,4,4);
   1423 21 04 04      [10] 3177 	ld	hl, #0x0404
   1426 E5            [11] 3178 	push	hl
   1427 3E 03         [ 7] 3179 	ld	a, #0x03
   1429 F5            [11] 3180 	push	af
   142A 33            [ 6] 3181 	inc	sp
   142B DD 6E 0E      [19] 3182 	ld	l,14 (ix)
   142E DD 66 0F      [19] 3183 	ld	h,15 (ix)
   1431 E5            [11] 3184 	push	hl
   1432 CDr09r06      [17] 3185 	call	_createColeccionabeAmstr
   1435 F1            [10] 3186 	pop	af
                           3187 ;src/niveles/niveles.c:388: createRoca(rocas,1,1,sin_Movimiento, sprite_Muro_Polvo1,1);
   1436 33            [ 6] 3188 	inc	sp
   1437 21 1C 01      [10] 3189 	ld	hl,#0x011c
   143A E3            [19] 3190 	ex	(sp),hl
   143B 21 01 00      [10] 3191 	ld	hl, #0x0001
   143E E5            [11] 3192 	push	hl
   143F 3E 01         [ 7] 3193 	ld	a, #0x01
   1441 F5            [11] 3194 	push	af
   1442 33            [ 6] 3195 	inc	sp
   1443 DD 6E 06      [19] 3196 	ld	l,6 (ix)
   1446 DD 66 07      [19] 3197 	ld	h,7 (ix)
   1449 E5            [11] 3198 	push	hl
   144A CDrFEr01      [17] 3199 	call	_createRoca
   144D 21 07 00      [10] 3200 	ld	hl, #7
   1450 39            [11] 3201 	add	hl, sp
   1451 F9            [ 6] 3202 	ld	sp, hl
                           3203 ;src/niveles/niveles.c:389: createRoca(rocas,2,1,sin_Movimiento, sprite_Muro_Polvo1,1);
   1452 21 1C 01      [10] 3204 	ld	hl, #0x011c
   1455 E5            [11] 3205 	push	hl
   1456 21 01 00      [10] 3206 	ld	hl, #0x0001
   1459 E5            [11] 3207 	push	hl
   145A 3E 02         [ 7] 3208 	ld	a, #0x02
   145C F5            [11] 3209 	push	af
   145D 33            [ 6] 3210 	inc	sp
   145E DD 6E 06      [19] 3211 	ld	l,6 (ix)
   1461 DD 66 07      [19] 3212 	ld	h,7 (ix)
   1464 E5            [11] 3213 	push	hl
   1465 CDrFEr01      [17] 3214 	call	_createRoca
   1468 21 07 00      [10] 3215 	ld	hl, #7
   146B 39            [11] 3216 	add	hl, sp
   146C F9            [ 6] 3217 	ld	sp, hl
                           3218 ;src/niveles/niveles.c:390: createRoca(rocas,3,1,sin_Movimiento, sprite_Muro_Polvo1,1);
   146D 21 1C 01      [10] 3219 	ld	hl, #0x011c
   1470 E5            [11] 3220 	push	hl
   1471 21 01 00      [10] 3221 	ld	hl, #0x0001
   1474 E5            [11] 3222 	push	hl
   1475 3E 03         [ 7] 3223 	ld	a, #0x03
   1477 F5            [11] 3224 	push	af
   1478 33            [ 6] 3225 	inc	sp
   1479 DD 6E 06      [19] 3226 	ld	l,6 (ix)
   147C DD 66 07      [19] 3227 	ld	h,7 (ix)
   147F E5            [11] 3228 	push	hl
   1480 CDrFEr01      [17] 3229 	call	_createRoca
   1483 21 07 00      [10] 3230 	ld	hl, #7
   1486 39            [11] 3231 	add	hl, sp
   1487 F9            [ 6] 3232 	ld	sp, hl
                           3233 ;src/niveles/niveles.c:391: createRoca(rocas,4,1,sin_Movimiento, sprite_Muro_Polvo1,1);
   1488 21 1C 01      [10] 3234 	ld	hl, #0x011c
   148B E5            [11] 3235 	push	hl
   148C 21 01 00      [10] 3236 	ld	hl, #0x0001
   148F E5            [11] 3237 	push	hl
   1490 3E 04         [ 7] 3238 	ld	a, #0x04
   1492 F5            [11] 3239 	push	af
   1493 33            [ 6] 3240 	inc	sp
   1494 DD 6E 06      [19] 3241 	ld	l,6 (ix)
   1497 DD 66 07      [19] 3242 	ld	h,7 (ix)
   149A E5            [11] 3243 	push	hl
   149B CDrFEr01      [17] 3244 	call	_createRoca
   149E 21 07 00      [10] 3245 	ld	hl, #7
   14A1 39            [11] 3246 	add	hl, sp
   14A2 F9            [ 6] 3247 	ld	sp, hl
                           3248 ;src/niveles/niveles.c:392: createRoca(rocas,5,1,sin_Movimiento, sprite_Muro_Polvo1,1);
   14A3 21 1C 01      [10] 3249 	ld	hl, #0x011c
   14A6 E5            [11] 3250 	push	hl
   14A7 21 01 00      [10] 3251 	ld	hl, #0x0001
   14AA E5            [11] 3252 	push	hl
   14AB 3E 05         [ 7] 3253 	ld	a, #0x05
   14AD F5            [11] 3254 	push	af
   14AE 33            [ 6] 3255 	inc	sp
   14AF DD 6E 06      [19] 3256 	ld	l,6 (ix)
   14B2 DD 66 07      [19] 3257 	ld	h,7 (ix)
   14B5 E5            [11] 3258 	push	hl
   14B6 CDrFEr01      [17] 3259 	call	_createRoca
   14B9 21 07 00      [10] 3260 	ld	hl, #7
   14BC 39            [11] 3261 	add	hl, sp
   14BD F9            [ 6] 3262 	ld	sp, hl
                           3263 ;src/niveles/niveles.c:393: createRoca(rocas,6,1,sin_Movimiento, sprite_Muro_Polvo1,1);
   14BE 21 1C 01      [10] 3264 	ld	hl, #0x011c
   14C1 E5            [11] 3265 	push	hl
   14C2 21 01 00      [10] 3266 	ld	hl, #0x0001
   14C5 E5            [11] 3267 	push	hl
   14C6 3E 06         [ 7] 3268 	ld	a, #0x06
   14C8 F5            [11] 3269 	push	af
   14C9 33            [ 6] 3270 	inc	sp
   14CA DD 6E 06      [19] 3271 	ld	l,6 (ix)
   14CD DD 66 07      [19] 3272 	ld	h,7 (ix)
   14D0 E5            [11] 3273 	push	hl
   14D1 CDrFEr01      [17] 3274 	call	_createRoca
   14D4 21 07 00      [10] 3275 	ld	hl, #7
   14D7 39            [11] 3276 	add	hl, sp
   14D8 F9            [ 6] 3277 	ld	sp, hl
                           3278 ;src/niveles/niveles.c:394: createRoca(rocas,7,1,sin_Movimiento, sprite_Muro_Polvo1,1);
   14D9 21 1C 01      [10] 3279 	ld	hl, #0x011c
   14DC E5            [11] 3280 	push	hl
   14DD 21 01 00      [10] 3281 	ld	hl, #0x0001
   14E0 E5            [11] 3282 	push	hl
   14E1 3E 07         [ 7] 3283 	ld	a, #0x07
   14E3 F5            [11] 3284 	push	af
   14E4 33            [ 6] 3285 	inc	sp
   14E5 DD 6E 06      [19] 3286 	ld	l,6 (ix)
   14E8 DD 66 07      [19] 3287 	ld	h,7 (ix)
   14EB E5            [11] 3288 	push	hl
   14EC CDrFEr01      [17] 3289 	call	_createRoca
   14EF 21 07 00      [10] 3290 	ld	hl, #7
   14F2 39            [11] 3291 	add	hl, sp
   14F3 F9            [ 6] 3292 	ld	sp, hl
                           3293 ;src/niveles/niveles.c:395: createRoca(rocas,8,1,sin_Movimiento, sprite_Muro_Polvo1,1);
   14F4 21 1C 01      [10] 3294 	ld	hl, #0x011c
   14F7 E5            [11] 3295 	push	hl
   14F8 21 01 00      [10] 3296 	ld	hl, #0x0001
   14FB E5            [11] 3297 	push	hl
   14FC 3E 08         [ 7] 3298 	ld	a, #0x08
   14FE F5            [11] 3299 	push	af
   14FF 33            [ 6] 3300 	inc	sp
   1500 DD 6E 06      [19] 3301 	ld	l,6 (ix)
   1503 DD 66 07      [19] 3302 	ld	h,7 (ix)
   1506 E5            [11] 3303 	push	hl
   1507 CDrFEr01      [17] 3304 	call	_createRoca
   150A 21 07 00      [10] 3305 	ld	hl, #7
   150D 39            [11] 3306 	add	hl, sp
   150E F9            [ 6] 3307 	ld	sp, hl
                           3308 ;src/niveles/niveles.c:396: createRoca(rocas,1,7,sin_Movimiento, sprite_Muro_Polvo1,1);
   150F 21 1C 01      [10] 3309 	ld	hl, #0x011c
   1512 E5            [11] 3310 	push	hl
   1513 21 07 00      [10] 3311 	ld	hl, #0x0007
   1516 E5            [11] 3312 	push	hl
   1517 3E 01         [ 7] 3313 	ld	a, #0x01
   1519 F5            [11] 3314 	push	af
   151A 33            [ 6] 3315 	inc	sp
   151B DD 6E 06      [19] 3316 	ld	l,6 (ix)
   151E DD 66 07      [19] 3317 	ld	h,7 (ix)
   1521 E5            [11] 3318 	push	hl
   1522 CDrFEr01      [17] 3319 	call	_createRoca
   1525 21 07 00      [10] 3320 	ld	hl, #7
   1528 39            [11] 3321 	add	hl, sp
   1529 F9            [ 6] 3322 	ld	sp, hl
                           3323 ;src/niveles/niveles.c:397: createRoca(rocas,2,7,sin_Movimiento, sprite_Muro_Polvo1,1);
   152A 21 1C 01      [10] 3324 	ld	hl, #0x011c
   152D E5            [11] 3325 	push	hl
   152E 21 07 00      [10] 3326 	ld	hl, #0x0007
   1531 E5            [11] 3327 	push	hl
   1532 3E 02         [ 7] 3328 	ld	a, #0x02
   1534 F5            [11] 3329 	push	af
   1535 33            [ 6] 3330 	inc	sp
   1536 DD 6E 06      [19] 3331 	ld	l,6 (ix)
   1539 DD 66 07      [19] 3332 	ld	h,7 (ix)
   153C E5            [11] 3333 	push	hl
   153D CDrFEr01      [17] 3334 	call	_createRoca
   1540 21 07 00      [10] 3335 	ld	hl, #7
   1543 39            [11] 3336 	add	hl, sp
   1544 F9            [ 6] 3337 	ld	sp, hl
                           3338 ;src/niveles/niveles.c:398: createRoca(rocas,3,7,sin_Movimiento, sprite_Muro_Polvo1,1);
   1545 21 1C 01      [10] 3339 	ld	hl, #0x011c
   1548 E5            [11] 3340 	push	hl
   1549 21 07 00      [10] 3341 	ld	hl, #0x0007
   154C E5            [11] 3342 	push	hl
   154D 3E 03         [ 7] 3343 	ld	a, #0x03
   154F F5            [11] 3344 	push	af
   1550 33            [ 6] 3345 	inc	sp
   1551 DD 6E 06      [19] 3346 	ld	l,6 (ix)
   1554 DD 66 07      [19] 3347 	ld	h,7 (ix)
   1557 E5            [11] 3348 	push	hl
   1558 CDrFEr01      [17] 3349 	call	_createRoca
   155B 21 07 00      [10] 3350 	ld	hl, #7
   155E 39            [11] 3351 	add	hl, sp
   155F F9            [ 6] 3352 	ld	sp, hl
                           3353 ;src/niveles/niveles.c:399: createRoca(rocas,4,7,sin_Movimiento, sprite_Muro_Polvo1,1);
   1560 21 1C 01      [10] 3354 	ld	hl, #0x011c
   1563 E5            [11] 3355 	push	hl
   1564 21 07 00      [10] 3356 	ld	hl, #0x0007
   1567 E5            [11] 3357 	push	hl
   1568 3E 04         [ 7] 3358 	ld	a, #0x04
   156A F5            [11] 3359 	push	af
   156B 33            [ 6] 3360 	inc	sp
   156C DD 6E 06      [19] 3361 	ld	l,6 (ix)
   156F DD 66 07      [19] 3362 	ld	h,7 (ix)
   1572 E5            [11] 3363 	push	hl
   1573 CDrFEr01      [17] 3364 	call	_createRoca
   1576 21 07 00      [10] 3365 	ld	hl, #7
   1579 39            [11] 3366 	add	hl, sp
   157A F9            [ 6] 3367 	ld	sp, hl
                           3368 ;src/niveles/niveles.c:400: createRoca(rocas,5,7,sin_Movimiento, sprite_Muro_Polvo1,1);
   157B 21 1C 01      [10] 3369 	ld	hl, #0x011c
   157E E5            [11] 3370 	push	hl
   157F 21 07 00      [10] 3371 	ld	hl, #0x0007
   1582 E5            [11] 3372 	push	hl
   1583 3E 05         [ 7] 3373 	ld	a, #0x05
   1585 F5            [11] 3374 	push	af
   1586 33            [ 6] 3375 	inc	sp
   1587 DD 6E 06      [19] 3376 	ld	l,6 (ix)
   158A DD 66 07      [19] 3377 	ld	h,7 (ix)
   158D E5            [11] 3378 	push	hl
   158E CDrFEr01      [17] 3379 	call	_createRoca
   1591 21 07 00      [10] 3380 	ld	hl, #7
   1594 39            [11] 3381 	add	hl, sp
   1595 F9            [ 6] 3382 	ld	sp, hl
                           3383 ;src/niveles/niveles.c:401: createRoca(rocas,6,7,sin_Movimiento, sprite_Muro_Polvo1,1);
   1596 21 1C 01      [10] 3384 	ld	hl, #0x011c
   1599 E5            [11] 3385 	push	hl
   159A 21 07 00      [10] 3386 	ld	hl, #0x0007
   159D E5            [11] 3387 	push	hl
   159E 3E 06         [ 7] 3388 	ld	a, #0x06
   15A0 F5            [11] 3389 	push	af
   15A1 33            [ 6] 3390 	inc	sp
   15A2 DD 6E 06      [19] 3391 	ld	l,6 (ix)
   15A5 DD 66 07      [19] 3392 	ld	h,7 (ix)
   15A8 E5            [11] 3393 	push	hl
   15A9 CDrFEr01      [17] 3394 	call	_createRoca
   15AC 21 07 00      [10] 3395 	ld	hl, #7
   15AF 39            [11] 3396 	add	hl, sp
   15B0 F9            [ 6] 3397 	ld	sp, hl
                           3398 ;src/niveles/niveles.c:402: createRoca(rocas,7,7,sin_Movimiento, sprite_Muro_Polvo1,1);
   15B1 21 1C 01      [10] 3399 	ld	hl, #0x011c
   15B4 E5            [11] 3400 	push	hl
   15B5 21 07 00      [10] 3401 	ld	hl, #0x0007
   15B8 E5            [11] 3402 	push	hl
   15B9 3E 07         [ 7] 3403 	ld	a, #0x07
   15BB F5            [11] 3404 	push	af
   15BC 33            [ 6] 3405 	inc	sp
   15BD DD 6E 06      [19] 3406 	ld	l,6 (ix)
   15C0 DD 66 07      [19] 3407 	ld	h,7 (ix)
   15C3 E5            [11] 3408 	push	hl
   15C4 CDrFEr01      [17] 3409 	call	_createRoca
   15C7 21 07 00      [10] 3410 	ld	hl, #7
   15CA 39            [11] 3411 	add	hl, sp
   15CB F9            [ 6] 3412 	ld	sp, hl
                           3413 ;src/niveles/niveles.c:403: createRoca(rocas,8,7,sin_Movimiento, sprite_Muro_Polvo1,1);
   15CC 21 1C 01      [10] 3414 	ld	hl, #0x011c
   15CF E5            [11] 3415 	push	hl
   15D0 21 07 00      [10] 3416 	ld	hl, #0x0007
   15D3 E5            [11] 3417 	push	hl
   15D4 3E 08         [ 7] 3418 	ld	a, #0x08
   15D6 F5            [11] 3419 	push	af
   15D7 33            [ 6] 3420 	inc	sp
   15D8 DD 6E 06      [19] 3421 	ld	l,6 (ix)
   15DB DD 66 07      [19] 3422 	ld	h,7 (ix)
   15DE E5            [11] 3423 	push	hl
   15DF CDrFEr01      [17] 3424 	call	_createRoca
   15E2 21 07 00      [10] 3425 	ld	hl, #7
   15E5 39            [11] 3426 	add	hl, sp
   15E6 F9            [ 6] 3427 	ld	sp, hl
                           3428 ;src/niveles/niveles.c:404: createRoca(rocas,1,2,sin_Movimiento, sprite_Muro_Polvo1,1);
   15E7 21 1C 01      [10] 3429 	ld	hl, #0x011c
   15EA E5            [11] 3430 	push	hl
   15EB 21 02 00      [10] 3431 	ld	hl, #0x0002
   15EE E5            [11] 3432 	push	hl
   15EF 3E 01         [ 7] 3433 	ld	a, #0x01
   15F1 F5            [11] 3434 	push	af
   15F2 33            [ 6] 3435 	inc	sp
   15F3 DD 6E 06      [19] 3436 	ld	l,6 (ix)
   15F6 DD 66 07      [19] 3437 	ld	h,7 (ix)
   15F9 E5            [11] 3438 	push	hl
   15FA CDrFEr01      [17] 3439 	call	_createRoca
   15FD 21 07 00      [10] 3440 	ld	hl, #7
   1600 39            [11] 3441 	add	hl, sp
   1601 F9            [ 6] 3442 	ld	sp, hl
                           3443 ;src/niveles/niveles.c:405: createRoca(rocas,1,3,sin_Movimiento, sprite_Muro_Polvo1,1);
   1602 21 1C 01      [10] 3444 	ld	hl, #0x011c
   1605 E5            [11] 3445 	push	hl
   1606 21 03 00      [10] 3446 	ld	hl, #0x0003
   1609 E5            [11] 3447 	push	hl
   160A 3E 01         [ 7] 3448 	ld	a, #0x01
   160C F5            [11] 3449 	push	af
   160D 33            [ 6] 3450 	inc	sp
   160E DD 6E 06      [19] 3451 	ld	l,6 (ix)
   1611 DD 66 07      [19] 3452 	ld	h,7 (ix)
   1614 E5            [11] 3453 	push	hl
   1615 CDrFEr01      [17] 3454 	call	_createRoca
   1618 21 07 00      [10] 3455 	ld	hl, #7
   161B 39            [11] 3456 	add	hl, sp
   161C F9            [ 6] 3457 	ld	sp, hl
                           3458 ;src/niveles/niveles.c:406: createRoca(rocas,1,4,sin_Movimiento, sprite_Muro_Polvo1,1);
   161D 21 1C 01      [10] 3459 	ld	hl, #0x011c
   1620 E5            [11] 3460 	push	hl
   1621 21 04 00      [10] 3461 	ld	hl, #0x0004
   1624 E5            [11] 3462 	push	hl
   1625 3E 01         [ 7] 3463 	ld	a, #0x01
   1627 F5            [11] 3464 	push	af
   1628 33            [ 6] 3465 	inc	sp
   1629 DD 6E 06      [19] 3466 	ld	l,6 (ix)
   162C DD 66 07      [19] 3467 	ld	h,7 (ix)
   162F E5            [11] 3468 	push	hl
   1630 CDrFEr01      [17] 3469 	call	_createRoca
   1633 21 07 00      [10] 3470 	ld	hl, #7
   1636 39            [11] 3471 	add	hl, sp
   1637 F9            [ 6] 3472 	ld	sp, hl
                           3473 ;src/niveles/niveles.c:407: createRoca(rocas,1,5,sin_Movimiento, sprite_Muro_Polvo1,1);
   1638 21 1C 01      [10] 3474 	ld	hl, #0x011c
   163B E5            [11] 3475 	push	hl
   163C 21 05 00      [10] 3476 	ld	hl, #0x0005
   163F E5            [11] 3477 	push	hl
   1640 3E 01         [ 7] 3478 	ld	a, #0x01
   1642 F5            [11] 3479 	push	af
   1643 33            [ 6] 3480 	inc	sp
   1644 DD 6E 06      [19] 3481 	ld	l,6 (ix)
   1647 DD 66 07      [19] 3482 	ld	h,7 (ix)
   164A E5            [11] 3483 	push	hl
   164B CDrFEr01      [17] 3484 	call	_createRoca
   164E 21 07 00      [10] 3485 	ld	hl, #7
   1651 39            [11] 3486 	add	hl, sp
   1652 F9            [ 6] 3487 	ld	sp, hl
                           3488 ;src/niveles/niveles.c:408: createRoca(rocas,1,6,sin_Movimiento, sprite_Muro_Polvo1,1);
   1653 21 1C 01      [10] 3489 	ld	hl, #0x011c
   1656 E5            [11] 3490 	push	hl
   1657 21 06 00      [10] 3491 	ld	hl, #0x0006
   165A E5            [11] 3492 	push	hl
   165B 3E 01         [ 7] 3493 	ld	a, #0x01
   165D F5            [11] 3494 	push	af
   165E 33            [ 6] 3495 	inc	sp
   165F DD 6E 06      [19] 3496 	ld	l,6 (ix)
   1662 DD 66 07      [19] 3497 	ld	h,7 (ix)
   1665 E5            [11] 3498 	push	hl
   1666 CDrFEr01      [17] 3499 	call	_createRoca
   1669 21 07 00      [10] 3500 	ld	hl, #7
   166C 39            [11] 3501 	add	hl, sp
   166D F9            [ 6] 3502 	ld	sp, hl
                           3503 ;src/niveles/niveles.c:409: createRoca(rocas,8,2,sin_Movimiento, sprite_Muro_Polvo1,1);
   166E 21 1C 01      [10] 3504 	ld	hl, #0x011c
   1671 E5            [11] 3505 	push	hl
   1672 21 02 00      [10] 3506 	ld	hl, #0x0002
   1675 E5            [11] 3507 	push	hl
   1676 3E 08         [ 7] 3508 	ld	a, #0x08
   1678 F5            [11] 3509 	push	af
   1679 33            [ 6] 3510 	inc	sp
   167A DD 6E 06      [19] 3511 	ld	l,6 (ix)
   167D DD 66 07      [19] 3512 	ld	h,7 (ix)
   1680 E5            [11] 3513 	push	hl
   1681 CDrFEr01      [17] 3514 	call	_createRoca
   1684 21 07 00      [10] 3515 	ld	hl, #7
   1687 39            [11] 3516 	add	hl, sp
   1688 F9            [ 6] 3517 	ld	sp, hl
                           3518 ;src/niveles/niveles.c:410: createRoca(rocas,8,3,sin_Movimiento, sprite_Muro_Polvo1,1);
   1689 21 1C 01      [10] 3519 	ld	hl, #0x011c
   168C E5            [11] 3520 	push	hl
   168D 21 03 00      [10] 3521 	ld	hl, #0x0003
   1690 E5            [11] 3522 	push	hl
   1691 3E 08         [ 7] 3523 	ld	a, #0x08
   1693 F5            [11] 3524 	push	af
   1694 33            [ 6] 3525 	inc	sp
   1695 DD 6E 06      [19] 3526 	ld	l,6 (ix)
   1698 DD 66 07      [19] 3527 	ld	h,7 (ix)
   169B E5            [11] 3528 	push	hl
   169C CDrFEr01      [17] 3529 	call	_createRoca
   169F 21 07 00      [10] 3530 	ld	hl, #7
   16A2 39            [11] 3531 	add	hl, sp
   16A3 F9            [ 6] 3532 	ld	sp, hl
                           3533 ;src/niveles/niveles.c:411: createRoca(rocas,8,4,sin_Movimiento, sprite_Muro_Polvo1,1);
   16A4 21 1C 01      [10] 3534 	ld	hl, #0x011c
   16A7 E5            [11] 3535 	push	hl
   16A8 21 04 00      [10] 3536 	ld	hl, #0x0004
   16AB E5            [11] 3537 	push	hl
   16AC 3E 08         [ 7] 3538 	ld	a, #0x08
   16AE F5            [11] 3539 	push	af
   16AF 33            [ 6] 3540 	inc	sp
   16B0 DD 6E 06      [19] 3541 	ld	l,6 (ix)
   16B3 DD 66 07      [19] 3542 	ld	h,7 (ix)
   16B6 E5            [11] 3543 	push	hl
   16B7 CDrFEr01      [17] 3544 	call	_createRoca
   16BA 21 07 00      [10] 3545 	ld	hl, #7
   16BD 39            [11] 3546 	add	hl, sp
   16BE F9            [ 6] 3547 	ld	sp, hl
                           3548 ;src/niveles/niveles.c:412: createRoca(rocas,8,5,sin_Movimiento, sprite_Muro_Polvo1,1);
   16BF 21 1C 01      [10] 3549 	ld	hl, #0x011c
   16C2 E5            [11] 3550 	push	hl
   16C3 21 05 00      [10] 3551 	ld	hl, #0x0005
   16C6 E5            [11] 3552 	push	hl
   16C7 3E 08         [ 7] 3553 	ld	a, #0x08
   16C9 F5            [11] 3554 	push	af
   16CA 33            [ 6] 3555 	inc	sp
   16CB DD 6E 06      [19] 3556 	ld	l,6 (ix)
   16CE DD 66 07      [19] 3557 	ld	h,7 (ix)
   16D1 E5            [11] 3558 	push	hl
   16D2 CDrFEr01      [17] 3559 	call	_createRoca
   16D5 21 07 00      [10] 3560 	ld	hl, #7
   16D8 39            [11] 3561 	add	hl, sp
   16D9 F9            [ 6] 3562 	ld	sp, hl
                           3563 ;src/niveles/niveles.c:413: createRoca(rocas,8,6,sin_Movimiento, sprite_Muro_Polvo1,1);
   16DA 21 1C 01      [10] 3564 	ld	hl, #0x011c
   16DD E5            [11] 3565 	push	hl
   16DE 21 06 00      [10] 3566 	ld	hl, #0x0006
   16E1 E5            [11] 3567 	push	hl
   16E2 3E 08         [ 7] 3568 	ld	a, #0x08
   16E4 F5            [11] 3569 	push	af
   16E5 33            [ 6] 3570 	inc	sp
   16E6 DD 6E 06      [19] 3571 	ld	l,6 (ix)
   16E9 DD 66 07      [19] 3572 	ld	h,7 (ix)
   16EC E5            [11] 3573 	push	hl
   16ED CDrFEr01      [17] 3574 	call	_createRoca
   16F0 21 07 00      [10] 3575 	ld	hl, #7
   16F3 39            [11] 3576 	add	hl, sp
   16F4 F9            [ 6] 3577 	ld	sp, hl
                           3578 ;src/niveles/niveles.c:414: createRoca(rocas,2,3,sin_Movimiento,sprite_RockInmovil1_B,1);
   16F5 21 08 01      [10] 3579 	ld	hl, #0x0108
   16F8 E5            [11] 3580 	push	hl
   16F9 21 03 00      [10] 3581 	ld	hl, #0x0003
   16FC E5            [11] 3582 	push	hl
   16FD 3E 02         [ 7] 3583 	ld	a, #0x02
   16FF F5            [11] 3584 	push	af
   1700 33            [ 6] 3585 	inc	sp
   1701 DD 6E 06      [19] 3586 	ld	l,6 (ix)
   1704 DD 66 07      [19] 3587 	ld	h,7 (ix)
   1707 E5            [11] 3588 	push	hl
   1708 CDrFEr01      [17] 3589 	call	_createRoca
   170B 21 07 00      [10] 3590 	ld	hl, #7
   170E 39            [11] 3591 	add	hl, sp
   170F F9            [ 6] 3592 	ld	sp, hl
                           3593 ;src/niveles/niveles.c:415: createRoca(rocas,2,5,sin_Movimiento,sprite_RockInmovil1_B,1);
   1710 21 08 01      [10] 3594 	ld	hl, #0x0108
   1713 E5            [11] 3595 	push	hl
   1714 21 05 00      [10] 3596 	ld	hl, #0x0005
   1717 E5            [11] 3597 	push	hl
   1718 3E 02         [ 7] 3598 	ld	a, #0x02
   171A F5            [11] 3599 	push	af
   171B 33            [ 6] 3600 	inc	sp
   171C DD 6E 06      [19] 3601 	ld	l,6 (ix)
   171F DD 66 07      [19] 3602 	ld	h,7 (ix)
   1722 E5            [11] 3603 	push	hl
   1723 CDrFEr01      [17] 3604 	call	_createRoca
   1726 21 07 00      [10] 3605 	ld	hl, #7
   1729 39            [11] 3606 	add	hl, sp
   172A F9            [ 6] 3607 	ld	sp, hl
                           3608 ;src/niveles/niveles.c:416: createRoca(rocas,7,3,sin_Movimiento,sprite_RockInmovil1_B,1);
   172B 21 08 01      [10] 3609 	ld	hl, #0x0108
   172E E5            [11] 3610 	push	hl
   172F 21 03 00      [10] 3611 	ld	hl, #0x0003
   1732 E5            [11] 3612 	push	hl
   1733 3E 07         [ 7] 3613 	ld	a, #0x07
   1735 F5            [11] 3614 	push	af
   1736 33            [ 6] 3615 	inc	sp
   1737 DD 6E 06      [19] 3616 	ld	l,6 (ix)
   173A DD 66 07      [19] 3617 	ld	h,7 (ix)
   173D E5            [11] 3618 	push	hl
   173E CDrFEr01      [17] 3619 	call	_createRoca
   1741 21 07 00      [10] 3620 	ld	hl, #7
   1744 39            [11] 3621 	add	hl, sp
   1745 F9            [ 6] 3622 	ld	sp, hl
                           3623 ;src/niveles/niveles.c:417: createRoca(rocas,7,5,sin_Movimiento,sprite_RockInmovil1_B,1);
   1746 21 08 01      [10] 3624 	ld	hl, #0x0108
   1749 E5            [11] 3625 	push	hl
   174A 21 05 00      [10] 3626 	ld	hl, #0x0005
   174D E5            [11] 3627 	push	hl
   174E 3E 07         [ 7] 3628 	ld	a, #0x07
   1750 F5            [11] 3629 	push	af
   1751 33            [ 6] 3630 	inc	sp
   1752 DD 6E 06      [19] 3631 	ld	l,6 (ix)
   1755 DD 66 07      [19] 3632 	ld	h,7 (ix)
   1758 E5            [11] 3633 	push	hl
   1759 CDrFEr01      [17] 3634 	call	_createRoca
   175C 21 07 00      [10] 3635 	ld	hl, #7
   175F 39            [11] 3636 	add	hl, sp
   1760 F9            [ 6] 3637 	ld	sp, hl
                           3638 ;src/niveles/niveles.c:418: createRoca(rocas,2,2,sin_Movimiento,sprite_RockInmovil2_B,1);
   1761 21 0A 01      [10] 3639 	ld	hl, #0x010a
   1764 E5            [11] 3640 	push	hl
   1765 21 02 00      [10] 3641 	ld	hl, #0x0002
   1768 E5            [11] 3642 	push	hl
   1769 3E 02         [ 7] 3643 	ld	a, #0x02
   176B F5            [11] 3644 	push	af
   176C 33            [ 6] 3645 	inc	sp
   176D DD 6E 06      [19] 3646 	ld	l,6 (ix)
   1770 DD 66 07      [19] 3647 	ld	h,7 (ix)
   1773 E5            [11] 3648 	push	hl
   1774 CDrFEr01      [17] 3649 	call	_createRoca
   1777 21 07 00      [10] 3650 	ld	hl, #7
   177A 39            [11] 3651 	add	hl, sp
   177B F9            [ 6] 3652 	ld	sp, hl
                           3653 ;src/niveles/niveles.c:419: createRoca(rocas,2,6,sin_Movimiento,sprite_RockInmovil2_B,1);
   177C 21 0A 01      [10] 3654 	ld	hl, #0x010a
   177F E5            [11] 3655 	push	hl
   1780 21 06 00      [10] 3656 	ld	hl, #0x0006
   1783 E5            [11] 3657 	push	hl
   1784 3E 02         [ 7] 3658 	ld	a, #0x02
   1786 F5            [11] 3659 	push	af
   1787 33            [ 6] 3660 	inc	sp
   1788 DD 6E 06      [19] 3661 	ld	l,6 (ix)
   178B DD 66 07      [19] 3662 	ld	h,7 (ix)
   178E E5            [11] 3663 	push	hl
   178F CDrFEr01      [17] 3664 	call	_createRoca
   1792 21 07 00      [10] 3665 	ld	hl, #7
   1795 39            [11] 3666 	add	hl, sp
   1796 F9            [ 6] 3667 	ld	sp, hl
                           3668 ;src/niveles/niveles.c:420: createHoleIzquierda(rocas,2,4,sprite_hole,4);
   1797 21 24 04      [10] 3669 	ld	hl, #0x0424
   179A E5            [11] 3670 	push	hl
   179B 2E 02         [ 7] 3671 	ld	l, #0x02
   179D E5            [11] 3672 	push	hl
   179E DD 6E 06      [19] 3673 	ld	l,6 (ix)
   17A1 DD 66 07      [19] 3674 	ld	h,7 (ix)
   17A4 E5            [11] 3675 	push	hl
   17A5 CDrEFr03      [17] 3676 	call	_createHoleIzquierda
   17A8 21 06 00      [10] 3677 	ld	hl, #6
   17AB 39            [11] 3678 	add	hl, sp
   17AC F9            [ 6] 3679 	ld	sp, hl
   17AD DD E1         [14] 3680 	pop	ix
   17AF C9            [10] 3681 	ret
                           3682 ;src/niveles/niveles.c:423: void crearNievel5(TGameObject* player,TGameObject* rocas,TGameObject* rocasEspejo,TGameObject* puertas,TGameObject* portales,TGameObjectCol* col,u8* posicion){
                           3683 ;	---------------------------------
                           3684 ; Function crearNievel5
                           3685 ; ---------------------------------
   17B0                    3686 _crearNievel5::
   17B0 DD E5         [15] 3687 	push	ix
   17B2 DD 21 00 00   [14] 3688 	ld	ix,#0
   17B6 DD 39         [15] 3689 	add	ix,sp
                           3690 ;src/niveles/niveles.c:425: createPlayer(player,3,5,posicion);
   17B8 DD 6E 10      [19] 3691 	ld	l,16 (ix)
   17BB DD 66 11      [19] 3692 	ld	h,17 (ix)
   17BE E5            [11] 3693 	push	hl
   17BF 21 03 05      [10] 3694 	ld	hl, #0x0503
   17C2 E5            [11] 3695 	push	hl
   17C3 DD 6E 04      [19] 3696 	ld	l,4 (ix)
   17C6 DD 66 05      [19] 3697 	ld	h,5 (ix)
   17C9 E5            [11] 3698 	push	hl
   17CA CDrBFr01      [17] 3699 	call	_createPlayer
   17CD 21 06 00      [10] 3700 	ld	hl, #6
   17D0 39            [11] 3701 	add	hl, sp
   17D1 F9            [ 6] 3702 	ld	sp, hl
                           3703 ;src/niveles/niveles.c:426: createMarco(no);
   17D2 3E 01         [ 7] 3704 	ld	a, #0x01
   17D4 F5            [11] 3705 	push	af
   17D5 33            [ 6] 3706 	inc	sp
   17D6 CDrB0r01      [17] 3707 	call	_createMarco
   17D9 33            [ 6] 3708 	inc	sp
                           3709 ;src/niveles/niveles.c:427: createPortal(portales,rocas,rocasEspejo,si);
   17DA AF            [ 4] 3710 	xor	a, a
   17DB F5            [11] 3711 	push	af
   17DC 33            [ 6] 3712 	inc	sp
   17DD DD 6E 08      [19] 3713 	ld	l,8 (ix)
   17E0 DD 66 09      [19] 3714 	ld	h,9 (ix)
   17E3 E5            [11] 3715 	push	hl
   17E4 DD 6E 06      [19] 3716 	ld	l,6 (ix)
   17E7 DD 66 07      [19] 3717 	ld	h,7 (ix)
   17EA E5            [11] 3718 	push	hl
   17EB DD 6E 0C      [19] 3719 	ld	l,12 (ix)
   17EE DD 66 0D      [19] 3720 	ld	h,13 (ix)
   17F1 E5            [11] 3721 	push	hl
   17F2 CDrA3r03      [17] 3722 	call	_createPortal
   17F5 21 07 00      [10] 3723 	ld	hl, #7
   17F8 39            [11] 3724 	add	hl, sp
   17F9 F9            [ 6] 3725 	ld	sp, hl
                           3726 ;src/niveles/niveles.c:428: createPuerta(puertas,3,6,sprite_Puerta_G,nivel_04);
   17FA 21 1E 06      [10] 3727 	ld	hl, #0x061e
   17FD E5            [11] 3728 	push	hl
   17FE 2E 03         [ 7] 3729 	ld	l, #0x03
   1800 E5            [11] 3730 	push	hl
   1801 DD 6E 0A      [19] 3731 	ld	l,10 (ix)
   1804 DD 66 0B      [19] 3732 	ld	h,11 (ix)
   1807 E5            [11] 3733 	push	hl
   1808 CDr2Ar03      [17] 3734 	call	_createPuerta
   180B 21 06 00      [10] 3735 	ld	hl, #6
   180E 39            [11] 3736 	add	hl, sp
   180F F9            [ 6] 3737 	ld	sp, hl
                           3738 ;src/niveles/niveles.c:432: createRoca(rocas,5,5,mover_1,sprite_Rock_G,2);
   1810 21 02 02      [10] 3739 	ld	hl, #0x0202
   1813 E5            [11] 3740 	push	hl
   1814 21 05 01      [10] 3741 	ld	hl, #0x0105
   1817 E5            [11] 3742 	push	hl
   1818 3E 05         [ 7] 3743 	ld	a, #0x05
   181A F5            [11] 3744 	push	af
   181B 33            [ 6] 3745 	inc	sp
   181C DD 6E 06      [19] 3746 	ld	l,6 (ix)
   181F DD 66 07      [19] 3747 	ld	h,7 (ix)
   1822 E5            [11] 3748 	push	hl
   1823 CDrFEr01      [17] 3749 	call	_createRoca
   1826 21 07 00      [10] 3750 	ld	hl, #7
   1829 39            [11] 3751 	add	hl, sp
   182A F9            [ 6] 3752 	ld	sp, hl
                           3753 ;src/niveles/niveles.c:433: createRocaEspejo(rocasEspejo,11,5,mover_1, sprite_Rock_B,2);
   182B 21 03 02      [10] 3754 	ld	hl, #0x0203
   182E E5            [11] 3755 	push	hl
   182F 21 05 01      [10] 3756 	ld	hl, #0x0105
   1832 E5            [11] 3757 	push	hl
   1833 3E 0B         [ 7] 3758 	ld	a, #0x0b
   1835 F5            [11] 3759 	push	af
   1836 33            [ 6] 3760 	inc	sp
   1837 DD 6E 08      [19] 3761 	ld	l,8 (ix)
   183A DD 66 09      [19] 3762 	ld	h,9 (ix)
   183D E5            [11] 3763 	push	hl
   183E CDr94r02      [17] 3764 	call	_createRocaEspejo
   1841 21 07 00      [10] 3765 	ld	hl, #7
   1844 39            [11] 3766 	add	hl, sp
   1845 F9            [ 6] 3767 	ld	sp, hl
                           3768 ;src/niveles/niveles.c:434: createRoca(rocas,4,3,mover_Linea,sprite_RockLineal1_G,3);
   1846 21 05 03      [10] 3769 	ld	hl, #0x0305
   1849 E5            [11] 3770 	push	hl
   184A 21 03 02      [10] 3771 	ld	hl, #0x0203
   184D E5            [11] 3772 	push	hl
   184E 3E 04         [ 7] 3773 	ld	a, #0x04
   1850 F5            [11] 3774 	push	af
   1851 33            [ 6] 3775 	inc	sp
   1852 DD 6E 06      [19] 3776 	ld	l,6 (ix)
   1855 DD 66 07      [19] 3777 	ld	h,7 (ix)
   1858 E5            [11] 3778 	push	hl
   1859 CDrFEr01      [17] 3779 	call	_createRoca
   185C 21 07 00      [10] 3780 	ld	hl, #7
   185F 39            [11] 3781 	add	hl, sp
   1860 F9            [ 6] 3782 	ld	sp, hl
                           3783 ;src/niveles/niveles.c:435: createRocaEspejo(rocasEspejo,12,3,mover_1, sprite_Rock_B,3);
   1861 21 03 03      [10] 3784 	ld	hl, #0x0303
   1864 E5            [11] 3785 	push	hl
   1865 26 01         [ 7] 3786 	ld	h, #0x01
   1867 E5            [11] 3787 	push	hl
   1868 3E 0C         [ 7] 3788 	ld	a, #0x0c
   186A F5            [11] 3789 	push	af
   186B 33            [ 6] 3790 	inc	sp
   186C DD 6E 08      [19] 3791 	ld	l,8 (ix)
   186F DD 66 09      [19] 3792 	ld	h,9 (ix)
   1872 E5            [11] 3793 	push	hl
   1873 CDr94r02      [17] 3794 	call	_createRocaEspejo
   1876 21 07 00      [10] 3795 	ld	hl, #7
   1879 39            [11] 3796 	add	hl, sp
   187A F9            [ 6] 3797 	ld	sp, hl
                           3798 ;src/niveles/niveles.c:439: createColeccionabeLuz(col,12,2,2);
   187B 21 02 02      [10] 3799 	ld	hl, #0x0202
   187E E5            [11] 3800 	push	hl
   187F 3E 0C         [ 7] 3801 	ld	a, #0x0c
   1881 F5            [11] 3802 	push	af
   1882 33            [ 6] 3803 	inc	sp
   1883 DD 6E 0E      [19] 3804 	ld	l,14 (ix)
   1886 DD 66 0F      [19] 3805 	ld	h,15 (ix)
   1889 E5            [11] 3806 	push	hl
   188A CDr17r05      [17] 3807 	call	_createColeccionabeLuz
   188D F1            [10] 3808 	pop	af
                           3809 ;src/niveles/niveles.c:442: createRoca(rocas,2,1,sin_Movimiento, sprite_Muro_Solid1,1);
   188E 33            [ 6] 3810 	inc	sp
   188F 21 1D 01      [10] 3811 	ld	hl,#0x011d
   1892 E3            [19] 3812 	ex	(sp),hl
   1893 21 01 00      [10] 3813 	ld	hl, #0x0001
   1896 E5            [11] 3814 	push	hl
   1897 3E 02         [ 7] 3815 	ld	a, #0x02
   1899 F5            [11] 3816 	push	af
   189A 33            [ 6] 3817 	inc	sp
   189B DD 6E 06      [19] 3818 	ld	l,6 (ix)
   189E DD 66 07      [19] 3819 	ld	h,7 (ix)
   18A1 E5            [11] 3820 	push	hl
   18A2 CDrFEr01      [17] 3821 	call	_createRoca
   18A5 21 07 00      [10] 3822 	ld	hl, #7
   18A8 39            [11] 3823 	add	hl, sp
   18A9 F9            [ 6] 3824 	ld	sp, hl
                           3825 ;src/niveles/niveles.c:443: createRoca(rocas,2,2,sin_Movimiento, sprite_Muro_Solid1,1);
   18AA 21 1D 01      [10] 3826 	ld	hl, #0x011d
   18AD E5            [11] 3827 	push	hl
   18AE 21 02 00      [10] 3828 	ld	hl, #0x0002
   18B1 E5            [11] 3829 	push	hl
   18B2 3E 02         [ 7] 3830 	ld	a, #0x02
   18B4 F5            [11] 3831 	push	af
   18B5 33            [ 6] 3832 	inc	sp
   18B6 DD 6E 06      [19] 3833 	ld	l,6 (ix)
   18B9 DD 66 07      [19] 3834 	ld	h,7 (ix)
   18BC E5            [11] 3835 	push	hl
   18BD CDrFEr01      [17] 3836 	call	_createRoca
   18C0 21 07 00      [10] 3837 	ld	hl, #7
   18C3 39            [11] 3838 	add	hl, sp
   18C4 F9            [ 6] 3839 	ld	sp, hl
                           3840 ;src/niveles/niveles.c:444: createRoca(rocas,2,3,sin_Movimiento, sprite_Muro_Solid1,1);
   18C5 21 1D 01      [10] 3841 	ld	hl, #0x011d
   18C8 E5            [11] 3842 	push	hl
   18C9 21 03 00      [10] 3843 	ld	hl, #0x0003
   18CC E5            [11] 3844 	push	hl
   18CD 3E 02         [ 7] 3845 	ld	a, #0x02
   18CF F5            [11] 3846 	push	af
   18D0 33            [ 6] 3847 	inc	sp
   18D1 DD 6E 06      [19] 3848 	ld	l,6 (ix)
   18D4 DD 66 07      [19] 3849 	ld	h,7 (ix)
   18D7 E5            [11] 3850 	push	hl
   18D8 CDrFEr01      [17] 3851 	call	_createRoca
   18DB 21 07 00      [10] 3852 	ld	hl, #7
   18DE 39            [11] 3853 	add	hl, sp
   18DF F9            [ 6] 3854 	ld	sp, hl
                           3855 ;src/niveles/niveles.c:445: createRoca(rocas,2,4,sin_Movimiento, sprite_Muro_Solid1,1);
   18E0 21 1D 01      [10] 3856 	ld	hl, #0x011d
   18E3 E5            [11] 3857 	push	hl
   18E4 21 04 00      [10] 3858 	ld	hl, #0x0004
   18E7 E5            [11] 3859 	push	hl
   18E8 3E 02         [ 7] 3860 	ld	a, #0x02
   18EA F5            [11] 3861 	push	af
   18EB 33            [ 6] 3862 	inc	sp
   18EC DD 6E 06      [19] 3863 	ld	l,6 (ix)
   18EF DD 66 07      [19] 3864 	ld	h,7 (ix)
   18F2 E5            [11] 3865 	push	hl
   18F3 CDrFEr01      [17] 3866 	call	_createRoca
   18F6 21 07 00      [10] 3867 	ld	hl, #7
   18F9 39            [11] 3868 	add	hl, sp
   18FA F9            [ 6] 3869 	ld	sp, hl
                           3870 ;src/niveles/niveles.c:446: createRoca(rocas,2,5,sin_Movimiento, sprite_Muro_Solid1,1);
   18FB 21 1D 01      [10] 3871 	ld	hl, #0x011d
   18FE E5            [11] 3872 	push	hl
   18FF 21 05 00      [10] 3873 	ld	hl, #0x0005
   1902 E5            [11] 3874 	push	hl
   1903 3E 02         [ 7] 3875 	ld	a, #0x02
   1905 F5            [11] 3876 	push	af
   1906 33            [ 6] 3877 	inc	sp
   1907 DD 6E 06      [19] 3878 	ld	l,6 (ix)
   190A DD 66 07      [19] 3879 	ld	h,7 (ix)
   190D E5            [11] 3880 	push	hl
   190E CDrFEr01      [17] 3881 	call	_createRoca
   1911 21 07 00      [10] 3882 	ld	hl, #7
   1914 39            [11] 3883 	add	hl, sp
   1915 F9            [ 6] 3884 	ld	sp, hl
                           3885 ;src/niveles/niveles.c:447: createRoca(rocas,2,6,sin_Movimiento, sprite_Muro_Solid1,1);
   1916 21 1D 01      [10] 3886 	ld	hl, #0x011d
   1919 E5            [11] 3887 	push	hl
   191A 21 06 00      [10] 3888 	ld	hl, #0x0006
   191D E5            [11] 3889 	push	hl
   191E 3E 02         [ 7] 3890 	ld	a, #0x02
   1920 F5            [11] 3891 	push	af
   1921 33            [ 6] 3892 	inc	sp
   1922 DD 6E 06      [19] 3893 	ld	l,6 (ix)
   1925 DD 66 07      [19] 3894 	ld	h,7 (ix)
   1928 E5            [11] 3895 	push	hl
   1929 CDrFEr01      [17] 3896 	call	_createRoca
   192C 21 07 00      [10] 3897 	ld	hl, #7
   192F 39            [11] 3898 	add	hl, sp
   1930 F9            [ 6] 3899 	ld	sp, hl
                           3900 ;src/niveles/niveles.c:448: createRoca(rocas,2,7,sin_Movimiento, sprite_Muro_Solid1,1);
   1931 21 1D 01      [10] 3901 	ld	hl, #0x011d
   1934 E5            [11] 3902 	push	hl
   1935 21 07 00      [10] 3903 	ld	hl, #0x0007
   1938 E5            [11] 3904 	push	hl
   1939 3E 02         [ 7] 3905 	ld	a, #0x02
   193B F5            [11] 3906 	push	af
   193C 33            [ 6] 3907 	inc	sp
   193D DD 6E 06      [19] 3908 	ld	l,6 (ix)
   1940 DD 66 07      [19] 3909 	ld	h,7 (ix)
   1943 E5            [11] 3910 	push	hl
   1944 CDrFEr01      [17] 3911 	call	_createRoca
   1947 21 07 00      [10] 3912 	ld	hl, #7
   194A 39            [11] 3913 	add	hl, sp
   194B F9            [ 6] 3914 	ld	sp, hl
                           3915 ;src/niveles/niveles.c:449: createRoca(rocas,3,1,sin_Movimiento, sprite_Muro_Solid1,1);
   194C 21 1D 01      [10] 3916 	ld	hl, #0x011d
   194F E5            [11] 3917 	push	hl
   1950 21 01 00      [10] 3918 	ld	hl, #0x0001
   1953 E5            [11] 3919 	push	hl
   1954 3E 03         [ 7] 3920 	ld	a, #0x03
   1956 F5            [11] 3921 	push	af
   1957 33            [ 6] 3922 	inc	sp
   1958 DD 6E 06      [19] 3923 	ld	l,6 (ix)
   195B DD 66 07      [19] 3924 	ld	h,7 (ix)
   195E E5            [11] 3925 	push	hl
   195F CDrFEr01      [17] 3926 	call	_createRoca
   1962 21 07 00      [10] 3927 	ld	hl, #7
   1965 39            [11] 3928 	add	hl, sp
   1966 F9            [ 6] 3929 	ld	sp, hl
                           3930 ;src/niveles/niveles.c:450: createRoca(rocas,4,1,sin_Movimiento, sprite_Muro_Solid1,1);
   1967 21 1D 01      [10] 3931 	ld	hl, #0x011d
   196A E5            [11] 3932 	push	hl
   196B 21 01 00      [10] 3933 	ld	hl, #0x0001
   196E E5            [11] 3934 	push	hl
   196F 3E 04         [ 7] 3935 	ld	a, #0x04
   1971 F5            [11] 3936 	push	af
   1972 33            [ 6] 3937 	inc	sp
   1973 DD 6E 06      [19] 3938 	ld	l,6 (ix)
   1976 DD 66 07      [19] 3939 	ld	h,7 (ix)
   1979 E5            [11] 3940 	push	hl
   197A CDrFEr01      [17] 3941 	call	_createRoca
   197D 21 07 00      [10] 3942 	ld	hl, #7
   1980 39            [11] 3943 	add	hl, sp
   1981 F9            [ 6] 3944 	ld	sp, hl
                           3945 ;src/niveles/niveles.c:451: createRoca(rocas,5,1,sin_Movimiento, sprite_Muro_Solid1,1);
   1982 21 1D 01      [10] 3946 	ld	hl, #0x011d
   1985 E5            [11] 3947 	push	hl
   1986 21 01 00      [10] 3948 	ld	hl, #0x0001
   1989 E5            [11] 3949 	push	hl
   198A 3E 05         [ 7] 3950 	ld	a, #0x05
   198C F5            [11] 3951 	push	af
   198D 33            [ 6] 3952 	inc	sp
   198E DD 6E 06      [19] 3953 	ld	l,6 (ix)
   1991 DD 66 07      [19] 3954 	ld	h,7 (ix)
   1994 E5            [11] 3955 	push	hl
   1995 CDrFEr01      [17] 3956 	call	_createRoca
   1998 21 07 00      [10] 3957 	ld	hl, #7
   199B 39            [11] 3958 	add	hl, sp
   199C F9            [ 6] 3959 	ld	sp, hl
                           3960 ;src/niveles/niveles.c:452: createRoca(rocas,5,2,sin_Movimiento, sprite_Muro_Solid1,1);
   199D 21 1D 01      [10] 3961 	ld	hl, #0x011d
   19A0 E5            [11] 3962 	push	hl
   19A1 21 02 00      [10] 3963 	ld	hl, #0x0002
   19A4 E5            [11] 3964 	push	hl
   19A5 3E 05         [ 7] 3965 	ld	a, #0x05
   19A7 F5            [11] 3966 	push	af
   19A8 33            [ 6] 3967 	inc	sp
   19A9 DD 6E 06      [19] 3968 	ld	l,6 (ix)
   19AC DD 66 07      [19] 3969 	ld	h,7 (ix)
   19AF E5            [11] 3970 	push	hl
   19B0 CDrFEr01      [17] 3971 	call	_createRoca
   19B3 21 07 00      [10] 3972 	ld	hl, #7
   19B6 39            [11] 3973 	add	hl, sp
   19B7 F9            [ 6] 3974 	ld	sp, hl
                           3975 ;src/niveles/niveles.c:453: createRoca(rocas,6,2,sin_Movimiento, sprite_Muro_Solid1,1);
   19B8 21 1D 01      [10] 3976 	ld	hl, #0x011d
   19BB E5            [11] 3977 	push	hl
   19BC 21 02 00      [10] 3978 	ld	hl, #0x0002
   19BF E5            [11] 3979 	push	hl
   19C0 3E 06         [ 7] 3980 	ld	a, #0x06
   19C2 F5            [11] 3981 	push	af
   19C3 33            [ 6] 3982 	inc	sp
   19C4 DD 6E 06      [19] 3983 	ld	l,6 (ix)
   19C7 DD 66 07      [19] 3984 	ld	h,7 (ix)
   19CA E5            [11] 3985 	push	hl
   19CB CDrFEr01      [17] 3986 	call	_createRoca
   19CE 21 07 00      [10] 3987 	ld	hl, #7
   19D1 39            [11] 3988 	add	hl, sp
   19D2 F9            [ 6] 3989 	ld	sp, hl
                           3990 ;src/niveles/niveles.c:454: createRoca(rocas,7,2,sin_Movimiento, sprite_Muro_Solid1,1);
   19D3 21 1D 01      [10] 3991 	ld	hl, #0x011d
   19D6 E5            [11] 3992 	push	hl
   19D7 21 02 00      [10] 3993 	ld	hl, #0x0002
   19DA E5            [11] 3994 	push	hl
   19DB 3E 07         [ 7] 3995 	ld	a, #0x07
   19DD F5            [11] 3996 	push	af
   19DE 33            [ 6] 3997 	inc	sp
   19DF DD 6E 06      [19] 3998 	ld	l,6 (ix)
   19E2 DD 66 07      [19] 3999 	ld	h,7 (ix)
   19E5 E5            [11] 4000 	push	hl
   19E6 CDrFEr01      [17] 4001 	call	_createRoca
   19E9 21 07 00      [10] 4002 	ld	hl, #7
   19EC 39            [11] 4003 	add	hl, sp
   19ED F9            [ 6] 4004 	ld	sp, hl
                           4005 ;src/niveles/niveles.c:455: createRoca(rocas,3,7,sin_Movimiento, sprite_Muro_Solid1,1);
   19EE 21 1D 01      [10] 4006 	ld	hl, #0x011d
   19F1 E5            [11] 4007 	push	hl
   19F2 21 07 00      [10] 4008 	ld	hl, #0x0007
   19F5 E5            [11] 4009 	push	hl
   19F6 3E 03         [ 7] 4010 	ld	a, #0x03
   19F8 F5            [11] 4011 	push	af
   19F9 33            [ 6] 4012 	inc	sp
   19FA DD 6E 06      [19] 4013 	ld	l,6 (ix)
   19FD DD 66 07      [19] 4014 	ld	h,7 (ix)
   1A00 E5            [11] 4015 	push	hl
   1A01 CDrFEr01      [17] 4016 	call	_createRoca
   1A04 21 07 00      [10] 4017 	ld	hl, #7
   1A07 39            [11] 4018 	add	hl, sp
   1A08 F9            [ 6] 4019 	ld	sp, hl
                           4020 ;src/niveles/niveles.c:456: createRoca(rocas,4,7,sin_Movimiento, sprite_Muro_Solid1,1);
   1A09 21 1D 01      [10] 4021 	ld	hl, #0x011d
   1A0C E5            [11] 4022 	push	hl
   1A0D 21 07 00      [10] 4023 	ld	hl, #0x0007
   1A10 E5            [11] 4024 	push	hl
   1A11 3E 04         [ 7] 4025 	ld	a, #0x04
   1A13 F5            [11] 4026 	push	af
   1A14 33            [ 6] 4027 	inc	sp
   1A15 DD 6E 06      [19] 4028 	ld	l,6 (ix)
   1A18 DD 66 07      [19] 4029 	ld	h,7 (ix)
   1A1B E5            [11] 4030 	push	hl
   1A1C CDrFEr01      [17] 4031 	call	_createRoca
   1A1F 21 07 00      [10] 4032 	ld	hl, #7
   1A22 39            [11] 4033 	add	hl, sp
   1A23 F9            [ 6] 4034 	ld	sp, hl
                           4035 ;src/niveles/niveles.c:457: createRoca(rocas,5,7,sin_Movimiento, sprite_Muro_Solid1,1);
   1A24 21 1D 01      [10] 4036 	ld	hl, #0x011d
   1A27 E5            [11] 4037 	push	hl
   1A28 21 07 00      [10] 4038 	ld	hl, #0x0007
   1A2B E5            [11] 4039 	push	hl
   1A2C 3E 05         [ 7] 4040 	ld	a, #0x05
   1A2E F5            [11] 4041 	push	af
   1A2F 33            [ 6] 4042 	inc	sp
   1A30 DD 6E 06      [19] 4043 	ld	l,6 (ix)
   1A33 DD 66 07      [19] 4044 	ld	h,7 (ix)
   1A36 E5            [11] 4045 	push	hl
   1A37 CDrFEr01      [17] 4046 	call	_createRoca
   1A3A 21 07 00      [10] 4047 	ld	hl, #7
   1A3D 39            [11] 4048 	add	hl, sp
   1A3E F9            [ 6] 4049 	ld	sp, hl
                           4050 ;src/niveles/niveles.c:458: createRoca(rocas,5,6,sin_Movimiento, sprite_Muro_Solid1,1);
   1A3F 21 1D 01      [10] 4051 	ld	hl, #0x011d
   1A42 E5            [11] 4052 	push	hl
   1A43 21 06 00      [10] 4053 	ld	hl, #0x0006
   1A46 E5            [11] 4054 	push	hl
   1A47 3E 05         [ 7] 4055 	ld	a, #0x05
   1A49 F5            [11] 4056 	push	af
   1A4A 33            [ 6] 4057 	inc	sp
   1A4B DD 6E 06      [19] 4058 	ld	l,6 (ix)
   1A4E DD 66 07      [19] 4059 	ld	h,7 (ix)
   1A51 E5            [11] 4060 	push	hl
   1A52 CDrFEr01      [17] 4061 	call	_createRoca
   1A55 21 07 00      [10] 4062 	ld	hl, #7
   1A58 39            [11] 4063 	add	hl, sp
   1A59 F9            [ 6] 4064 	ld	sp, hl
                           4065 ;src/niveles/niveles.c:459: createRoca(rocas,6,6,sin_Movimiento, sprite_Muro_Solid1,1);
   1A5A 21 1D 01      [10] 4066 	ld	hl, #0x011d
   1A5D E5            [11] 4067 	push	hl
   1A5E 21 06 00      [10] 4068 	ld	hl, #0x0006
   1A61 E5            [11] 4069 	push	hl
   1A62 3E 06         [ 7] 4070 	ld	a, #0x06
   1A64 F5            [11] 4071 	push	af
   1A65 33            [ 6] 4072 	inc	sp
   1A66 DD 6E 06      [19] 4073 	ld	l,6 (ix)
   1A69 DD 66 07      [19] 4074 	ld	h,7 (ix)
   1A6C E5            [11] 4075 	push	hl
   1A6D CDrFEr01      [17] 4076 	call	_createRoca
   1A70 21 07 00      [10] 4077 	ld	hl, #7
   1A73 39            [11] 4078 	add	hl, sp
   1A74 F9            [ 6] 4079 	ld	sp, hl
                           4080 ;src/niveles/niveles.c:460: createRoca(rocas,7,6,sin_Movimiento, sprite_Muro_Solid1,1);
   1A75 21 1D 01      [10] 4081 	ld	hl, #0x011d
   1A78 E5            [11] 4082 	push	hl
   1A79 21 06 00      [10] 4083 	ld	hl, #0x0006
   1A7C E5            [11] 4084 	push	hl
   1A7D 3E 07         [ 7] 4085 	ld	a, #0x07
   1A7F F5            [11] 4086 	push	af
   1A80 33            [ 6] 4087 	inc	sp
   1A81 DD 6E 06      [19] 4088 	ld	l,6 (ix)
   1A84 DD 66 07      [19] 4089 	ld	h,7 (ix)
   1A87 E5            [11] 4090 	push	hl
   1A88 CDrFEr01      [17] 4091 	call	_createRoca
   1A8B 21 07 00      [10] 4092 	ld	hl, #7
   1A8E 39            [11] 4093 	add	hl, sp
   1A8F F9            [ 6] 4094 	ld	sp, hl
                           4095 ;src/niveles/niveles.c:461: createRoca(rocas,8,2,sin_Movimiento, sprite_Muro_Solid1,1);
   1A90 21 1D 01      [10] 4096 	ld	hl, #0x011d
   1A93 E5            [11] 4097 	push	hl
   1A94 21 02 00      [10] 4098 	ld	hl, #0x0002
   1A97 E5            [11] 4099 	push	hl
   1A98 3E 08         [ 7] 4100 	ld	a, #0x08
   1A9A F5            [11] 4101 	push	af
   1A9B 33            [ 6] 4102 	inc	sp
   1A9C DD 6E 06      [19] 4103 	ld	l,6 (ix)
   1A9F DD 66 07      [19] 4104 	ld	h,7 (ix)
   1AA2 E5            [11] 4105 	push	hl
   1AA3 CDrFEr01      [17] 4106 	call	_createRoca
   1AA6 21 07 00      [10] 4107 	ld	hl, #7
   1AA9 39            [11] 4108 	add	hl, sp
   1AAA F9            [ 6] 4109 	ld	sp, hl
                           4110 ;src/niveles/niveles.c:462: createRoca(rocas,8,3,sin_Movimiento, sprite_Muro_Solid1,1);
   1AAB 21 1D 01      [10] 4111 	ld	hl, #0x011d
   1AAE E5            [11] 4112 	push	hl
   1AAF 21 03 00      [10] 4113 	ld	hl, #0x0003
   1AB2 E5            [11] 4114 	push	hl
   1AB3 3E 08         [ 7] 4115 	ld	a, #0x08
   1AB5 F5            [11] 4116 	push	af
   1AB6 33            [ 6] 4117 	inc	sp
   1AB7 DD 6E 06      [19] 4118 	ld	l,6 (ix)
   1ABA DD 66 07      [19] 4119 	ld	h,7 (ix)
   1ABD E5            [11] 4120 	push	hl
   1ABE CDrFEr01      [17] 4121 	call	_createRoca
   1AC1 21 07 00      [10] 4122 	ld	hl, #7
   1AC4 39            [11] 4123 	add	hl, sp
   1AC5 F9            [ 6] 4124 	ld	sp, hl
                           4125 ;src/niveles/niveles.c:463: createRoca(rocas,8,5,sin_Movimiento, sprite_Muro_Solid1,1);
   1AC6 21 1D 01      [10] 4126 	ld	hl, #0x011d
   1AC9 E5            [11] 4127 	push	hl
   1ACA 21 05 00      [10] 4128 	ld	hl, #0x0005
   1ACD E5            [11] 4129 	push	hl
   1ACE 3E 08         [ 7] 4130 	ld	a, #0x08
   1AD0 F5            [11] 4131 	push	af
   1AD1 33            [ 6] 4132 	inc	sp
   1AD2 DD 6E 06      [19] 4133 	ld	l,6 (ix)
   1AD5 DD 66 07      [19] 4134 	ld	h,7 (ix)
   1AD8 E5            [11] 4135 	push	hl
   1AD9 CDrFEr01      [17] 4136 	call	_createRoca
   1ADC 21 07 00      [10] 4137 	ld	hl, #7
   1ADF 39            [11] 4138 	add	hl, sp
   1AE0 F9            [ 6] 4139 	ld	sp, hl
                           4140 ;src/niveles/niveles.c:464: createRoca(rocas,8,6,sin_Movimiento, sprite_Muro_Solid1,1);
   1AE1 21 1D 01      [10] 4141 	ld	hl, #0x011d
   1AE4 E5            [11] 4142 	push	hl
   1AE5 21 06 00      [10] 4143 	ld	hl, #0x0006
   1AE8 E5            [11] 4144 	push	hl
   1AE9 3E 08         [ 7] 4145 	ld	a, #0x08
   1AEB F5            [11] 4146 	push	af
   1AEC 33            [ 6] 4147 	inc	sp
   1AED DD 6E 06      [19] 4148 	ld	l,6 (ix)
   1AF0 DD 66 07      [19] 4149 	ld	h,7 (ix)
   1AF3 E5            [11] 4150 	push	hl
   1AF4 CDrFEr01      [17] 4151 	call	_createRoca
   1AF7 21 07 00      [10] 4152 	ld	hl, #7
   1AFA 39            [11] 4153 	add	hl, sp
   1AFB F9            [ 6] 4154 	ld	sp, hl
                           4155 ;src/niveles/niveles.c:465: createRoca(rocas,7,3,sin_Movimiento,sprite_RockInmovil1_G,1);
   1AFC 21 07 01      [10] 4156 	ld	hl, #0x0107
   1AFF E5            [11] 4157 	push	hl
   1B00 21 03 00      [10] 4158 	ld	hl, #0x0003
   1B03 E5            [11] 4159 	push	hl
   1B04 3E 07         [ 7] 4160 	ld	a, #0x07
   1B06 F5            [11] 4161 	push	af
   1B07 33            [ 6] 4162 	inc	sp
   1B08 DD 6E 06      [19] 4163 	ld	l,6 (ix)
   1B0B DD 66 07      [19] 4164 	ld	h,7 (ix)
   1B0E E5            [11] 4165 	push	hl
   1B0F CDrFEr01      [17] 4166 	call	_createRoca
   1B12 21 07 00      [10] 4167 	ld	hl, #7
   1B15 39            [11] 4168 	add	hl, sp
   1B16 F9            [ 6] 4169 	ld	sp, hl
                           4170 ;src/niveles/niveles.c:466: createRoca(rocas,7,5,sin_Movimiento,sprite_RockInmovil1_G,1);
   1B17 21 07 01      [10] 4171 	ld	hl, #0x0107
   1B1A E5            [11] 4172 	push	hl
   1B1B 21 05 00      [10] 4173 	ld	hl, #0x0005
   1B1E E5            [11] 4174 	push	hl
   1B1F 3E 07         [ 7] 4175 	ld	a, #0x07
   1B21 F5            [11] 4176 	push	af
   1B22 33            [ 6] 4177 	inc	sp
   1B23 DD 6E 06      [19] 4178 	ld	l,6 (ix)
   1B26 DD 66 07      [19] 4179 	ld	h,7 (ix)
   1B29 E5            [11] 4180 	push	hl
   1B2A CDrFEr01      [17] 4181 	call	_createRoca
   1B2D 21 07 00      [10] 4182 	ld	hl, #7
   1B30 39            [11] 4183 	add	hl, sp
   1B31 F9            [ 6] 4184 	ld	sp, hl
                           4185 ;src/niveles/niveles.c:470: createRocaEspejo(rocasEspejo,14,1,sin_Movimiento, sprite_Muro_Solid1,1);
   1B32 21 1D 01      [10] 4186 	ld	hl, #0x011d
   1B35 E5            [11] 4187 	push	hl
   1B36 21 01 00      [10] 4188 	ld	hl, #0x0001
   1B39 E5            [11] 4189 	push	hl
   1B3A 3E 0E         [ 7] 4190 	ld	a, #0x0e
   1B3C F5            [11] 4191 	push	af
   1B3D 33            [ 6] 4192 	inc	sp
   1B3E DD 6E 08      [19] 4193 	ld	l,8 (ix)
   1B41 DD 66 09      [19] 4194 	ld	h,9 (ix)
   1B44 E5            [11] 4195 	push	hl
   1B45 CDr94r02      [17] 4196 	call	_createRocaEspejo
   1B48 21 07 00      [10] 4197 	ld	hl, #7
   1B4B 39            [11] 4198 	add	hl, sp
   1B4C F9            [ 6] 4199 	ld	sp, hl
                           4200 ;src/niveles/niveles.c:471: createRocaEspejo(rocasEspejo,14,2,sin_Movimiento, sprite_Muro_Solid1,1);
   1B4D 21 1D 01      [10] 4201 	ld	hl, #0x011d
   1B50 E5            [11] 4202 	push	hl
   1B51 21 02 00      [10] 4203 	ld	hl, #0x0002
   1B54 E5            [11] 4204 	push	hl
   1B55 3E 0E         [ 7] 4205 	ld	a, #0x0e
   1B57 F5            [11] 4206 	push	af
   1B58 33            [ 6] 4207 	inc	sp
   1B59 DD 6E 08      [19] 4208 	ld	l,8 (ix)
   1B5C DD 66 09      [19] 4209 	ld	h,9 (ix)
   1B5F E5            [11] 4210 	push	hl
   1B60 CDr94r02      [17] 4211 	call	_createRocaEspejo
   1B63 21 07 00      [10] 4212 	ld	hl, #7
   1B66 39            [11] 4213 	add	hl, sp
   1B67 F9            [ 6] 4214 	ld	sp, hl
                           4215 ;src/niveles/niveles.c:472: createRocaEspejo(rocasEspejo,14,3,sin_Movimiento, sprite_Muro_Solid1,1);
   1B68 21 1D 01      [10] 4216 	ld	hl, #0x011d
   1B6B E5            [11] 4217 	push	hl
   1B6C 21 03 00      [10] 4218 	ld	hl, #0x0003
   1B6F E5            [11] 4219 	push	hl
   1B70 3E 0E         [ 7] 4220 	ld	a, #0x0e
   1B72 F5            [11] 4221 	push	af
   1B73 33            [ 6] 4222 	inc	sp
   1B74 DD 6E 08      [19] 4223 	ld	l,8 (ix)
   1B77 DD 66 09      [19] 4224 	ld	h,9 (ix)
   1B7A E5            [11] 4225 	push	hl
   1B7B CDr94r02      [17] 4226 	call	_createRocaEspejo
   1B7E 21 07 00      [10] 4227 	ld	hl, #7
   1B81 39            [11] 4228 	add	hl, sp
   1B82 F9            [ 6] 4229 	ld	sp, hl
                           4230 ;src/niveles/niveles.c:473: createRocaEspejo(rocasEspejo,14,4,sin_Movimiento, sprite_Muro_Solid1,1);
   1B83 21 1D 01      [10] 4231 	ld	hl, #0x011d
   1B86 E5            [11] 4232 	push	hl
   1B87 21 04 00      [10] 4233 	ld	hl, #0x0004
   1B8A E5            [11] 4234 	push	hl
   1B8B 3E 0E         [ 7] 4235 	ld	a, #0x0e
   1B8D F5            [11] 4236 	push	af
   1B8E 33            [ 6] 4237 	inc	sp
   1B8F DD 6E 08      [19] 4238 	ld	l,8 (ix)
   1B92 DD 66 09      [19] 4239 	ld	h,9 (ix)
   1B95 E5            [11] 4240 	push	hl
   1B96 CDr94r02      [17] 4241 	call	_createRocaEspejo
   1B99 21 07 00      [10] 4242 	ld	hl, #7
   1B9C 39            [11] 4243 	add	hl, sp
   1B9D F9            [ 6] 4244 	ld	sp, hl
                           4245 ;src/niveles/niveles.c:474: createRocaEspejo(rocasEspejo,14,5,sin_Movimiento, sprite_Muro_Solid1,1);
   1B9E 21 1D 01      [10] 4246 	ld	hl, #0x011d
   1BA1 E5            [11] 4247 	push	hl
   1BA2 21 05 00      [10] 4248 	ld	hl, #0x0005
   1BA5 E5            [11] 4249 	push	hl
   1BA6 3E 0E         [ 7] 4250 	ld	a, #0x0e
   1BA8 F5            [11] 4251 	push	af
   1BA9 33            [ 6] 4252 	inc	sp
   1BAA DD 6E 08      [19] 4253 	ld	l,8 (ix)
   1BAD DD 66 09      [19] 4254 	ld	h,9 (ix)
   1BB0 E5            [11] 4255 	push	hl
   1BB1 CDr94r02      [17] 4256 	call	_createRocaEspejo
   1BB4 21 07 00      [10] 4257 	ld	hl, #7
   1BB7 39            [11] 4258 	add	hl, sp
   1BB8 F9            [ 6] 4259 	ld	sp, hl
                           4260 ;src/niveles/niveles.c:475: createRocaEspejo(rocasEspejo,14,6,sin_Movimiento, sprite_Muro_Solid1,1);
   1BB9 21 1D 01      [10] 4261 	ld	hl, #0x011d
   1BBC E5            [11] 4262 	push	hl
   1BBD 21 06 00      [10] 4263 	ld	hl, #0x0006
   1BC0 E5            [11] 4264 	push	hl
   1BC1 3E 0E         [ 7] 4265 	ld	a, #0x0e
   1BC3 F5            [11] 4266 	push	af
   1BC4 33            [ 6] 4267 	inc	sp
   1BC5 DD 6E 08      [19] 4268 	ld	l,8 (ix)
   1BC8 DD 66 09      [19] 4269 	ld	h,9 (ix)
   1BCB E5            [11] 4270 	push	hl
   1BCC CDr94r02      [17] 4271 	call	_createRocaEspejo
   1BCF 21 07 00      [10] 4272 	ld	hl, #7
   1BD2 39            [11] 4273 	add	hl, sp
   1BD3 F9            [ 6] 4274 	ld	sp, hl
                           4275 ;src/niveles/niveles.c:476: createRocaEspejo(rocasEspejo,14,7,sin_Movimiento, sprite_Muro_Solid1,1);
   1BD4 21 1D 01      [10] 4276 	ld	hl, #0x011d
   1BD7 E5            [11] 4277 	push	hl
   1BD8 21 07 00      [10] 4278 	ld	hl, #0x0007
   1BDB E5            [11] 4279 	push	hl
   1BDC 3E 0E         [ 7] 4280 	ld	a, #0x0e
   1BDE F5            [11] 4281 	push	af
   1BDF 33            [ 6] 4282 	inc	sp
   1BE0 DD 6E 08      [19] 4283 	ld	l,8 (ix)
   1BE3 DD 66 09      [19] 4284 	ld	h,9 (ix)
   1BE6 E5            [11] 4285 	push	hl
   1BE7 CDr94r02      [17] 4286 	call	_createRocaEspejo
   1BEA 21 07 00      [10] 4287 	ld	hl, #7
   1BED 39            [11] 4288 	add	hl, sp
   1BEE F9            [ 6] 4289 	ld	sp, hl
                           4290 ;src/niveles/niveles.c:477: createRocaEspejo(rocasEspejo,11,1,sin_Movimiento, sprite_Muro_Solid1,1);
   1BEF 21 1D 01      [10] 4291 	ld	hl, #0x011d
   1BF2 E5            [11] 4292 	push	hl
   1BF3 21 01 00      [10] 4293 	ld	hl, #0x0001
   1BF6 E5            [11] 4294 	push	hl
   1BF7 3E 0B         [ 7] 4295 	ld	a, #0x0b
   1BF9 F5            [11] 4296 	push	af
   1BFA 33            [ 6] 4297 	inc	sp
   1BFB DD 6E 08      [19] 4298 	ld	l,8 (ix)
   1BFE DD 66 09      [19] 4299 	ld	h,9 (ix)
   1C01 E5            [11] 4300 	push	hl
   1C02 CDr94r02      [17] 4301 	call	_createRocaEspejo
   1C05 21 07 00      [10] 4302 	ld	hl, #7
   1C08 39            [11] 4303 	add	hl, sp
   1C09 F9            [ 6] 4304 	ld	sp, hl
                           4305 ;src/niveles/niveles.c:478: createRocaEspejo(rocasEspejo,12,1,sin_Movimiento, sprite_Muro_Solid1,1);
   1C0A 21 1D 01      [10] 4306 	ld	hl, #0x011d
   1C0D E5            [11] 4307 	push	hl
   1C0E 21 01 00      [10] 4308 	ld	hl, #0x0001
   1C11 E5            [11] 4309 	push	hl
   1C12 3E 0C         [ 7] 4310 	ld	a, #0x0c
   1C14 F5            [11] 4311 	push	af
   1C15 33            [ 6] 4312 	inc	sp
   1C16 DD 6E 08      [19] 4313 	ld	l,8 (ix)
   1C19 DD 66 09      [19] 4314 	ld	h,9 (ix)
   1C1C E5            [11] 4315 	push	hl
   1C1D CDr94r02      [17] 4316 	call	_createRocaEspejo
   1C20 21 07 00      [10] 4317 	ld	hl, #7
   1C23 39            [11] 4318 	add	hl, sp
   1C24 F9            [ 6] 4319 	ld	sp, hl
                           4320 ;src/niveles/niveles.c:479: createRocaEspejo(rocasEspejo,13,1,sin_Movimiento, sprite_Muro_Solid1,1);
   1C25 21 1D 01      [10] 4321 	ld	hl, #0x011d
   1C28 E5            [11] 4322 	push	hl
   1C29 21 01 00      [10] 4323 	ld	hl, #0x0001
   1C2C E5            [11] 4324 	push	hl
   1C2D 3E 0D         [ 7] 4325 	ld	a, #0x0d
   1C2F F5            [11] 4326 	push	af
   1C30 33            [ 6] 4327 	inc	sp
   1C31 DD 6E 08      [19] 4328 	ld	l,8 (ix)
   1C34 DD 66 09      [19] 4329 	ld	h,9 (ix)
   1C37 E5            [11] 4330 	push	hl
   1C38 CDr94r02      [17] 4331 	call	_createRocaEspejo
   1C3B 21 07 00      [10] 4332 	ld	hl, #7
   1C3E 39            [11] 4333 	add	hl, sp
   1C3F F9            [ 6] 4334 	ld	sp, hl
                           4335 ;src/niveles/niveles.c:480: createRocaEspejo(rocasEspejo,11,2,sin_Movimiento, sprite_Muro_Solid1,1);
   1C40 21 1D 01      [10] 4336 	ld	hl, #0x011d
   1C43 E5            [11] 4337 	push	hl
   1C44 21 02 00      [10] 4338 	ld	hl, #0x0002
   1C47 E5            [11] 4339 	push	hl
   1C48 3E 0B         [ 7] 4340 	ld	a, #0x0b
   1C4A F5            [11] 4341 	push	af
   1C4B 33            [ 6] 4342 	inc	sp
   1C4C DD 6E 08      [19] 4343 	ld	l,8 (ix)
   1C4F DD 66 09      [19] 4344 	ld	h,9 (ix)
   1C52 E5            [11] 4345 	push	hl
   1C53 CDr94r02      [17] 4346 	call	_createRocaEspejo
   1C56 21 07 00      [10] 4347 	ld	hl, #7
   1C59 39            [11] 4348 	add	hl, sp
   1C5A F9            [ 6] 4349 	ld	sp, hl
                           4350 ;src/niveles/niveles.c:481: createRocaEspejo(rocasEspejo,10,2,sin_Movimiento, sprite_Muro_Solid1,1);
   1C5B 21 1D 01      [10] 4351 	ld	hl, #0x011d
   1C5E E5            [11] 4352 	push	hl
   1C5F 21 02 00      [10] 4353 	ld	hl, #0x0002
   1C62 E5            [11] 4354 	push	hl
   1C63 3E 0A         [ 7] 4355 	ld	a, #0x0a
   1C65 F5            [11] 4356 	push	af
   1C66 33            [ 6] 4357 	inc	sp
   1C67 DD 6E 08      [19] 4358 	ld	l,8 (ix)
   1C6A DD 66 09      [19] 4359 	ld	h,9 (ix)
   1C6D E5            [11] 4360 	push	hl
   1C6E CDr94r02      [17] 4361 	call	_createRocaEspejo
   1C71 21 07 00      [10] 4362 	ld	hl, #7
   1C74 39            [11] 4363 	add	hl, sp
   1C75 F9            [ 6] 4364 	ld	sp, hl
                           4365 ;src/niveles/niveles.c:482: createRocaEspejo(rocasEspejo,9,2,sin_Movimiento, sprite_Muro_Solid1,1);
   1C76 21 1D 01      [10] 4366 	ld	hl, #0x011d
   1C79 E5            [11] 4367 	push	hl
   1C7A 21 02 00      [10] 4368 	ld	hl, #0x0002
   1C7D E5            [11] 4369 	push	hl
   1C7E 3E 09         [ 7] 4370 	ld	a, #0x09
   1C80 F5            [11] 4371 	push	af
   1C81 33            [ 6] 4372 	inc	sp
   1C82 DD 6E 08      [19] 4373 	ld	l,8 (ix)
   1C85 DD 66 09      [19] 4374 	ld	h,9 (ix)
   1C88 E5            [11] 4375 	push	hl
   1C89 CDr94r02      [17] 4376 	call	_createRocaEspejo
   1C8C 21 07 00      [10] 4377 	ld	hl, #7
   1C8F 39            [11] 4378 	add	hl, sp
   1C90 F9            [ 6] 4379 	ld	sp, hl
                           4380 ;src/niveles/niveles.c:483: createRocaEspejo(rocasEspejo,11,7,sin_Movimiento, sprite_Muro_Solid1,1);
   1C91 21 1D 01      [10] 4381 	ld	hl, #0x011d
   1C94 E5            [11] 4382 	push	hl
   1C95 21 07 00      [10] 4383 	ld	hl, #0x0007
   1C98 E5            [11] 4384 	push	hl
   1C99 3E 0B         [ 7] 4385 	ld	a, #0x0b
   1C9B F5            [11] 4386 	push	af
   1C9C 33            [ 6] 4387 	inc	sp
   1C9D DD 6E 08      [19] 4388 	ld	l,8 (ix)
   1CA0 DD 66 09      [19] 4389 	ld	h,9 (ix)
   1CA3 E5            [11] 4390 	push	hl
   1CA4 CDr94r02      [17] 4391 	call	_createRocaEspejo
   1CA7 21 07 00      [10] 4392 	ld	hl, #7
   1CAA 39            [11] 4393 	add	hl, sp
   1CAB F9            [ 6] 4394 	ld	sp, hl
                           4395 ;src/niveles/niveles.c:484: createRocaEspejo(rocasEspejo,12,7,sin_Movimiento, sprite_Muro_Solid1,1);
   1CAC 21 1D 01      [10] 4396 	ld	hl, #0x011d
   1CAF E5            [11] 4397 	push	hl
   1CB0 21 07 00      [10] 4398 	ld	hl, #0x0007
   1CB3 E5            [11] 4399 	push	hl
   1CB4 3E 0C         [ 7] 4400 	ld	a, #0x0c
   1CB6 F5            [11] 4401 	push	af
   1CB7 33            [ 6] 4402 	inc	sp
   1CB8 DD 6E 08      [19] 4403 	ld	l,8 (ix)
   1CBB DD 66 09      [19] 4404 	ld	h,9 (ix)
   1CBE E5            [11] 4405 	push	hl
   1CBF CDr94r02      [17] 4406 	call	_createRocaEspejo
   1CC2 21 07 00      [10] 4407 	ld	hl, #7
   1CC5 39            [11] 4408 	add	hl, sp
   1CC6 F9            [ 6] 4409 	ld	sp, hl
                           4410 ;src/niveles/niveles.c:485: createRocaEspejo(rocasEspejo,13,7,sin_Movimiento, sprite_Muro_Solid1,1);
   1CC7 21 1D 01      [10] 4411 	ld	hl, #0x011d
   1CCA E5            [11] 4412 	push	hl
   1CCB 21 07 00      [10] 4413 	ld	hl, #0x0007
   1CCE E5            [11] 4414 	push	hl
   1CCF 3E 0D         [ 7] 4415 	ld	a, #0x0d
   1CD1 F5            [11] 4416 	push	af
   1CD2 33            [ 6] 4417 	inc	sp
   1CD3 DD 6E 08      [19] 4418 	ld	l,8 (ix)
   1CD6 DD 66 09      [19] 4419 	ld	h,9 (ix)
   1CD9 E5            [11] 4420 	push	hl
   1CDA CDr94r02      [17] 4421 	call	_createRocaEspejo
   1CDD 21 07 00      [10] 4422 	ld	hl, #7
   1CE0 39            [11] 4423 	add	hl, sp
   1CE1 F9            [ 6] 4424 	ld	sp, hl
                           4425 ;src/niveles/niveles.c:486: createRocaEspejo(rocasEspejo,11,6,sin_Movimiento, sprite_Muro_Solid1,1);
   1CE2 21 1D 01      [10] 4426 	ld	hl, #0x011d
   1CE5 E5            [11] 4427 	push	hl
   1CE6 21 06 00      [10] 4428 	ld	hl, #0x0006
   1CE9 E5            [11] 4429 	push	hl
   1CEA 3E 0B         [ 7] 4430 	ld	a, #0x0b
   1CEC F5            [11] 4431 	push	af
   1CED 33            [ 6] 4432 	inc	sp
   1CEE DD 6E 08      [19] 4433 	ld	l,8 (ix)
   1CF1 DD 66 09      [19] 4434 	ld	h,9 (ix)
   1CF4 E5            [11] 4435 	push	hl
   1CF5 CDr94r02      [17] 4436 	call	_createRocaEspejo
   1CF8 21 07 00      [10] 4437 	ld	hl, #7
   1CFB 39            [11] 4438 	add	hl, sp
   1CFC F9            [ 6] 4439 	ld	sp, hl
                           4440 ;src/niveles/niveles.c:487: createRocaEspejo(rocasEspejo,10,6,sin_Movimiento, sprite_Muro_Solid1,1);
   1CFD 21 1D 01      [10] 4441 	ld	hl, #0x011d
   1D00 E5            [11] 4442 	push	hl
   1D01 21 06 00      [10] 4443 	ld	hl, #0x0006
   1D04 E5            [11] 4444 	push	hl
   1D05 3E 0A         [ 7] 4445 	ld	a, #0x0a
   1D07 F5            [11] 4446 	push	af
   1D08 33            [ 6] 4447 	inc	sp
   1D09 DD 6E 08      [19] 4448 	ld	l,8 (ix)
   1D0C DD 66 09      [19] 4449 	ld	h,9 (ix)
   1D0F E5            [11] 4450 	push	hl
   1D10 CDr94r02      [17] 4451 	call	_createRocaEspejo
   1D13 21 07 00      [10] 4452 	ld	hl, #7
   1D16 39            [11] 4453 	add	hl, sp
   1D17 F9            [ 6] 4454 	ld	sp, hl
                           4455 ;src/niveles/niveles.c:488: createRocaEspejo(rocasEspejo,9,6,sin_Movimiento, sprite_Muro_Solid1,1);
   1D18 21 1D 01      [10] 4456 	ld	hl, #0x011d
   1D1B E5            [11] 4457 	push	hl
   1D1C 21 06 00      [10] 4458 	ld	hl, #0x0006
   1D1F E5            [11] 4459 	push	hl
   1D20 3E 09         [ 7] 4460 	ld	a, #0x09
   1D22 F5            [11] 4461 	push	af
   1D23 33            [ 6] 4462 	inc	sp
   1D24 DD 6E 08      [19] 4463 	ld	l,8 (ix)
   1D27 DD 66 09      [19] 4464 	ld	h,9 (ix)
   1D2A E5            [11] 4465 	push	hl
   1D2B CDr94r02      [17] 4466 	call	_createRocaEspejo
   1D2E 21 07 00      [10] 4467 	ld	hl, #7
   1D31 39            [11] 4468 	add	hl, sp
   1D32 F9            [ 6] 4469 	ld	sp, hl
                           4470 ;src/niveles/niveles.c:489: createHoleDerecha(rocasEspejo,10,4,sprite_hole,1);
   1D33 21 24 01      [10] 4471 	ld	hl, #0x0124
   1D36 E5            [11] 4472 	push	hl
   1D37 21 0A 04      [10] 4473 	ld	hl, #0x040a
   1D3A E5            [11] 4474 	push	hl
   1D3B DD 6E 08      [19] 4475 	ld	l,8 (ix)
   1D3E DD 66 09      [19] 4476 	ld	h,9 (ix)
   1D41 E5            [11] 4477 	push	hl
   1D42 CDr83r04      [17] 4478 	call	_createHoleDerecha
   1D45 21 06 00      [10] 4479 	ld	hl, #6
   1D48 39            [11] 4480 	add	hl, sp
   1D49 F9            [ 6] 4481 	ld	sp, hl
                           4482 ;src/niveles/niveles.c:490: createRocaEspejo(rocasEspejo,9,3,sin_Movimiento,sprite_RockInmovil1_B,1);
   1D4A 21 08 01      [10] 4483 	ld	hl, #0x0108
   1D4D E5            [11] 4484 	push	hl
   1D4E 21 03 00      [10] 4485 	ld	hl, #0x0003
   1D51 E5            [11] 4486 	push	hl
   1D52 3E 09         [ 7] 4487 	ld	a, #0x09
   1D54 F5            [11] 4488 	push	af
   1D55 33            [ 6] 4489 	inc	sp
   1D56 DD 6E 08      [19] 4490 	ld	l,8 (ix)
   1D59 DD 66 09      [19] 4491 	ld	h,9 (ix)
   1D5C E5            [11] 4492 	push	hl
   1D5D CDr94r02      [17] 4493 	call	_createRocaEspejo
   1D60 21 07 00      [10] 4494 	ld	hl, #7
   1D63 39            [11] 4495 	add	hl, sp
   1D64 F9            [ 6] 4496 	ld	sp, hl
                           4497 ;src/niveles/niveles.c:491: createRocaEspejo(rocasEspejo,9,5,sin_Movimiento,sprite_RockInmovil1_B,1);
   1D65 21 08 01      [10] 4498 	ld	hl, #0x0108
   1D68 E5            [11] 4499 	push	hl
   1D69 21 05 00      [10] 4500 	ld	hl, #0x0005
   1D6C E5            [11] 4501 	push	hl
   1D6D 3E 09         [ 7] 4502 	ld	a, #0x09
   1D6F F5            [11] 4503 	push	af
   1D70 33            [ 6] 4504 	inc	sp
   1D71 DD 6E 08      [19] 4505 	ld	l,8 (ix)
   1D74 DD 66 09      [19] 4506 	ld	h,9 (ix)
   1D77 E5            [11] 4507 	push	hl
   1D78 CDr94r02      [17] 4508 	call	_createRocaEspejo
   1D7B 21 07 00      [10] 4509 	ld	hl, #7
   1D7E 39            [11] 4510 	add	hl, sp
   1D7F F9            [ 6] 4511 	ld	sp, hl
   1D80 DD E1         [14] 4512 	pop	ix
   1D82 C9            [10] 4513 	ret
                           4514 ;src/niveles/niveles.c:495: void crearNievel6(TGameObject* player,TGameObject* rocas,TGameObject* rocasEspejo,TGameObject* puertas,TGameObject* portales,TGameObjectCol* col,u8* posicion){
                           4515 ;	---------------------------------
                           4516 ; Function crearNievel6
                           4517 ; ---------------------------------
   1D83                    4518 _crearNievel6::
   1D83 DD E5         [15] 4519 	push	ix
   1D85 DD 21 00 00   [14] 4520 	ld	ix,#0
   1D89 DD 39         [15] 4521 	add	ix,sp
                           4522 ;src/niveles/niveles.c:497: createPlayer(player,4,2,posicion);
   1D8B DD 6E 10      [19] 4523 	ld	l,16 (ix)
   1D8E DD 66 11      [19] 4524 	ld	h,17 (ix)
   1D91 E5            [11] 4525 	push	hl
   1D92 21 04 02      [10] 4526 	ld	hl, #0x0204
   1D95 E5            [11] 4527 	push	hl
   1D96 DD 6E 04      [19] 4528 	ld	l,4 (ix)
   1D99 DD 66 05      [19] 4529 	ld	h,5 (ix)
   1D9C E5            [11] 4530 	push	hl
   1D9D CDrBFr01      [17] 4531 	call	_createPlayer
   1DA0 21 06 00      [10] 4532 	ld	hl, #6
   1DA3 39            [11] 4533 	add	hl, sp
   1DA4 F9            [ 6] 4534 	ld	sp, hl
                           4535 ;src/niveles/niveles.c:498: createMarco(no);
   1DA5 3E 01         [ 7] 4536 	ld	a, #0x01
   1DA7 F5            [11] 4537 	push	af
   1DA8 33            [ 6] 4538 	inc	sp
   1DA9 CDrB0r01      [17] 4539 	call	_createMarco
   1DAC 33            [ 6] 4540 	inc	sp
                           4541 ;src/niveles/niveles.c:499: createPortal(portales,rocas,rocasEspejo,si);
   1DAD AF            [ 4] 4542 	xor	a, a
   1DAE F5            [11] 4543 	push	af
   1DAF 33            [ 6] 4544 	inc	sp
   1DB0 DD 6E 08      [19] 4545 	ld	l,8 (ix)
   1DB3 DD 66 09      [19] 4546 	ld	h,9 (ix)
   1DB6 E5            [11] 4547 	push	hl
   1DB7 DD 6E 06      [19] 4548 	ld	l,6 (ix)
   1DBA DD 66 07      [19] 4549 	ld	h,7 (ix)
   1DBD E5            [11] 4550 	push	hl
   1DBE DD 6E 0C      [19] 4551 	ld	l,12 (ix)
   1DC1 DD 66 0D      [19] 4552 	ld	h,13 (ix)
   1DC4 E5            [11] 4553 	push	hl
   1DC5 CDrA3r03      [17] 4554 	call	_createPortal
   1DC8 21 07 00      [10] 4555 	ld	hl, #7
   1DCB 39            [11] 4556 	add	hl, sp
   1DCC F9            [ 6] 4557 	ld	sp, hl
                           4558 ;src/niveles/niveles.c:500: createPuerta(puertas,3,2,sprite_Puerta_G,nivel_04);
   1DCD 21 1E 06      [10] 4559 	ld	hl, #0x061e
   1DD0 E5            [11] 4560 	push	hl
   1DD1 21 03 02      [10] 4561 	ld	hl, #0x0203
   1DD4 E5            [11] 4562 	push	hl
   1DD5 DD 6E 0A      [19] 4563 	ld	l,10 (ix)
   1DD8 DD 66 0B      [19] 4564 	ld	h,11 (ix)
   1DDB E5            [11] 4565 	push	hl
   1DDC CDr2Ar03      [17] 4566 	call	_createPuerta
   1DDF 21 06 00      [10] 4567 	ld	hl, #6
   1DE2 39            [11] 4568 	add	hl, sp
   1DE3 F9            [ 6] 4569 	ld	sp, hl
                           4570 ;src/niveles/niveles.c:504: createRoca(rocas,5,4,mover_Linea,sprite_RockLineal1_G,2);
   1DE4 21 05 02      [10] 4571 	ld	hl, #0x0205
   1DE7 E5            [11] 4572 	push	hl
   1DE8 2E 04         [ 7] 4573 	ld	l, #0x04
   1DEA E5            [11] 4574 	push	hl
   1DEB 3E 05         [ 7] 4575 	ld	a, #0x05
   1DED F5            [11] 4576 	push	af
   1DEE 33            [ 6] 4577 	inc	sp
   1DEF DD 6E 06      [19] 4578 	ld	l,6 (ix)
   1DF2 DD 66 07      [19] 4579 	ld	h,7 (ix)
   1DF5 E5            [11] 4580 	push	hl
   1DF6 CDrFEr01      [17] 4581 	call	_createRoca
   1DF9 21 07 00      [10] 4582 	ld	hl, #7
   1DFC 39            [11] 4583 	add	hl, sp
   1DFD F9            [ 6] 4584 	ld	sp, hl
                           4585 ;src/niveles/niveles.c:505: createRoca(rocas,6,4,mover_Linea,sprite_RockLineal1_G,3);
   1DFE 21 05 03      [10] 4586 	ld	hl, #0x0305
   1E01 E5            [11] 4587 	push	hl
   1E02 21 04 02      [10] 4588 	ld	hl, #0x0204
   1E05 E5            [11] 4589 	push	hl
   1E06 3E 06         [ 7] 4590 	ld	a, #0x06
   1E08 F5            [11] 4591 	push	af
   1E09 33            [ 6] 4592 	inc	sp
   1E0A DD 6E 06      [19] 4593 	ld	l,6 (ix)
   1E0D DD 66 07      [19] 4594 	ld	h,7 (ix)
   1E10 E5            [11] 4595 	push	hl
   1E11 CDrFEr01      [17] 4596 	call	_createRoca
   1E14 21 07 00      [10] 4597 	ld	hl, #7
   1E17 39            [11] 4598 	add	hl, sp
   1E18 F9            [ 6] 4599 	ld	sp, hl
                           4600 ;src/niveles/niveles.c:506: createRocaEspejo(rocasEspejo,10,4,sin_Movimiento,sprite_Rock_nomove_B,3);
   1E19 21 04 03      [10] 4601 	ld	hl, #0x0304
   1E1C E5            [11] 4602 	push	hl
   1E1D 26 00         [ 7] 4603 	ld	h, #0x00
   1E1F E5            [11] 4604 	push	hl
   1E20 3E 0A         [ 7] 4605 	ld	a, #0x0a
   1E22 F5            [11] 4606 	push	af
   1E23 33            [ 6] 4607 	inc	sp
   1E24 DD 6E 08      [19] 4608 	ld	l,8 (ix)
   1E27 DD 66 09      [19] 4609 	ld	h,9 (ix)
   1E2A E5            [11] 4610 	push	hl
   1E2B CDr94r02      [17] 4611 	call	_createRocaEspejo
   1E2E 21 07 00      [10] 4612 	ld	hl, #7
   1E31 39            [11] 4613 	add	hl, sp
   1E32 F9            [ 6] 4614 	ld	sp, hl
                           4615 ;src/niveles/niveles.c:507: createRocaEspejo(rocasEspejo,11,4,sin_Movimiento,sprite_Rock_nomove_B,2);
   1E33 21 04 02      [10] 4616 	ld	hl, #0x0204
   1E36 E5            [11] 4617 	push	hl
   1E37 26 00         [ 7] 4618 	ld	h, #0x00
   1E39 E5            [11] 4619 	push	hl
   1E3A 3E 0B         [ 7] 4620 	ld	a, #0x0b
   1E3C F5            [11] 4621 	push	af
   1E3D 33            [ 6] 4622 	inc	sp
   1E3E DD 6E 08      [19] 4623 	ld	l,8 (ix)
   1E41 DD 66 09      [19] 4624 	ld	h,9 (ix)
   1E44 E5            [11] 4625 	push	hl
   1E45 CDr94r02      [17] 4626 	call	_createRocaEspejo
   1E48 21 07 00      [10] 4627 	ld	hl, #7
   1E4B 39            [11] 4628 	add	hl, sp
   1E4C F9            [ 6] 4629 	ld	sp, hl
                           4630 ;src/niveles/niveles.c:513: createRoca(rocas,2,1,sin_Movimiento, sprite_Muro_Solid1,1);
   1E4D 21 1D 01      [10] 4631 	ld	hl, #0x011d
   1E50 E5            [11] 4632 	push	hl
   1E51 21 01 00      [10] 4633 	ld	hl, #0x0001
   1E54 E5            [11] 4634 	push	hl
   1E55 3E 02         [ 7] 4635 	ld	a, #0x02
   1E57 F5            [11] 4636 	push	af
   1E58 33            [ 6] 4637 	inc	sp
   1E59 DD 6E 06      [19] 4638 	ld	l,6 (ix)
   1E5C DD 66 07      [19] 4639 	ld	h,7 (ix)
   1E5F E5            [11] 4640 	push	hl
   1E60 CDrFEr01      [17] 4641 	call	_createRoca
   1E63 21 07 00      [10] 4642 	ld	hl, #7
   1E66 39            [11] 4643 	add	hl, sp
   1E67 F9            [ 6] 4644 	ld	sp, hl
                           4645 ;src/niveles/niveles.c:514: createRoca(rocas,2,2,sin_Movimiento, sprite_Muro_Solid1,1);
   1E68 21 1D 01      [10] 4646 	ld	hl, #0x011d
   1E6B E5            [11] 4647 	push	hl
   1E6C 21 02 00      [10] 4648 	ld	hl, #0x0002
   1E6F E5            [11] 4649 	push	hl
   1E70 3E 02         [ 7] 4650 	ld	a, #0x02
   1E72 F5            [11] 4651 	push	af
   1E73 33            [ 6] 4652 	inc	sp
   1E74 DD 6E 06      [19] 4653 	ld	l,6 (ix)
   1E77 DD 66 07      [19] 4654 	ld	h,7 (ix)
   1E7A E5            [11] 4655 	push	hl
   1E7B CDrFEr01      [17] 4656 	call	_createRoca
   1E7E 21 07 00      [10] 4657 	ld	hl, #7
   1E81 39            [11] 4658 	add	hl, sp
   1E82 F9            [ 6] 4659 	ld	sp, hl
                           4660 ;src/niveles/niveles.c:515: createRoca(rocas,2,3,sin_Movimiento, sprite_Muro_Solid1,1);
   1E83 21 1D 01      [10] 4661 	ld	hl, #0x011d
   1E86 E5            [11] 4662 	push	hl
   1E87 21 03 00      [10] 4663 	ld	hl, #0x0003
   1E8A E5            [11] 4664 	push	hl
   1E8B 3E 02         [ 7] 4665 	ld	a, #0x02
   1E8D F5            [11] 4666 	push	af
   1E8E 33            [ 6] 4667 	inc	sp
   1E8F DD 6E 06      [19] 4668 	ld	l,6 (ix)
   1E92 DD 66 07      [19] 4669 	ld	h,7 (ix)
   1E95 E5            [11] 4670 	push	hl
   1E96 CDrFEr01      [17] 4671 	call	_createRoca
   1E99 21 07 00      [10] 4672 	ld	hl, #7
   1E9C 39            [11] 4673 	add	hl, sp
   1E9D F9            [ 6] 4674 	ld	sp, hl
                           4675 ;src/niveles/niveles.c:516: createRoca(rocas,2,4,sin_Movimiento, sprite_Muro_Solid1,1);
   1E9E 21 1D 01      [10] 4676 	ld	hl, #0x011d
   1EA1 E5            [11] 4677 	push	hl
   1EA2 21 04 00      [10] 4678 	ld	hl, #0x0004
   1EA5 E5            [11] 4679 	push	hl
   1EA6 3E 02         [ 7] 4680 	ld	a, #0x02
   1EA8 F5            [11] 4681 	push	af
   1EA9 33            [ 6] 4682 	inc	sp
   1EAA DD 6E 06      [19] 4683 	ld	l,6 (ix)
   1EAD DD 66 07      [19] 4684 	ld	h,7 (ix)
   1EB0 E5            [11] 4685 	push	hl
   1EB1 CDrFEr01      [17] 4686 	call	_createRoca
   1EB4 21 07 00      [10] 4687 	ld	hl, #7
   1EB7 39            [11] 4688 	add	hl, sp
   1EB8 F9            [ 6] 4689 	ld	sp, hl
                           4690 ;src/niveles/niveles.c:517: createRoca(rocas,2,5,sin_Movimiento, sprite_Muro_Solid1,1);
   1EB9 21 1D 01      [10] 4691 	ld	hl, #0x011d
   1EBC E5            [11] 4692 	push	hl
   1EBD 21 05 00      [10] 4693 	ld	hl, #0x0005
   1EC0 E5            [11] 4694 	push	hl
   1EC1 3E 02         [ 7] 4695 	ld	a, #0x02
   1EC3 F5            [11] 4696 	push	af
   1EC4 33            [ 6] 4697 	inc	sp
   1EC5 DD 6E 06      [19] 4698 	ld	l,6 (ix)
   1EC8 DD 66 07      [19] 4699 	ld	h,7 (ix)
   1ECB E5            [11] 4700 	push	hl
   1ECC CDrFEr01      [17] 4701 	call	_createRoca
   1ECF 21 07 00      [10] 4702 	ld	hl, #7
   1ED2 39            [11] 4703 	add	hl, sp
   1ED3 F9            [ 6] 4704 	ld	sp, hl
                           4705 ;src/niveles/niveles.c:518: createRoca(rocas,2,6,sin_Movimiento, sprite_Muro_Solid1,1);
   1ED4 21 1D 01      [10] 4706 	ld	hl, #0x011d
   1ED7 E5            [11] 4707 	push	hl
   1ED8 21 06 00      [10] 4708 	ld	hl, #0x0006
   1EDB E5            [11] 4709 	push	hl
   1EDC 3E 02         [ 7] 4710 	ld	a, #0x02
   1EDE F5            [11] 4711 	push	af
   1EDF 33            [ 6] 4712 	inc	sp
   1EE0 DD 6E 06      [19] 4713 	ld	l,6 (ix)
   1EE3 DD 66 07      [19] 4714 	ld	h,7 (ix)
   1EE6 E5            [11] 4715 	push	hl
   1EE7 CDrFEr01      [17] 4716 	call	_createRoca
   1EEA 21 07 00      [10] 4717 	ld	hl, #7
   1EED 39            [11] 4718 	add	hl, sp
   1EEE F9            [ 6] 4719 	ld	sp, hl
                           4720 ;src/niveles/niveles.c:519: createRoca(rocas,2,7,sin_Movimiento, sprite_Muro_Solid1,1);
   1EEF 21 1D 01      [10] 4721 	ld	hl, #0x011d
   1EF2 E5            [11] 4722 	push	hl
   1EF3 21 07 00      [10] 4723 	ld	hl, #0x0007
   1EF6 E5            [11] 4724 	push	hl
   1EF7 3E 02         [ 7] 4725 	ld	a, #0x02
   1EF9 F5            [11] 4726 	push	af
   1EFA 33            [ 6] 4727 	inc	sp
   1EFB DD 6E 06      [19] 4728 	ld	l,6 (ix)
   1EFE DD 66 07      [19] 4729 	ld	h,7 (ix)
   1F01 E5            [11] 4730 	push	hl
   1F02 CDrFEr01      [17] 4731 	call	_createRoca
   1F05 21 07 00      [10] 4732 	ld	hl, #7
   1F08 39            [11] 4733 	add	hl, sp
   1F09 F9            [ 6] 4734 	ld	sp, hl
                           4735 ;src/niveles/niveles.c:520: createRoca(rocas,3,1,sin_Movimiento, sprite_Muro_Solid1,1);
   1F0A 21 1D 01      [10] 4736 	ld	hl, #0x011d
   1F0D E5            [11] 4737 	push	hl
   1F0E 21 01 00      [10] 4738 	ld	hl, #0x0001
   1F11 E5            [11] 4739 	push	hl
   1F12 3E 03         [ 7] 4740 	ld	a, #0x03
   1F14 F5            [11] 4741 	push	af
   1F15 33            [ 6] 4742 	inc	sp
   1F16 DD 6E 06      [19] 4743 	ld	l,6 (ix)
   1F19 DD 66 07      [19] 4744 	ld	h,7 (ix)
   1F1C E5            [11] 4745 	push	hl
   1F1D CDrFEr01      [17] 4746 	call	_createRoca
   1F20 21 07 00      [10] 4747 	ld	hl, #7
   1F23 39            [11] 4748 	add	hl, sp
   1F24 F9            [ 6] 4749 	ld	sp, hl
                           4750 ;src/niveles/niveles.c:521: createRoca(rocas,4,1,sin_Movimiento, sprite_Muro_Solid1,1);
   1F25 21 1D 01      [10] 4751 	ld	hl, #0x011d
   1F28 E5            [11] 4752 	push	hl
   1F29 21 01 00      [10] 4753 	ld	hl, #0x0001
   1F2C E5            [11] 4754 	push	hl
   1F2D 3E 04         [ 7] 4755 	ld	a, #0x04
   1F2F F5            [11] 4756 	push	af
   1F30 33            [ 6] 4757 	inc	sp
   1F31 DD 6E 06      [19] 4758 	ld	l,6 (ix)
   1F34 DD 66 07      [19] 4759 	ld	h,7 (ix)
   1F37 E5            [11] 4760 	push	hl
   1F38 CDrFEr01      [17] 4761 	call	_createRoca
   1F3B 21 07 00      [10] 4762 	ld	hl, #7
   1F3E 39            [11] 4763 	add	hl, sp
   1F3F F9            [ 6] 4764 	ld	sp, hl
                           4765 ;src/niveles/niveles.c:522: createRoca(rocas,5,1,sin_Movimiento, sprite_Muro_Solid1,1);
   1F40 21 1D 01      [10] 4766 	ld	hl, #0x011d
   1F43 E5            [11] 4767 	push	hl
   1F44 21 01 00      [10] 4768 	ld	hl, #0x0001
   1F47 E5            [11] 4769 	push	hl
   1F48 3E 05         [ 7] 4770 	ld	a, #0x05
   1F4A F5            [11] 4771 	push	af
   1F4B 33            [ 6] 4772 	inc	sp
   1F4C DD 6E 06      [19] 4773 	ld	l,6 (ix)
   1F4F DD 66 07      [19] 4774 	ld	h,7 (ix)
   1F52 E5            [11] 4775 	push	hl
   1F53 CDrFEr01      [17] 4776 	call	_createRoca
   1F56 21 07 00      [10] 4777 	ld	hl, #7
   1F59 39            [11] 4778 	add	hl, sp
   1F5A F9            [ 6] 4779 	ld	sp, hl
                           4780 ;src/niveles/niveles.c:523: createRoca(rocas,5,2,sin_Movimiento, sprite_Muro_Solid1,1);
   1F5B 21 1D 01      [10] 4781 	ld	hl, #0x011d
   1F5E E5            [11] 4782 	push	hl
   1F5F 21 02 00      [10] 4783 	ld	hl, #0x0002
   1F62 E5            [11] 4784 	push	hl
   1F63 3E 05         [ 7] 4785 	ld	a, #0x05
   1F65 F5            [11] 4786 	push	af
   1F66 33            [ 6] 4787 	inc	sp
   1F67 DD 6E 06      [19] 4788 	ld	l,6 (ix)
   1F6A DD 66 07      [19] 4789 	ld	h,7 (ix)
   1F6D E5            [11] 4790 	push	hl
   1F6E CDrFEr01      [17] 4791 	call	_createRoca
   1F71 21 07 00      [10] 4792 	ld	hl, #7
   1F74 39            [11] 4793 	add	hl, sp
   1F75 F9            [ 6] 4794 	ld	sp, hl
                           4795 ;src/niveles/niveles.c:524: createRoca(rocas,6,2,sin_Movimiento, sprite_Muro_Solid1,1);
   1F76 21 1D 01      [10] 4796 	ld	hl, #0x011d
   1F79 E5            [11] 4797 	push	hl
   1F7A 21 02 00      [10] 4798 	ld	hl, #0x0002
   1F7D E5            [11] 4799 	push	hl
   1F7E 3E 06         [ 7] 4800 	ld	a, #0x06
   1F80 F5            [11] 4801 	push	af
   1F81 33            [ 6] 4802 	inc	sp
   1F82 DD 6E 06      [19] 4803 	ld	l,6 (ix)
   1F85 DD 66 07      [19] 4804 	ld	h,7 (ix)
   1F88 E5            [11] 4805 	push	hl
   1F89 CDrFEr01      [17] 4806 	call	_createRoca
   1F8C 21 07 00      [10] 4807 	ld	hl, #7
   1F8F 39            [11] 4808 	add	hl, sp
   1F90 F9            [ 6] 4809 	ld	sp, hl
                           4810 ;src/niveles/niveles.c:525: createRoca(rocas,7,2,sin_Movimiento, sprite_Muro_Solid1,1);
   1F91 21 1D 01      [10] 4811 	ld	hl, #0x011d
   1F94 E5            [11] 4812 	push	hl
   1F95 21 02 00      [10] 4813 	ld	hl, #0x0002
   1F98 E5            [11] 4814 	push	hl
   1F99 3E 07         [ 7] 4815 	ld	a, #0x07
   1F9B F5            [11] 4816 	push	af
   1F9C 33            [ 6] 4817 	inc	sp
   1F9D DD 6E 06      [19] 4818 	ld	l,6 (ix)
   1FA0 DD 66 07      [19] 4819 	ld	h,7 (ix)
   1FA3 E5            [11] 4820 	push	hl
   1FA4 CDrFEr01      [17] 4821 	call	_createRoca
   1FA7 21 07 00      [10] 4822 	ld	hl, #7
   1FAA 39            [11] 4823 	add	hl, sp
   1FAB F9            [ 6] 4824 	ld	sp, hl
                           4825 ;src/niveles/niveles.c:526: createRoca(rocas,3,7,sin_Movimiento, sprite_Muro_Solid1,1);
   1FAC 21 1D 01      [10] 4826 	ld	hl, #0x011d
   1FAF E5            [11] 4827 	push	hl
   1FB0 21 07 00      [10] 4828 	ld	hl, #0x0007
   1FB3 E5            [11] 4829 	push	hl
   1FB4 3E 03         [ 7] 4830 	ld	a, #0x03
   1FB6 F5            [11] 4831 	push	af
   1FB7 33            [ 6] 4832 	inc	sp
   1FB8 DD 6E 06      [19] 4833 	ld	l,6 (ix)
   1FBB DD 66 07      [19] 4834 	ld	h,7 (ix)
   1FBE E5            [11] 4835 	push	hl
   1FBF CDrFEr01      [17] 4836 	call	_createRoca
   1FC2 21 07 00      [10] 4837 	ld	hl, #7
   1FC5 39            [11] 4838 	add	hl, sp
   1FC6 F9            [ 6] 4839 	ld	sp, hl
                           4840 ;src/niveles/niveles.c:527: createRoca(rocas,4,7,sin_Movimiento, sprite_Muro_Solid1,1);
   1FC7 21 1D 01      [10] 4841 	ld	hl, #0x011d
   1FCA E5            [11] 4842 	push	hl
   1FCB 21 07 00      [10] 4843 	ld	hl, #0x0007
   1FCE E5            [11] 4844 	push	hl
   1FCF 3E 04         [ 7] 4845 	ld	a, #0x04
   1FD1 F5            [11] 4846 	push	af
   1FD2 33            [ 6] 4847 	inc	sp
   1FD3 DD 6E 06      [19] 4848 	ld	l,6 (ix)
   1FD6 DD 66 07      [19] 4849 	ld	h,7 (ix)
   1FD9 E5            [11] 4850 	push	hl
   1FDA CDrFEr01      [17] 4851 	call	_createRoca
   1FDD 21 07 00      [10] 4852 	ld	hl, #7
   1FE0 39            [11] 4853 	add	hl, sp
   1FE1 F9            [ 6] 4854 	ld	sp, hl
                           4855 ;src/niveles/niveles.c:528: createRoca(rocas,5,7,sin_Movimiento, sprite_Muro_Solid1,1);
   1FE2 21 1D 01      [10] 4856 	ld	hl, #0x011d
   1FE5 E5            [11] 4857 	push	hl
   1FE6 21 07 00      [10] 4858 	ld	hl, #0x0007
   1FE9 E5            [11] 4859 	push	hl
   1FEA 3E 05         [ 7] 4860 	ld	a, #0x05
   1FEC F5            [11] 4861 	push	af
   1FED 33            [ 6] 4862 	inc	sp
   1FEE DD 6E 06      [19] 4863 	ld	l,6 (ix)
   1FF1 DD 66 07      [19] 4864 	ld	h,7 (ix)
   1FF4 E5            [11] 4865 	push	hl
   1FF5 CDrFEr01      [17] 4866 	call	_createRoca
   1FF8 21 07 00      [10] 4867 	ld	hl, #7
   1FFB 39            [11] 4868 	add	hl, sp
   1FFC F9            [ 6] 4869 	ld	sp, hl
                           4870 ;src/niveles/niveles.c:529: createRoca(rocas,5,6,sin_Movimiento, sprite_Muro_Solid1,1);
   1FFD 21 1D 01      [10] 4871 	ld	hl, #0x011d
   2000 E5            [11] 4872 	push	hl
   2001 21 06 00      [10] 4873 	ld	hl, #0x0006
   2004 E5            [11] 4874 	push	hl
   2005 3E 05         [ 7] 4875 	ld	a, #0x05
   2007 F5            [11] 4876 	push	af
   2008 33            [ 6] 4877 	inc	sp
   2009 DD 6E 06      [19] 4878 	ld	l,6 (ix)
   200C DD 66 07      [19] 4879 	ld	h,7 (ix)
   200F E5            [11] 4880 	push	hl
   2010 CDrFEr01      [17] 4881 	call	_createRoca
   2013 21 07 00      [10] 4882 	ld	hl, #7
   2016 39            [11] 4883 	add	hl, sp
   2017 F9            [ 6] 4884 	ld	sp, hl
                           4885 ;src/niveles/niveles.c:530: createRoca(rocas,6,6,sin_Movimiento, sprite_Muro_Solid1,1);
   2018 21 1D 01      [10] 4886 	ld	hl, #0x011d
   201B E5            [11] 4887 	push	hl
   201C 21 06 00      [10] 4888 	ld	hl, #0x0006
   201F E5            [11] 4889 	push	hl
   2020 3E 06         [ 7] 4890 	ld	a, #0x06
   2022 F5            [11] 4891 	push	af
   2023 33            [ 6] 4892 	inc	sp
   2024 DD 6E 06      [19] 4893 	ld	l,6 (ix)
   2027 DD 66 07      [19] 4894 	ld	h,7 (ix)
   202A E5            [11] 4895 	push	hl
   202B CDrFEr01      [17] 4896 	call	_createRoca
   202E 21 07 00      [10] 4897 	ld	hl, #7
   2031 39            [11] 4898 	add	hl, sp
   2032 F9            [ 6] 4899 	ld	sp, hl
                           4900 ;src/niveles/niveles.c:531: createRoca(rocas,7,6,sin_Movimiento, sprite_Muro_Solid1,1);
   2033 21 1D 01      [10] 4901 	ld	hl, #0x011d
   2036 E5            [11] 4902 	push	hl
   2037 21 06 00      [10] 4903 	ld	hl, #0x0006
   203A E5            [11] 4904 	push	hl
   203B 3E 07         [ 7] 4905 	ld	a, #0x07
   203D F5            [11] 4906 	push	af
   203E 33            [ 6] 4907 	inc	sp
   203F DD 6E 06      [19] 4908 	ld	l,6 (ix)
   2042 DD 66 07      [19] 4909 	ld	h,7 (ix)
   2045 E5            [11] 4910 	push	hl
   2046 CDrFEr01      [17] 4911 	call	_createRoca
   2049 21 07 00      [10] 4912 	ld	hl, #7
   204C 39            [11] 4913 	add	hl, sp
   204D F9            [ 6] 4914 	ld	sp, hl
                           4915 ;src/niveles/niveles.c:532: createRoca(rocas,8,2,sin_Movimiento, sprite_Muro_Solid1,1);
   204E 21 1D 01      [10] 4916 	ld	hl, #0x011d
   2051 E5            [11] 4917 	push	hl
   2052 21 02 00      [10] 4918 	ld	hl, #0x0002
   2055 E5            [11] 4919 	push	hl
   2056 3E 08         [ 7] 4920 	ld	a, #0x08
   2058 F5            [11] 4921 	push	af
   2059 33            [ 6] 4922 	inc	sp
   205A DD 6E 06      [19] 4923 	ld	l,6 (ix)
   205D DD 66 07      [19] 4924 	ld	h,7 (ix)
   2060 E5            [11] 4925 	push	hl
   2061 CDrFEr01      [17] 4926 	call	_createRoca
   2064 21 07 00      [10] 4927 	ld	hl, #7
   2067 39            [11] 4928 	add	hl, sp
   2068 F9            [ 6] 4929 	ld	sp, hl
                           4930 ;src/niveles/niveles.c:533: createRoca(rocas,8,3,sin_Movimiento, sprite_Muro_Solid1,1);
   2069 21 1D 01      [10] 4931 	ld	hl, #0x011d
   206C E5            [11] 4932 	push	hl
   206D 21 03 00      [10] 4933 	ld	hl, #0x0003
   2070 E5            [11] 4934 	push	hl
   2071 3E 08         [ 7] 4935 	ld	a, #0x08
   2073 F5            [11] 4936 	push	af
   2074 33            [ 6] 4937 	inc	sp
   2075 DD 6E 06      [19] 4938 	ld	l,6 (ix)
   2078 DD 66 07      [19] 4939 	ld	h,7 (ix)
   207B E5            [11] 4940 	push	hl
   207C CDrFEr01      [17] 4941 	call	_createRoca
   207F 21 07 00      [10] 4942 	ld	hl, #7
   2082 39            [11] 4943 	add	hl, sp
   2083 F9            [ 6] 4944 	ld	sp, hl
                           4945 ;src/niveles/niveles.c:534: createRoca(rocas,8,5,sin_Movimiento, sprite_Muro_Solid1,1);
   2084 21 1D 01      [10] 4946 	ld	hl, #0x011d
   2087 E5            [11] 4947 	push	hl
   2088 21 05 00      [10] 4948 	ld	hl, #0x0005
   208B E5            [11] 4949 	push	hl
   208C 3E 08         [ 7] 4950 	ld	a, #0x08
   208E F5            [11] 4951 	push	af
   208F 33            [ 6] 4952 	inc	sp
   2090 DD 6E 06      [19] 4953 	ld	l,6 (ix)
   2093 DD 66 07      [19] 4954 	ld	h,7 (ix)
   2096 E5            [11] 4955 	push	hl
   2097 CDrFEr01      [17] 4956 	call	_createRoca
   209A 21 07 00      [10] 4957 	ld	hl, #7
   209D 39            [11] 4958 	add	hl, sp
   209E F9            [ 6] 4959 	ld	sp, hl
                           4960 ;src/niveles/niveles.c:535: createRoca(rocas,8,6,sin_Movimiento, sprite_Muro_Solid1,1);
   209F 21 1D 01      [10] 4961 	ld	hl, #0x011d
   20A2 E5            [11] 4962 	push	hl
   20A3 21 06 00      [10] 4963 	ld	hl, #0x0006
   20A6 E5            [11] 4964 	push	hl
   20A7 3E 08         [ 7] 4965 	ld	a, #0x08
   20A9 F5            [11] 4966 	push	af
   20AA 33            [ 6] 4967 	inc	sp
   20AB DD 6E 06      [19] 4968 	ld	l,6 (ix)
   20AE DD 66 07      [19] 4969 	ld	h,7 (ix)
   20B1 E5            [11] 4970 	push	hl
   20B2 CDrFEr01      [17] 4971 	call	_createRoca
   20B5 21 07 00      [10] 4972 	ld	hl, #7
   20B8 39            [11] 4973 	add	hl, sp
   20B9 F9            [ 6] 4974 	ld	sp, hl
                           4975 ;src/niveles/niveles.c:536: createRoca(rocas,3,3,sin_Movimiento,sprite_RockInmovil5_G,1);
   20BA 21 0F 01      [10] 4976 	ld	hl, #0x010f
   20BD E5            [11] 4977 	push	hl
   20BE 21 03 00      [10] 4978 	ld	hl, #0x0003
   20C1 E5            [11] 4979 	push	hl
   20C2 3E 03         [ 7] 4980 	ld	a, #0x03
   20C4 F5            [11] 4981 	push	af
   20C5 33            [ 6] 4982 	inc	sp
   20C6 DD 6E 06      [19] 4983 	ld	l,6 (ix)
   20C9 DD 66 07      [19] 4984 	ld	h,7 (ix)
   20CC E5            [11] 4985 	push	hl
   20CD CDrFEr01      [17] 4986 	call	_createRoca
   20D0 21 07 00      [10] 4987 	ld	hl, #7
   20D3 39            [11] 4988 	add	hl, sp
   20D4 F9            [ 6] 4989 	ld	sp, hl
                           4990 ;src/niveles/niveles.c:541: createRocaEspejo(rocasEspejo,14,1,sin_Movimiento, sprite_Muro_Solid1,1);
   20D5 21 1D 01      [10] 4991 	ld	hl, #0x011d
   20D8 E5            [11] 4992 	push	hl
   20D9 21 01 00      [10] 4993 	ld	hl, #0x0001
   20DC E5            [11] 4994 	push	hl
   20DD 3E 0E         [ 7] 4995 	ld	a, #0x0e
   20DF F5            [11] 4996 	push	af
   20E0 33            [ 6] 4997 	inc	sp
   20E1 DD 6E 08      [19] 4998 	ld	l,8 (ix)
   20E4 DD 66 09      [19] 4999 	ld	h,9 (ix)
   20E7 E5            [11] 5000 	push	hl
   20E8 CDr94r02      [17] 5001 	call	_createRocaEspejo
   20EB 21 07 00      [10] 5002 	ld	hl, #7
   20EE 39            [11] 5003 	add	hl, sp
   20EF F9            [ 6] 5004 	ld	sp, hl
                           5005 ;src/niveles/niveles.c:542: createRocaEspejo(rocasEspejo,14,2,sin_Movimiento, sprite_Muro_Solid1,1);
   20F0 21 1D 01      [10] 5006 	ld	hl, #0x011d
   20F3 E5            [11] 5007 	push	hl
   20F4 21 02 00      [10] 5008 	ld	hl, #0x0002
   20F7 E5            [11] 5009 	push	hl
   20F8 3E 0E         [ 7] 5010 	ld	a, #0x0e
   20FA F5            [11] 5011 	push	af
   20FB 33            [ 6] 5012 	inc	sp
   20FC DD 6E 08      [19] 5013 	ld	l,8 (ix)
   20FF DD 66 09      [19] 5014 	ld	h,9 (ix)
   2102 E5            [11] 5015 	push	hl
   2103 CDr94r02      [17] 5016 	call	_createRocaEspejo
   2106 21 07 00      [10] 5017 	ld	hl, #7
   2109 39            [11] 5018 	add	hl, sp
   210A F9            [ 6] 5019 	ld	sp, hl
                           5020 ;src/niveles/niveles.c:543: createRocaEspejo(rocasEspejo,14,3,sin_Movimiento, sprite_Muro_Solid1,1);
   210B 21 1D 01      [10] 5021 	ld	hl, #0x011d
   210E E5            [11] 5022 	push	hl
   210F 21 03 00      [10] 5023 	ld	hl, #0x0003
   2112 E5            [11] 5024 	push	hl
   2113 3E 0E         [ 7] 5025 	ld	a, #0x0e
   2115 F5            [11] 5026 	push	af
   2116 33            [ 6] 5027 	inc	sp
   2117 DD 6E 08      [19] 5028 	ld	l,8 (ix)
   211A DD 66 09      [19] 5029 	ld	h,9 (ix)
   211D E5            [11] 5030 	push	hl
   211E CDr94r02      [17] 5031 	call	_createRocaEspejo
   2121 21 07 00      [10] 5032 	ld	hl, #7
   2124 39            [11] 5033 	add	hl, sp
   2125 F9            [ 6] 5034 	ld	sp, hl
                           5035 ;src/niveles/niveles.c:544: createRocaEspejo(rocasEspejo,14,4,sin_Movimiento, sprite_Muro_Solid1,1);
   2126 21 1D 01      [10] 5036 	ld	hl, #0x011d
   2129 E5            [11] 5037 	push	hl
   212A 21 04 00      [10] 5038 	ld	hl, #0x0004
   212D E5            [11] 5039 	push	hl
   212E 3E 0E         [ 7] 5040 	ld	a, #0x0e
   2130 F5            [11] 5041 	push	af
   2131 33            [ 6] 5042 	inc	sp
   2132 DD 6E 08      [19] 5043 	ld	l,8 (ix)
   2135 DD 66 09      [19] 5044 	ld	h,9 (ix)
   2138 E5            [11] 5045 	push	hl
   2139 CDr94r02      [17] 5046 	call	_createRocaEspejo
   213C 21 07 00      [10] 5047 	ld	hl, #7
   213F 39            [11] 5048 	add	hl, sp
   2140 F9            [ 6] 5049 	ld	sp, hl
                           5050 ;src/niveles/niveles.c:545: createRocaEspejo(rocasEspejo,14,5,sin_Movimiento, sprite_Muro_Solid1,1);
   2141 21 1D 01      [10] 5051 	ld	hl, #0x011d
   2144 E5            [11] 5052 	push	hl
   2145 21 05 00      [10] 5053 	ld	hl, #0x0005
   2148 E5            [11] 5054 	push	hl
   2149 3E 0E         [ 7] 5055 	ld	a, #0x0e
   214B F5            [11] 5056 	push	af
   214C 33            [ 6] 5057 	inc	sp
   214D DD 6E 08      [19] 5058 	ld	l,8 (ix)
   2150 DD 66 09      [19] 5059 	ld	h,9 (ix)
   2153 E5            [11] 5060 	push	hl
   2154 CDr94r02      [17] 5061 	call	_createRocaEspejo
   2157 21 07 00      [10] 5062 	ld	hl, #7
   215A 39            [11] 5063 	add	hl, sp
   215B F9            [ 6] 5064 	ld	sp, hl
                           5065 ;src/niveles/niveles.c:546: createRocaEspejo(rocasEspejo,14,6,sin_Movimiento, sprite_Muro_Solid1,1);
   215C 21 1D 01      [10] 5066 	ld	hl, #0x011d
   215F E5            [11] 5067 	push	hl
   2160 21 06 00      [10] 5068 	ld	hl, #0x0006
   2163 E5            [11] 5069 	push	hl
   2164 3E 0E         [ 7] 5070 	ld	a, #0x0e
   2166 F5            [11] 5071 	push	af
   2167 33            [ 6] 5072 	inc	sp
   2168 DD 6E 08      [19] 5073 	ld	l,8 (ix)
   216B DD 66 09      [19] 5074 	ld	h,9 (ix)
   216E E5            [11] 5075 	push	hl
   216F CDr94r02      [17] 5076 	call	_createRocaEspejo
   2172 21 07 00      [10] 5077 	ld	hl, #7
   2175 39            [11] 5078 	add	hl, sp
   2176 F9            [ 6] 5079 	ld	sp, hl
                           5080 ;src/niveles/niveles.c:547: createRocaEspejo(rocasEspejo,14,7,sin_Movimiento, sprite_Muro_Solid1,1);
   2177 21 1D 01      [10] 5081 	ld	hl, #0x011d
   217A E5            [11] 5082 	push	hl
   217B 21 07 00      [10] 5083 	ld	hl, #0x0007
   217E E5            [11] 5084 	push	hl
   217F 3E 0E         [ 7] 5085 	ld	a, #0x0e
   2181 F5            [11] 5086 	push	af
   2182 33            [ 6] 5087 	inc	sp
   2183 DD 6E 08      [19] 5088 	ld	l,8 (ix)
   2186 DD 66 09      [19] 5089 	ld	h,9 (ix)
   2189 E5            [11] 5090 	push	hl
   218A CDr94r02      [17] 5091 	call	_createRocaEspejo
   218D 21 07 00      [10] 5092 	ld	hl, #7
   2190 39            [11] 5093 	add	hl, sp
   2191 F9            [ 6] 5094 	ld	sp, hl
                           5095 ;src/niveles/niveles.c:548: createRocaEspejo(rocasEspejo,11,1,sin_Movimiento, sprite_Muro_Solid1,1);
   2192 21 1D 01      [10] 5096 	ld	hl, #0x011d
   2195 E5            [11] 5097 	push	hl
   2196 21 01 00      [10] 5098 	ld	hl, #0x0001
   2199 E5            [11] 5099 	push	hl
   219A 3E 0B         [ 7] 5100 	ld	a, #0x0b
   219C F5            [11] 5101 	push	af
   219D 33            [ 6] 5102 	inc	sp
   219E DD 6E 08      [19] 5103 	ld	l,8 (ix)
   21A1 DD 66 09      [19] 5104 	ld	h,9 (ix)
   21A4 E5            [11] 5105 	push	hl
   21A5 CDr94r02      [17] 5106 	call	_createRocaEspejo
   21A8 21 07 00      [10] 5107 	ld	hl, #7
   21AB 39            [11] 5108 	add	hl, sp
   21AC F9            [ 6] 5109 	ld	sp, hl
                           5110 ;src/niveles/niveles.c:549: createRocaEspejo(rocasEspejo,12,1,sin_Movimiento, sprite_Muro_Solid1,1);
   21AD 21 1D 01      [10] 5111 	ld	hl, #0x011d
   21B0 E5            [11] 5112 	push	hl
   21B1 21 01 00      [10] 5113 	ld	hl, #0x0001
   21B4 E5            [11] 5114 	push	hl
   21B5 3E 0C         [ 7] 5115 	ld	a, #0x0c
   21B7 F5            [11] 5116 	push	af
   21B8 33            [ 6] 5117 	inc	sp
   21B9 DD 6E 08      [19] 5118 	ld	l,8 (ix)
   21BC DD 66 09      [19] 5119 	ld	h,9 (ix)
   21BF E5            [11] 5120 	push	hl
   21C0 CDr94r02      [17] 5121 	call	_createRocaEspejo
   21C3 21 07 00      [10] 5122 	ld	hl, #7
   21C6 39            [11] 5123 	add	hl, sp
   21C7 F9            [ 6] 5124 	ld	sp, hl
                           5125 ;src/niveles/niveles.c:550: createRocaEspejo(rocasEspejo,13,1,sin_Movimiento, sprite_Muro_Solid1,1);
   21C8 21 1D 01      [10] 5126 	ld	hl, #0x011d
   21CB E5            [11] 5127 	push	hl
   21CC 21 01 00      [10] 5128 	ld	hl, #0x0001
   21CF E5            [11] 5129 	push	hl
   21D0 3E 0D         [ 7] 5130 	ld	a, #0x0d
   21D2 F5            [11] 5131 	push	af
   21D3 33            [ 6] 5132 	inc	sp
   21D4 DD 6E 08      [19] 5133 	ld	l,8 (ix)
   21D7 DD 66 09      [19] 5134 	ld	h,9 (ix)
   21DA E5            [11] 5135 	push	hl
   21DB CDr94r02      [17] 5136 	call	_createRocaEspejo
   21DE 21 07 00      [10] 5137 	ld	hl, #7
   21E1 39            [11] 5138 	add	hl, sp
   21E2 F9            [ 6] 5139 	ld	sp, hl
                           5140 ;src/niveles/niveles.c:551: createRocaEspejo(rocasEspejo,11,2,sin_Movimiento, sprite_Muro_Solid1,1);
   21E3 21 1D 01      [10] 5141 	ld	hl, #0x011d
   21E6 E5            [11] 5142 	push	hl
   21E7 21 02 00      [10] 5143 	ld	hl, #0x0002
   21EA E5            [11] 5144 	push	hl
   21EB 3E 0B         [ 7] 5145 	ld	a, #0x0b
   21ED F5            [11] 5146 	push	af
   21EE 33            [ 6] 5147 	inc	sp
   21EF DD 6E 08      [19] 5148 	ld	l,8 (ix)
   21F2 DD 66 09      [19] 5149 	ld	h,9 (ix)
   21F5 E5            [11] 5150 	push	hl
   21F6 CDr94r02      [17] 5151 	call	_createRocaEspejo
   21F9 21 07 00      [10] 5152 	ld	hl, #7
   21FC 39            [11] 5153 	add	hl, sp
   21FD F9            [ 6] 5154 	ld	sp, hl
                           5155 ;src/niveles/niveles.c:552: createRocaEspejo(rocasEspejo,10,2,sin_Movimiento, sprite_Muro_Solid1,1);
   21FE 21 1D 01      [10] 5156 	ld	hl, #0x011d
   2201 E5            [11] 5157 	push	hl
   2202 21 02 00      [10] 5158 	ld	hl, #0x0002
   2205 E5            [11] 5159 	push	hl
   2206 3E 0A         [ 7] 5160 	ld	a, #0x0a
   2208 F5            [11] 5161 	push	af
   2209 33            [ 6] 5162 	inc	sp
   220A DD 6E 08      [19] 5163 	ld	l,8 (ix)
   220D DD 66 09      [19] 5164 	ld	h,9 (ix)
   2210 E5            [11] 5165 	push	hl
   2211 CDr94r02      [17] 5166 	call	_createRocaEspejo
   2214 21 07 00      [10] 5167 	ld	hl, #7
   2217 39            [11] 5168 	add	hl, sp
   2218 F9            [ 6] 5169 	ld	sp, hl
                           5170 ;src/niveles/niveles.c:553: createRocaEspejo(rocasEspejo,9,2,sin_Movimiento, sprite_Muro_Solid1,1);
   2219 21 1D 01      [10] 5171 	ld	hl, #0x011d
   221C E5            [11] 5172 	push	hl
   221D 21 02 00      [10] 5173 	ld	hl, #0x0002
   2220 E5            [11] 5174 	push	hl
   2221 3E 09         [ 7] 5175 	ld	a, #0x09
   2223 F5            [11] 5176 	push	af
   2224 33            [ 6] 5177 	inc	sp
   2225 DD 6E 08      [19] 5178 	ld	l,8 (ix)
   2228 DD 66 09      [19] 5179 	ld	h,9 (ix)
   222B E5            [11] 5180 	push	hl
   222C CDr94r02      [17] 5181 	call	_createRocaEspejo
   222F 21 07 00      [10] 5182 	ld	hl, #7
   2232 39            [11] 5183 	add	hl, sp
   2233 F9            [ 6] 5184 	ld	sp, hl
                           5185 ;src/niveles/niveles.c:554: createRocaEspejo(rocasEspejo,11,7,sin_Movimiento, sprite_Muro_Solid1,1);
   2234 21 1D 01      [10] 5186 	ld	hl, #0x011d
   2237 E5            [11] 5187 	push	hl
   2238 21 07 00      [10] 5188 	ld	hl, #0x0007
   223B E5            [11] 5189 	push	hl
   223C 3E 0B         [ 7] 5190 	ld	a, #0x0b
   223E F5            [11] 5191 	push	af
   223F 33            [ 6] 5192 	inc	sp
   2240 DD 6E 08      [19] 5193 	ld	l,8 (ix)
   2243 DD 66 09      [19] 5194 	ld	h,9 (ix)
   2246 E5            [11] 5195 	push	hl
   2247 CDr94r02      [17] 5196 	call	_createRocaEspejo
   224A 21 07 00      [10] 5197 	ld	hl, #7
   224D 39            [11] 5198 	add	hl, sp
   224E F9            [ 6] 5199 	ld	sp, hl
                           5200 ;src/niveles/niveles.c:555: createRocaEspejo(rocasEspejo,12,7,sin_Movimiento, sprite_Muro_Solid1,1);
   224F 21 1D 01      [10] 5201 	ld	hl, #0x011d
   2252 E5            [11] 5202 	push	hl
   2253 21 07 00      [10] 5203 	ld	hl, #0x0007
   2256 E5            [11] 5204 	push	hl
   2257 3E 0C         [ 7] 5205 	ld	a, #0x0c
   2259 F5            [11] 5206 	push	af
   225A 33            [ 6] 5207 	inc	sp
   225B DD 6E 08      [19] 5208 	ld	l,8 (ix)
   225E DD 66 09      [19] 5209 	ld	h,9 (ix)
   2261 E5            [11] 5210 	push	hl
   2262 CDr94r02      [17] 5211 	call	_createRocaEspejo
   2265 21 07 00      [10] 5212 	ld	hl, #7
   2268 39            [11] 5213 	add	hl, sp
   2269 F9            [ 6] 5214 	ld	sp, hl
                           5215 ;src/niveles/niveles.c:556: createRocaEspejo(rocasEspejo,13,7,sin_Movimiento, sprite_Muro_Solid1,1);
   226A 21 1D 01      [10] 5216 	ld	hl, #0x011d
   226D E5            [11] 5217 	push	hl
   226E 21 07 00      [10] 5218 	ld	hl, #0x0007
   2271 E5            [11] 5219 	push	hl
   2272 3E 0D         [ 7] 5220 	ld	a, #0x0d
   2274 F5            [11] 5221 	push	af
   2275 33            [ 6] 5222 	inc	sp
   2276 DD 6E 08      [19] 5223 	ld	l,8 (ix)
   2279 DD 66 09      [19] 5224 	ld	h,9 (ix)
   227C E5            [11] 5225 	push	hl
   227D CDr94r02      [17] 5226 	call	_createRocaEspejo
   2280 21 07 00      [10] 5227 	ld	hl, #7
   2283 39            [11] 5228 	add	hl, sp
   2284 F9            [ 6] 5229 	ld	sp, hl
                           5230 ;src/niveles/niveles.c:557: createRocaEspejo(rocasEspejo,11,6,sin_Movimiento, sprite_Muro_Solid1,1);
   2285 21 1D 01      [10] 5231 	ld	hl, #0x011d
   2288 E5            [11] 5232 	push	hl
   2289 21 06 00      [10] 5233 	ld	hl, #0x0006
   228C E5            [11] 5234 	push	hl
   228D 3E 0B         [ 7] 5235 	ld	a, #0x0b
   228F F5            [11] 5236 	push	af
   2290 33            [ 6] 5237 	inc	sp
   2291 DD 6E 08      [19] 5238 	ld	l,8 (ix)
   2294 DD 66 09      [19] 5239 	ld	h,9 (ix)
   2297 E5            [11] 5240 	push	hl
   2298 CDr94r02      [17] 5241 	call	_createRocaEspejo
   229B 21 07 00      [10] 5242 	ld	hl, #7
   229E 39            [11] 5243 	add	hl, sp
   229F F9            [ 6] 5244 	ld	sp, hl
                           5245 ;src/niveles/niveles.c:558: createRocaEspejo(rocasEspejo,10,6,sin_Movimiento, sprite_Muro_Solid1,1);
   22A0 21 1D 01      [10] 5246 	ld	hl, #0x011d
   22A3 E5            [11] 5247 	push	hl
   22A4 21 06 00      [10] 5248 	ld	hl, #0x0006
   22A7 E5            [11] 5249 	push	hl
   22A8 3E 0A         [ 7] 5250 	ld	a, #0x0a
   22AA F5            [11] 5251 	push	af
   22AB 33            [ 6] 5252 	inc	sp
   22AC DD 6E 08      [19] 5253 	ld	l,8 (ix)
   22AF DD 66 09      [19] 5254 	ld	h,9 (ix)
   22B2 E5            [11] 5255 	push	hl
   22B3 CDr94r02      [17] 5256 	call	_createRocaEspejo
   22B6 21 07 00      [10] 5257 	ld	hl, #7
   22B9 39            [11] 5258 	add	hl, sp
   22BA F9            [ 6] 5259 	ld	sp, hl
                           5260 ;src/niveles/niveles.c:559: createRocaEspejo(rocasEspejo,9,6,sin_Movimiento, sprite_Muro_Solid1,1);
   22BB 21 1D 01      [10] 5261 	ld	hl, #0x011d
   22BE E5            [11] 5262 	push	hl
   22BF 21 06 00      [10] 5263 	ld	hl, #0x0006
   22C2 E5            [11] 5264 	push	hl
   22C3 3E 09         [ 7] 5265 	ld	a, #0x09
   22C5 F5            [11] 5266 	push	af
   22C6 33            [ 6] 5267 	inc	sp
   22C7 DD 6E 08      [19] 5268 	ld	l,8 (ix)
   22CA DD 66 09      [19] 5269 	ld	h,9 (ix)
   22CD E5            [11] 5270 	push	hl
   22CE CDr94r02      [17] 5271 	call	_createRocaEspejo
   22D1 21 07 00      [10] 5272 	ld	hl, #7
   22D4 39            [11] 5273 	add	hl, sp
   22D5 F9            [ 6] 5274 	ld	sp, hl
                           5275 ;src/niveles/niveles.c:560: createHoleDerecha(rocasEspejo,11,3,sprite_hole,1);
   22D6 21 24 01      [10] 5276 	ld	hl, #0x0124
   22D9 E5            [11] 5277 	push	hl
   22DA 21 0B 03      [10] 5278 	ld	hl, #0x030b
   22DD E5            [11] 5279 	push	hl
   22DE DD 6E 08      [19] 5280 	ld	l,8 (ix)
   22E1 DD 66 09      [19] 5281 	ld	h,9 (ix)
   22E4 E5            [11] 5282 	push	hl
   22E5 CDr83r04      [17] 5283 	call	_createHoleDerecha
   22E8 21 06 00      [10] 5284 	ld	hl, #6
   22EB 39            [11] 5285 	add	hl, sp
   22EC F9            [ 6] 5286 	ld	sp, hl
                           5287 ;src/niveles/niveles.c:561: createHoleDerecha(rocasEspejo,12,3,sprite_hole,1);
   22ED 21 24 01      [10] 5288 	ld	hl, #0x0124
   22F0 E5            [11] 5289 	push	hl
   22F1 21 0C 03      [10] 5290 	ld	hl, #0x030c
   22F4 E5            [11] 5291 	push	hl
   22F5 DD 6E 08      [19] 5292 	ld	l,8 (ix)
   22F8 DD 66 09      [19] 5293 	ld	h,9 (ix)
   22FB E5            [11] 5294 	push	hl
   22FC CDr83r04      [17] 5295 	call	_createHoleDerecha
   22FF 21 06 00      [10] 5296 	ld	hl, #6
   2302 39            [11] 5297 	add	hl, sp
   2303 F9            [ 6] 5298 	ld	sp, hl
                           5299 ;src/niveles/niveles.c:562: createRocaEspejo(rocasEspejo,13,3,sin_Movimiento,sprite_RockInmovil5_B,1);
   2304 21 10 01      [10] 5300 	ld	hl, #0x0110
   2307 E5            [11] 5301 	push	hl
   2308 21 03 00      [10] 5302 	ld	hl, #0x0003
   230B E5            [11] 5303 	push	hl
   230C 3E 0D         [ 7] 5304 	ld	a, #0x0d
   230E F5            [11] 5305 	push	af
   230F 33            [ 6] 5306 	inc	sp
   2310 DD 6E 08      [19] 5307 	ld	l,8 (ix)
   2313 DD 66 09      [19] 5308 	ld	h,9 (ix)
   2316 E5            [11] 5309 	push	hl
   2317 CDr94r02      [17] 5310 	call	_createRocaEspejo
   231A 21 07 00      [10] 5311 	ld	hl, #7
   231D 39            [11] 5312 	add	hl, sp
   231E F9            [ 6] 5313 	ld	sp, hl
   231F DD E1         [14] 5314 	pop	ix
   2321 C9            [10] 5315 	ret
                           5316 ;src/niveles/niveles.c:565: void crearNievel7(TGameObject* player,TGameObject* rocas,TGameObject* rocasEspejo,TGameObject* puertas,TGameObject* portales,TGameObjectCol* col,u8* posicion){
                           5317 ;	---------------------------------
                           5318 ; Function crearNievel7
                           5319 ; ---------------------------------
   2322                    5320 _crearNievel7::
   2322 DD E5         [15] 5321 	push	ix
   2324 DD 21 00 00   [14] 5322 	ld	ix,#0
   2328 DD 39         [15] 5323 	add	ix,sp
                           5324 ;src/niveles/niveles.c:567: createPlayer(player,7,4,posicion);
   232A DD 6E 10      [19] 5325 	ld	l,16 (ix)
   232D DD 66 11      [19] 5326 	ld	h,17 (ix)
   2330 E5            [11] 5327 	push	hl
   2331 21 07 04      [10] 5328 	ld	hl, #0x0407
   2334 E5            [11] 5329 	push	hl
   2335 DD 6E 04      [19] 5330 	ld	l,4 (ix)
   2338 DD 66 05      [19] 5331 	ld	h,5 (ix)
   233B E5            [11] 5332 	push	hl
   233C CDrBFr01      [17] 5333 	call	_createPlayer
   233F 21 06 00      [10] 5334 	ld	hl, #6
   2342 39            [11] 5335 	add	hl, sp
   2343 F9            [ 6] 5336 	ld	sp, hl
                           5337 ;src/niveles/niveles.c:568: createMarco(no);
   2344 3E 01         [ 7] 5338 	ld	a, #0x01
   2346 F5            [11] 5339 	push	af
   2347 33            [ 6] 5340 	inc	sp
   2348 CDrB0r01      [17] 5341 	call	_createMarco
   234B 33            [ 6] 5342 	inc	sp
                           5343 ;src/niveles/niveles.c:569: createPortal(portales,rocas,rocasEspejo,no);
   234C 3E 01         [ 7] 5344 	ld	a, #0x01
   234E F5            [11] 5345 	push	af
   234F 33            [ 6] 5346 	inc	sp
   2350 DD 6E 08      [19] 5347 	ld	l,8 (ix)
   2353 DD 66 09      [19] 5348 	ld	h,9 (ix)
   2356 E5            [11] 5349 	push	hl
   2357 DD 6E 06      [19] 5350 	ld	l,6 (ix)
   235A DD 66 07      [19] 5351 	ld	h,7 (ix)
   235D E5            [11] 5352 	push	hl
   235E DD 6E 0C      [19] 5353 	ld	l,12 (ix)
   2361 DD 66 0D      [19] 5354 	ld	h,13 (ix)
   2364 E5            [11] 5355 	push	hl
   2365 CDrA3r03      [17] 5356 	call	_createPortal
   2368 21 07 00      [10] 5357 	ld	hl, #7
   236B 39            [11] 5358 	add	hl, sp
   236C F9            [ 6] 5359 	ld	sp, hl
                           5360 ;src/niveles/niveles.c:570: createPuerta(puertas,8,2,sprite_Puerta_B,nivel_05);
   236D 21 1F 08      [10] 5361 	ld	hl, #0x081f
   2370 E5            [11] 5362 	push	hl
   2371 21 08 02      [10] 5363 	ld	hl, #0x0208
   2374 E5            [11] 5364 	push	hl
   2375 DD 6E 0A      [19] 5365 	ld	l,10 (ix)
   2378 DD 66 0B      [19] 5366 	ld	h,11 (ix)
   237B E5            [11] 5367 	push	hl
   237C CDr2Ar03      [17] 5368 	call	_createPuerta
   237F 21 06 00      [10] 5369 	ld	hl, #6
   2382 39            [11] 5370 	add	hl, sp
   2383 F9            [ 6] 5371 	ld	sp, hl
                           5372 ;src/niveles/niveles.c:571: createPuerta(puertas,8,6,sprite_Puerta_B,nivel_06);
   2384 21 1F 09      [10] 5373 	ld	hl, #0x091f
   2387 E5            [11] 5374 	push	hl
   2388 21 08 06      [10] 5375 	ld	hl, #0x0608
   238B E5            [11] 5376 	push	hl
   238C DD 6E 0A      [19] 5377 	ld	l,10 (ix)
   238F DD 66 0B      [19] 5378 	ld	h,11 (ix)
   2392 E5            [11] 5379 	push	hl
   2393 CDr2Ar03      [17] 5380 	call	_createPuerta
   2396 21 06 00      [10] 5381 	ld	hl, #6
   2399 39            [11] 5382 	add	hl, sp
   239A F9            [ 6] 5383 	ld	sp, hl
                           5384 ;src/niveles/niveles.c:574: createRoca(rocas,6,4,mover_1,sprite_Rock_B,1);
   239B 21 03 01      [10] 5385 	ld	hl, #0x0103
   239E E5            [11] 5386 	push	hl
   239F 2E 04         [ 7] 5387 	ld	l, #0x04
   23A1 E5            [11] 5388 	push	hl
   23A2 3E 06         [ 7] 5389 	ld	a, #0x06
   23A4 F5            [11] 5390 	push	af
   23A5 33            [ 6] 5391 	inc	sp
   23A6 DD 6E 06      [19] 5392 	ld	l,6 (ix)
   23A9 DD 66 07      [19] 5393 	ld	h,7 (ix)
   23AC E5            [11] 5394 	push	hl
   23AD CDrFEr01      [17] 5395 	call	_createRoca
   23B0 21 07 00      [10] 5396 	ld	hl, #7
   23B3 39            [11] 5397 	add	hl, sp
   23B4 F9            [ 6] 5398 	ld	sp, hl
                           5399 ;src/niveles/niveles.c:575: createRoca(rocas,6,2,mover_Linea,sprite_RockLineal1_B,1);
   23B5 21 06 01      [10] 5400 	ld	hl, #0x0106
   23B8 E5            [11] 5401 	push	hl
   23B9 21 02 02      [10] 5402 	ld	hl, #0x0202
   23BC E5            [11] 5403 	push	hl
   23BD 3E 06         [ 7] 5404 	ld	a, #0x06
   23BF F5            [11] 5405 	push	af
   23C0 33            [ 6] 5406 	inc	sp
   23C1 DD 6E 06      [19] 5407 	ld	l,6 (ix)
   23C4 DD 66 07      [19] 5408 	ld	h,7 (ix)
   23C7 E5            [11] 5409 	push	hl
   23C8 CDrFEr01      [17] 5410 	call	_createRoca
   23CB 21 07 00      [10] 5411 	ld	hl, #7
   23CE 39            [11] 5412 	add	hl, sp
   23CF F9            [ 6] 5413 	ld	sp, hl
                           5414 ;src/niveles/niveles.c:576: createRoca(rocas,6,6,mover_Linea,sprite_RockLineal1_B,1);
   23D0 21 06 01      [10] 5415 	ld	hl, #0x0106
   23D3 E5            [11] 5416 	push	hl
   23D4 26 02         [ 7] 5417 	ld	h, #0x02
   23D6 E5            [11] 5418 	push	hl
   23D7 3E 06         [ 7] 5419 	ld	a, #0x06
   23D9 F5            [11] 5420 	push	af
   23DA 33            [ 6] 5421 	inc	sp
   23DB DD 6E 06      [19] 5422 	ld	l,6 (ix)
   23DE DD 66 07      [19] 5423 	ld	h,7 (ix)
   23E1 E5            [11] 5424 	push	hl
   23E2 CDrFEr01      [17] 5425 	call	_createRoca
   23E5 21 07 00      [10] 5426 	ld	hl, #7
   23E8 39            [11] 5427 	add	hl, sp
   23E9 F9            [ 6] 5428 	ld	sp, hl
                           5429 ;src/niveles/niveles.c:577: createRoca(rocas,5,4,mover_Linea,sprite_RockLineal1_B,1);
   23EA 21 06 01      [10] 5430 	ld	hl, #0x0106
   23ED E5            [11] 5431 	push	hl
   23EE 21 04 02      [10] 5432 	ld	hl, #0x0204
   23F1 E5            [11] 5433 	push	hl
   23F2 3E 05         [ 7] 5434 	ld	a, #0x05
   23F4 F5            [11] 5435 	push	af
   23F5 33            [ 6] 5436 	inc	sp
   23F6 DD 6E 06      [19] 5437 	ld	l,6 (ix)
   23F9 DD 66 07      [19] 5438 	ld	h,7 (ix)
   23FC E5            [11] 5439 	push	hl
   23FD CDrFEr01      [17] 5440 	call	_createRoca
   2400 21 07 00      [10] 5441 	ld	hl, #7
   2403 39            [11] 5442 	add	hl, sp
   2404 F9            [ 6] 5443 	ld	sp, hl
                           5444 ;src/niveles/niveles.c:578: createRoca(rocas,4,4,mover_Linea,sprite_RockLineal1_B,1);
   2405 21 06 01      [10] 5445 	ld	hl, #0x0106
   2408 E5            [11] 5446 	push	hl
   2409 21 04 02      [10] 5447 	ld	hl, #0x0204
   240C E5            [11] 5448 	push	hl
   240D 3E 04         [ 7] 5449 	ld	a, #0x04
   240F F5            [11] 5450 	push	af
   2410 33            [ 6] 5451 	inc	sp
   2411 DD 6E 06      [19] 5452 	ld	l,6 (ix)
   2414 DD 66 07      [19] 5453 	ld	h,7 (ix)
   2417 E5            [11] 5454 	push	hl
   2418 CDrFEr01      [17] 5455 	call	_createRoca
   241B 21 07 00      [10] 5456 	ld	hl, #7
   241E 39            [11] 5457 	add	hl, sp
   241F F9            [ 6] 5458 	ld	sp, hl
                           5459 ;src/niveles/niveles.c:579: createRoca(rocas,4,3,mover_Linea,sprite_RockLineal1_B,1);
   2420 21 06 01      [10] 5460 	ld	hl, #0x0106
   2423 E5            [11] 5461 	push	hl
   2424 21 03 02      [10] 5462 	ld	hl, #0x0203
   2427 E5            [11] 5463 	push	hl
   2428 3E 04         [ 7] 5464 	ld	a, #0x04
   242A F5            [11] 5465 	push	af
   242B 33            [ 6] 5466 	inc	sp
   242C DD 6E 06      [19] 5467 	ld	l,6 (ix)
   242F DD 66 07      [19] 5468 	ld	h,7 (ix)
   2432 E5            [11] 5469 	push	hl
   2433 CDrFEr01      [17] 5470 	call	_createRoca
   2436 21 07 00      [10] 5471 	ld	hl, #7
   2439 39            [11] 5472 	add	hl, sp
   243A F9            [ 6] 5473 	ld	sp, hl
                           5474 ;src/niveles/niveles.c:580: createRoca(rocas,4,5,mover_Linea,sprite_RockLineal1_B,1);
   243B 21 06 01      [10] 5475 	ld	hl, #0x0106
   243E E5            [11] 5476 	push	hl
   243F 21 05 02      [10] 5477 	ld	hl, #0x0205
   2442 E5            [11] 5478 	push	hl
   2443 3E 04         [ 7] 5479 	ld	a, #0x04
   2445 F5            [11] 5480 	push	af
   2446 33            [ 6] 5481 	inc	sp
   2447 DD 6E 06      [19] 5482 	ld	l,6 (ix)
   244A DD 66 07      [19] 5483 	ld	h,7 (ix)
   244D E5            [11] 5484 	push	hl
   244E CDrFEr01      [17] 5485 	call	_createRoca
   2451 21 07 00      [10] 5486 	ld	hl, #7
   2454 39            [11] 5487 	add	hl, sp
   2455 F9            [ 6] 5488 	ld	sp, hl
                           5489 ;src/niveles/niveles.c:584: createColeccionabeLuz(col,2,4,6);
   2456 21 04 06      [10] 5490 	ld	hl, #0x0604
   2459 E5            [11] 5491 	push	hl
   245A 3E 02         [ 7] 5492 	ld	a, #0x02
   245C F5            [11] 5493 	push	af
   245D 33            [ 6] 5494 	inc	sp
   245E DD 6E 0E      [19] 5495 	ld	l,14 (ix)
   2461 DD 66 0F      [19] 5496 	ld	h,15 (ix)
   2464 E5            [11] 5497 	push	hl
   2465 CDr17r05      [17] 5498 	call	_createColeccionabeLuz
   2468 F1            [10] 5499 	pop	af
                           5500 ;src/niveles/niveles.c:588: createRoca(rocas,1,1,sin_Movimiento, sprite_Muro_Polvo1,1);
   2469 33            [ 6] 5501 	inc	sp
   246A 21 1C 01      [10] 5502 	ld	hl,#0x011c
   246D E3            [19] 5503 	ex	(sp),hl
   246E 21 01 00      [10] 5504 	ld	hl, #0x0001
   2471 E5            [11] 5505 	push	hl
   2472 3E 01         [ 7] 5506 	ld	a, #0x01
   2474 F5            [11] 5507 	push	af
   2475 33            [ 6] 5508 	inc	sp
   2476 DD 6E 06      [19] 5509 	ld	l,6 (ix)
   2479 DD 66 07      [19] 5510 	ld	h,7 (ix)
   247C E5            [11] 5511 	push	hl
   247D CDrFEr01      [17] 5512 	call	_createRoca
   2480 21 07 00      [10] 5513 	ld	hl, #7
   2483 39            [11] 5514 	add	hl, sp
   2484 F9            [ 6] 5515 	ld	sp, hl
                           5516 ;src/niveles/niveles.c:589: createRoca(rocas,2,1,sin_Movimiento, sprite_Muro_Polvo1,1);
   2485 21 1C 01      [10] 5517 	ld	hl, #0x011c
   2488 E5            [11] 5518 	push	hl
   2489 21 01 00      [10] 5519 	ld	hl, #0x0001
   248C E5            [11] 5520 	push	hl
   248D 3E 02         [ 7] 5521 	ld	a, #0x02
   248F F5            [11] 5522 	push	af
   2490 33            [ 6] 5523 	inc	sp
   2491 DD 6E 06      [19] 5524 	ld	l,6 (ix)
   2494 DD 66 07      [19] 5525 	ld	h,7 (ix)
   2497 E5            [11] 5526 	push	hl
   2498 CDrFEr01      [17] 5527 	call	_createRoca
   249B 21 07 00      [10] 5528 	ld	hl, #7
   249E 39            [11] 5529 	add	hl, sp
   249F F9            [ 6] 5530 	ld	sp, hl
                           5531 ;src/niveles/niveles.c:590: createRoca(rocas,3,1,sin_Movimiento, sprite_Muro_Polvo1,1);
   24A0 21 1C 01      [10] 5532 	ld	hl, #0x011c
   24A3 E5            [11] 5533 	push	hl
   24A4 21 01 00      [10] 5534 	ld	hl, #0x0001
   24A7 E5            [11] 5535 	push	hl
   24A8 3E 03         [ 7] 5536 	ld	a, #0x03
   24AA F5            [11] 5537 	push	af
   24AB 33            [ 6] 5538 	inc	sp
   24AC DD 6E 06      [19] 5539 	ld	l,6 (ix)
   24AF DD 66 07      [19] 5540 	ld	h,7 (ix)
   24B2 E5            [11] 5541 	push	hl
   24B3 CDrFEr01      [17] 5542 	call	_createRoca
   24B6 21 07 00      [10] 5543 	ld	hl, #7
   24B9 39            [11] 5544 	add	hl, sp
   24BA F9            [ 6] 5545 	ld	sp, hl
                           5546 ;src/niveles/niveles.c:591: createRoca(rocas,4,1,sin_Movimiento, sprite_Muro_Polvo1,1);
   24BB 21 1C 01      [10] 5547 	ld	hl, #0x011c
   24BE E5            [11] 5548 	push	hl
   24BF 21 01 00      [10] 5549 	ld	hl, #0x0001
   24C2 E5            [11] 5550 	push	hl
   24C3 3E 04         [ 7] 5551 	ld	a, #0x04
   24C5 F5            [11] 5552 	push	af
   24C6 33            [ 6] 5553 	inc	sp
   24C7 DD 6E 06      [19] 5554 	ld	l,6 (ix)
   24CA DD 66 07      [19] 5555 	ld	h,7 (ix)
   24CD E5            [11] 5556 	push	hl
   24CE CDrFEr01      [17] 5557 	call	_createRoca
   24D1 21 07 00      [10] 5558 	ld	hl, #7
   24D4 39            [11] 5559 	add	hl, sp
   24D5 F9            [ 6] 5560 	ld	sp, hl
                           5561 ;src/niveles/niveles.c:592: createRoca(rocas,5,1,sin_Movimiento, sprite_Muro_Polvo1,1);
   24D6 21 1C 01      [10] 5562 	ld	hl, #0x011c
   24D9 E5            [11] 5563 	push	hl
   24DA 21 01 00      [10] 5564 	ld	hl, #0x0001
   24DD E5            [11] 5565 	push	hl
   24DE 3E 05         [ 7] 5566 	ld	a, #0x05
   24E0 F5            [11] 5567 	push	af
   24E1 33            [ 6] 5568 	inc	sp
   24E2 DD 6E 06      [19] 5569 	ld	l,6 (ix)
   24E5 DD 66 07      [19] 5570 	ld	h,7 (ix)
   24E8 E5            [11] 5571 	push	hl
   24E9 CDrFEr01      [17] 5572 	call	_createRoca
   24EC 21 07 00      [10] 5573 	ld	hl, #7
   24EF 39            [11] 5574 	add	hl, sp
   24F0 F9            [ 6] 5575 	ld	sp, hl
                           5576 ;src/niveles/niveles.c:593: createRoca(rocas,6,1,sin_Movimiento, sprite_Muro_Polvo1,1);
   24F1 21 1C 01      [10] 5577 	ld	hl, #0x011c
   24F4 E5            [11] 5578 	push	hl
   24F5 21 01 00      [10] 5579 	ld	hl, #0x0001
   24F8 E5            [11] 5580 	push	hl
   24F9 3E 06         [ 7] 5581 	ld	a, #0x06
   24FB F5            [11] 5582 	push	af
   24FC 33            [ 6] 5583 	inc	sp
   24FD DD 6E 06      [19] 5584 	ld	l,6 (ix)
   2500 DD 66 07      [19] 5585 	ld	h,7 (ix)
   2503 E5            [11] 5586 	push	hl
   2504 CDrFEr01      [17] 5587 	call	_createRoca
   2507 21 07 00      [10] 5588 	ld	hl, #7
   250A 39            [11] 5589 	add	hl, sp
   250B F9            [ 6] 5590 	ld	sp, hl
                           5591 ;src/niveles/niveles.c:594: createRoca(rocas,7,1,sin_Movimiento, sprite_Muro_Polvo1,1);
   250C 21 1C 01      [10] 5592 	ld	hl, #0x011c
   250F E5            [11] 5593 	push	hl
   2510 21 01 00      [10] 5594 	ld	hl, #0x0001
   2513 E5            [11] 5595 	push	hl
   2514 3E 07         [ 7] 5596 	ld	a, #0x07
   2516 F5            [11] 5597 	push	af
   2517 33            [ 6] 5598 	inc	sp
   2518 DD 6E 06      [19] 5599 	ld	l,6 (ix)
   251B DD 66 07      [19] 5600 	ld	h,7 (ix)
   251E E5            [11] 5601 	push	hl
   251F CDrFEr01      [17] 5602 	call	_createRoca
   2522 21 07 00      [10] 5603 	ld	hl, #7
   2525 39            [11] 5604 	add	hl, sp
   2526 F9            [ 6] 5605 	ld	sp, hl
                           5606 ;src/niveles/niveles.c:595: createRoca(rocas,8,1,sin_Movimiento, sprite_Muro_Polvo1,1);
   2527 21 1C 01      [10] 5607 	ld	hl, #0x011c
   252A E5            [11] 5608 	push	hl
   252B 21 01 00      [10] 5609 	ld	hl, #0x0001
   252E E5            [11] 5610 	push	hl
   252F 3E 08         [ 7] 5611 	ld	a, #0x08
   2531 F5            [11] 5612 	push	af
   2532 33            [ 6] 5613 	inc	sp
   2533 DD 6E 06      [19] 5614 	ld	l,6 (ix)
   2536 DD 66 07      [19] 5615 	ld	h,7 (ix)
   2539 E5            [11] 5616 	push	hl
   253A CDrFEr01      [17] 5617 	call	_createRoca
   253D 21 07 00      [10] 5618 	ld	hl, #7
   2540 39            [11] 5619 	add	hl, sp
   2541 F9            [ 6] 5620 	ld	sp, hl
                           5621 ;src/niveles/niveles.c:596: createRoca(rocas,1,7,sin_Movimiento, sprite_Muro_Polvo1,1);
   2542 21 1C 01      [10] 5622 	ld	hl, #0x011c
   2545 E5            [11] 5623 	push	hl
   2546 21 07 00      [10] 5624 	ld	hl, #0x0007
   2549 E5            [11] 5625 	push	hl
   254A 3E 01         [ 7] 5626 	ld	a, #0x01
   254C F5            [11] 5627 	push	af
   254D 33            [ 6] 5628 	inc	sp
   254E DD 6E 06      [19] 5629 	ld	l,6 (ix)
   2551 DD 66 07      [19] 5630 	ld	h,7 (ix)
   2554 E5            [11] 5631 	push	hl
   2555 CDrFEr01      [17] 5632 	call	_createRoca
   2558 21 07 00      [10] 5633 	ld	hl, #7
   255B 39            [11] 5634 	add	hl, sp
   255C F9            [ 6] 5635 	ld	sp, hl
                           5636 ;src/niveles/niveles.c:597: createRoca(rocas,2,7,sin_Movimiento, sprite_Muro_Polvo1,1);
   255D 21 1C 01      [10] 5637 	ld	hl, #0x011c
   2560 E5            [11] 5638 	push	hl
   2561 21 07 00      [10] 5639 	ld	hl, #0x0007
   2564 E5            [11] 5640 	push	hl
   2565 3E 02         [ 7] 5641 	ld	a, #0x02
   2567 F5            [11] 5642 	push	af
   2568 33            [ 6] 5643 	inc	sp
   2569 DD 6E 06      [19] 5644 	ld	l,6 (ix)
   256C DD 66 07      [19] 5645 	ld	h,7 (ix)
   256F E5            [11] 5646 	push	hl
   2570 CDrFEr01      [17] 5647 	call	_createRoca
   2573 21 07 00      [10] 5648 	ld	hl, #7
   2576 39            [11] 5649 	add	hl, sp
   2577 F9            [ 6] 5650 	ld	sp, hl
                           5651 ;src/niveles/niveles.c:598: createRoca(rocas,3,7,sin_Movimiento, sprite_Muro_Polvo1,1);
   2578 21 1C 01      [10] 5652 	ld	hl, #0x011c
   257B E5            [11] 5653 	push	hl
   257C 21 07 00      [10] 5654 	ld	hl, #0x0007
   257F E5            [11] 5655 	push	hl
   2580 3E 03         [ 7] 5656 	ld	a, #0x03
   2582 F5            [11] 5657 	push	af
   2583 33            [ 6] 5658 	inc	sp
   2584 DD 6E 06      [19] 5659 	ld	l,6 (ix)
   2587 DD 66 07      [19] 5660 	ld	h,7 (ix)
   258A E5            [11] 5661 	push	hl
   258B CDrFEr01      [17] 5662 	call	_createRoca
   258E 21 07 00      [10] 5663 	ld	hl, #7
   2591 39            [11] 5664 	add	hl, sp
   2592 F9            [ 6] 5665 	ld	sp, hl
                           5666 ;src/niveles/niveles.c:599: createRoca(rocas,4,7,sin_Movimiento, sprite_Muro_Polvo1,1);
   2593 21 1C 01      [10] 5667 	ld	hl, #0x011c
   2596 E5            [11] 5668 	push	hl
   2597 21 07 00      [10] 5669 	ld	hl, #0x0007
   259A E5            [11] 5670 	push	hl
   259B 3E 04         [ 7] 5671 	ld	a, #0x04
   259D F5            [11] 5672 	push	af
   259E 33            [ 6] 5673 	inc	sp
   259F DD 6E 06      [19] 5674 	ld	l,6 (ix)
   25A2 DD 66 07      [19] 5675 	ld	h,7 (ix)
   25A5 E5            [11] 5676 	push	hl
   25A6 CDrFEr01      [17] 5677 	call	_createRoca
   25A9 21 07 00      [10] 5678 	ld	hl, #7
   25AC 39            [11] 5679 	add	hl, sp
   25AD F9            [ 6] 5680 	ld	sp, hl
                           5681 ;src/niveles/niveles.c:600: createRoca(rocas,5,7,sin_Movimiento, sprite_Muro_Polvo1,1);
   25AE 21 1C 01      [10] 5682 	ld	hl, #0x011c
   25B1 E5            [11] 5683 	push	hl
   25B2 21 07 00      [10] 5684 	ld	hl, #0x0007
   25B5 E5            [11] 5685 	push	hl
   25B6 3E 05         [ 7] 5686 	ld	a, #0x05
   25B8 F5            [11] 5687 	push	af
   25B9 33            [ 6] 5688 	inc	sp
   25BA DD 6E 06      [19] 5689 	ld	l,6 (ix)
   25BD DD 66 07      [19] 5690 	ld	h,7 (ix)
   25C0 E5            [11] 5691 	push	hl
   25C1 CDrFEr01      [17] 5692 	call	_createRoca
   25C4 21 07 00      [10] 5693 	ld	hl, #7
   25C7 39            [11] 5694 	add	hl, sp
   25C8 F9            [ 6] 5695 	ld	sp, hl
                           5696 ;src/niveles/niveles.c:601: createRoca(rocas,6,7,sin_Movimiento, sprite_Muro_Polvo1,1);
   25C9 21 1C 01      [10] 5697 	ld	hl, #0x011c
   25CC E5            [11] 5698 	push	hl
   25CD 21 07 00      [10] 5699 	ld	hl, #0x0007
   25D0 E5            [11] 5700 	push	hl
   25D1 3E 06         [ 7] 5701 	ld	a, #0x06
   25D3 F5            [11] 5702 	push	af
   25D4 33            [ 6] 5703 	inc	sp
   25D5 DD 6E 06      [19] 5704 	ld	l,6 (ix)
   25D8 DD 66 07      [19] 5705 	ld	h,7 (ix)
   25DB E5            [11] 5706 	push	hl
   25DC CDrFEr01      [17] 5707 	call	_createRoca
   25DF 21 07 00      [10] 5708 	ld	hl, #7
   25E2 39            [11] 5709 	add	hl, sp
   25E3 F9            [ 6] 5710 	ld	sp, hl
                           5711 ;src/niveles/niveles.c:602: createRoca(rocas,7,7,sin_Movimiento, sprite_Muro_Polvo1,1);
   25E4 21 1C 01      [10] 5712 	ld	hl, #0x011c
   25E7 E5            [11] 5713 	push	hl
   25E8 21 07 00      [10] 5714 	ld	hl, #0x0007
   25EB E5            [11] 5715 	push	hl
   25EC 3E 07         [ 7] 5716 	ld	a, #0x07
   25EE F5            [11] 5717 	push	af
   25EF 33            [ 6] 5718 	inc	sp
   25F0 DD 6E 06      [19] 5719 	ld	l,6 (ix)
   25F3 DD 66 07      [19] 5720 	ld	h,7 (ix)
   25F6 E5            [11] 5721 	push	hl
   25F7 CDrFEr01      [17] 5722 	call	_createRoca
   25FA 21 07 00      [10] 5723 	ld	hl, #7
   25FD 39            [11] 5724 	add	hl, sp
   25FE F9            [ 6] 5725 	ld	sp, hl
                           5726 ;src/niveles/niveles.c:603: createRoca(rocas,8,8,sin_Movimiento, sprite_Muro_Polvo1,1);
   25FF 21 1C 01      [10] 5727 	ld	hl, #0x011c
   2602 E5            [11] 5728 	push	hl
   2603 21 08 00      [10] 5729 	ld	hl, #0x0008
   2606 E5            [11] 5730 	push	hl
   2607 3E 08         [ 7] 5731 	ld	a, #0x08
   2609 F5            [11] 5732 	push	af
   260A 33            [ 6] 5733 	inc	sp
   260B DD 6E 06      [19] 5734 	ld	l,6 (ix)
   260E DD 66 07      [19] 5735 	ld	h,7 (ix)
   2611 E5            [11] 5736 	push	hl
   2612 CDrFEr01      [17] 5737 	call	_createRoca
   2615 21 07 00      [10] 5738 	ld	hl, #7
   2618 39            [11] 5739 	add	hl, sp
   2619 F9            [ 6] 5740 	ld	sp, hl
                           5741 ;src/niveles/niveles.c:604: createRoca(rocas,1,2,sin_Movimiento, sprite_Muro_Polvo1,1);
   261A 21 1C 01      [10] 5742 	ld	hl, #0x011c
   261D E5            [11] 5743 	push	hl
   261E 21 02 00      [10] 5744 	ld	hl, #0x0002
   2621 E5            [11] 5745 	push	hl
   2622 3E 01         [ 7] 5746 	ld	a, #0x01
   2624 F5            [11] 5747 	push	af
   2625 33            [ 6] 5748 	inc	sp
   2626 DD 6E 06      [19] 5749 	ld	l,6 (ix)
   2629 DD 66 07      [19] 5750 	ld	h,7 (ix)
   262C E5            [11] 5751 	push	hl
   262D CDrFEr01      [17] 5752 	call	_createRoca
   2630 21 07 00      [10] 5753 	ld	hl, #7
   2633 39            [11] 5754 	add	hl, sp
   2634 F9            [ 6] 5755 	ld	sp, hl
                           5756 ;src/niveles/niveles.c:605: createRoca(rocas,1,3,sin_Movimiento, sprite_Muro_Polvo1,1);
   2635 21 1C 01      [10] 5757 	ld	hl, #0x011c
   2638 E5            [11] 5758 	push	hl
   2639 21 03 00      [10] 5759 	ld	hl, #0x0003
   263C E5            [11] 5760 	push	hl
   263D 3E 01         [ 7] 5761 	ld	a, #0x01
   263F F5            [11] 5762 	push	af
   2640 33            [ 6] 5763 	inc	sp
   2641 DD 6E 06      [19] 5764 	ld	l,6 (ix)
   2644 DD 66 07      [19] 5765 	ld	h,7 (ix)
   2647 E5            [11] 5766 	push	hl
   2648 CDrFEr01      [17] 5767 	call	_createRoca
   264B 21 07 00      [10] 5768 	ld	hl, #7
   264E 39            [11] 5769 	add	hl, sp
   264F F9            [ 6] 5770 	ld	sp, hl
                           5771 ;src/niveles/niveles.c:606: createRoca(rocas,1,5,sin_Movimiento, sprite_Muro_Polvo1,1);
   2650 21 1C 01      [10] 5772 	ld	hl, #0x011c
   2653 E5            [11] 5773 	push	hl
   2654 21 05 00      [10] 5774 	ld	hl, #0x0005
   2657 E5            [11] 5775 	push	hl
   2658 3E 01         [ 7] 5776 	ld	a, #0x01
   265A F5            [11] 5777 	push	af
   265B 33            [ 6] 5778 	inc	sp
   265C DD 6E 06      [19] 5779 	ld	l,6 (ix)
   265F DD 66 07      [19] 5780 	ld	h,7 (ix)
   2662 E5            [11] 5781 	push	hl
   2663 CDrFEr01      [17] 5782 	call	_createRoca
   2666 21 07 00      [10] 5783 	ld	hl, #7
   2669 39            [11] 5784 	add	hl, sp
   266A F9            [ 6] 5785 	ld	sp, hl
                           5786 ;src/niveles/niveles.c:607: createRoca(rocas,1,6,sin_Movimiento, sprite_Muro_Polvo1,1);
   266B 21 1C 01      [10] 5787 	ld	hl, #0x011c
   266E E5            [11] 5788 	push	hl
   266F 21 06 00      [10] 5789 	ld	hl, #0x0006
   2672 E5            [11] 5790 	push	hl
   2673 3E 01         [ 7] 5791 	ld	a, #0x01
   2675 F5            [11] 5792 	push	af
   2676 33            [ 6] 5793 	inc	sp
   2677 DD 6E 06      [19] 5794 	ld	l,6 (ix)
   267A DD 66 07      [19] 5795 	ld	h,7 (ix)
   267D E5            [11] 5796 	push	hl
   267E CDrFEr01      [17] 5797 	call	_createRoca
   2681 21 07 00      [10] 5798 	ld	hl, #7
   2684 39            [11] 5799 	add	hl, sp
   2685 F9            [ 6] 5800 	ld	sp, hl
                           5801 ;src/niveles/niveles.c:608: createRoca(rocas,8,2,sin_Movimiento, sprite_Muro_Polvo1,1);
   2686 21 1C 01      [10] 5802 	ld	hl, #0x011c
   2689 E5            [11] 5803 	push	hl
   268A 21 02 00      [10] 5804 	ld	hl, #0x0002
   268D E5            [11] 5805 	push	hl
   268E 3E 08         [ 7] 5806 	ld	a, #0x08
   2690 F5            [11] 5807 	push	af
   2691 33            [ 6] 5808 	inc	sp
   2692 DD 6E 06      [19] 5809 	ld	l,6 (ix)
   2695 DD 66 07      [19] 5810 	ld	h,7 (ix)
   2698 E5            [11] 5811 	push	hl
   2699 CDrFEr01      [17] 5812 	call	_createRoca
   269C 21 07 00      [10] 5813 	ld	hl, #7
   269F 39            [11] 5814 	add	hl, sp
   26A0 F9            [ 6] 5815 	ld	sp, hl
                           5816 ;src/niveles/niveles.c:609: createRoca(rocas,8,3,sin_Movimiento, sprite_Muro_Polvo1,1);
   26A1 21 1C 01      [10] 5817 	ld	hl, #0x011c
   26A4 E5            [11] 5818 	push	hl
   26A5 21 03 00      [10] 5819 	ld	hl, #0x0003
   26A8 E5            [11] 5820 	push	hl
   26A9 3E 08         [ 7] 5821 	ld	a, #0x08
   26AB F5            [11] 5822 	push	af
   26AC 33            [ 6] 5823 	inc	sp
   26AD DD 6E 06      [19] 5824 	ld	l,6 (ix)
   26B0 DD 66 07      [19] 5825 	ld	h,7 (ix)
   26B3 E5            [11] 5826 	push	hl
   26B4 CDrFEr01      [17] 5827 	call	_createRoca
   26B7 21 07 00      [10] 5828 	ld	hl, #7
   26BA 39            [11] 5829 	add	hl, sp
   26BB F9            [ 6] 5830 	ld	sp, hl
                           5831 ;src/niveles/niveles.c:610: createRoca(rocas,8,4,sin_Movimiento, sprite_Muro_Polvo1,1);
   26BC 21 1C 01      [10] 5832 	ld	hl, #0x011c
   26BF E5            [11] 5833 	push	hl
   26C0 21 04 00      [10] 5834 	ld	hl, #0x0004
   26C3 E5            [11] 5835 	push	hl
   26C4 3E 08         [ 7] 5836 	ld	a, #0x08
   26C6 F5            [11] 5837 	push	af
   26C7 33            [ 6] 5838 	inc	sp
   26C8 DD 6E 06      [19] 5839 	ld	l,6 (ix)
   26CB DD 66 07      [19] 5840 	ld	h,7 (ix)
   26CE E5            [11] 5841 	push	hl
   26CF CDrFEr01      [17] 5842 	call	_createRoca
   26D2 21 07 00      [10] 5843 	ld	hl, #7
   26D5 39            [11] 5844 	add	hl, sp
   26D6 F9            [ 6] 5845 	ld	sp, hl
                           5846 ;src/niveles/niveles.c:611: createRoca(rocas,8,5,sin_Movimiento, sprite_Muro_Polvo1,1);
   26D7 21 1C 01      [10] 5847 	ld	hl, #0x011c
   26DA E5            [11] 5848 	push	hl
   26DB 21 05 00      [10] 5849 	ld	hl, #0x0005
   26DE E5            [11] 5850 	push	hl
   26DF 3E 08         [ 7] 5851 	ld	a, #0x08
   26E1 F5            [11] 5852 	push	af
   26E2 33            [ 6] 5853 	inc	sp
   26E3 DD 6E 06      [19] 5854 	ld	l,6 (ix)
   26E6 DD 66 07      [19] 5855 	ld	h,7 (ix)
   26E9 E5            [11] 5856 	push	hl
   26EA CDrFEr01      [17] 5857 	call	_createRoca
   26ED 21 07 00      [10] 5858 	ld	hl, #7
   26F0 39            [11] 5859 	add	hl, sp
   26F1 F9            [ 6] 5860 	ld	sp, hl
                           5861 ;src/niveles/niveles.c:612: createRoca(rocas,8,6,sin_Movimiento, sprite_Muro_Polvo1,1);
   26F2 21 1C 01      [10] 5862 	ld	hl, #0x011c
   26F5 E5            [11] 5863 	push	hl
   26F6 21 06 00      [10] 5864 	ld	hl, #0x0006
   26F9 E5            [11] 5865 	push	hl
   26FA 3E 08         [ 7] 5866 	ld	a, #0x08
   26FC F5            [11] 5867 	push	af
   26FD 33            [ 6] 5868 	inc	sp
   26FE DD 6E 06      [19] 5869 	ld	l,6 (ix)
   2701 DD 66 07      [19] 5870 	ld	h,7 (ix)
   2704 E5            [11] 5871 	push	hl
   2705 CDrFEr01      [17] 5872 	call	_createRoca
   2708 21 07 00      [10] 5873 	ld	hl, #7
   270B 39            [11] 5874 	add	hl, sp
   270C F9            [ 6] 5875 	ld	sp, hl
                           5876 ;src/niveles/niveles.c:613: createRoca(rocas,2,2,sin_Movimiento,sprite_RockInmovil2_B,1);
   270D 21 0A 01      [10] 5877 	ld	hl, #0x010a
   2710 E5            [11] 5878 	push	hl
   2711 21 02 00      [10] 5879 	ld	hl, #0x0002
   2714 E5            [11] 5880 	push	hl
   2715 3E 02         [ 7] 5881 	ld	a, #0x02
   2717 F5            [11] 5882 	push	af
   2718 33            [ 6] 5883 	inc	sp
   2719 DD 6E 06      [19] 5884 	ld	l,6 (ix)
   271C DD 66 07      [19] 5885 	ld	h,7 (ix)
   271F E5            [11] 5886 	push	hl
   2720 CDrFEr01      [17] 5887 	call	_createRoca
   2723 21 07 00      [10] 5888 	ld	hl, #7
   2726 39            [11] 5889 	add	hl, sp
   2727 F9            [ 6] 5890 	ld	sp, hl
                           5891 ;src/niveles/niveles.c:614: createRoca(rocas,2,6,sin_Movimiento,sprite_RockInmovil2_B,1);
   2728 21 0A 01      [10] 5892 	ld	hl, #0x010a
   272B E5            [11] 5893 	push	hl
   272C 21 06 00      [10] 5894 	ld	hl, #0x0006
   272F E5            [11] 5895 	push	hl
   2730 3E 02         [ 7] 5896 	ld	a, #0x02
   2732 F5            [11] 5897 	push	af
   2733 33            [ 6] 5898 	inc	sp
   2734 DD 6E 06      [19] 5899 	ld	l,6 (ix)
   2737 DD 66 07      [19] 5900 	ld	h,7 (ix)
   273A E5            [11] 5901 	push	hl
   273B CDrFEr01      [17] 5902 	call	_createRoca
   273E 21 07 00      [10] 5903 	ld	hl, #7
   2741 39            [11] 5904 	add	hl, sp
   2742 F9            [ 6] 5905 	ld	sp, hl
   2743 DD E1         [14] 5906 	pop	ix
   2745 C9            [10] 5907 	ret
                           5908 	.area _CODE
                           5909 	.area _INITIALIZER
                           5910 	.area _CABS (ABS)
