                              1 ;--------------------------------------------------------
                              2 ; File Created by SDCC : free open source ANSI-C Compiler
                              3 ; Version 3.6.8 #9946 (Linux)
                              4 ;--------------------------------------------------------
                              5 	.module juego
                              6 	.optsdcc -mz80
                              7 	
                              8 ;--------------------------------------------------------
                              9 ; Public variables in this module
                             10 ;--------------------------------------------------------
                             11 	.globl _crearNivel
                             12 	.globl _movimientoPlayer
                             13 	.globl _scanKey
                             14 	.globl _moverGameObject
                             15 	.globl _dibujarGameObject
                             16 	.globl _posicion
                             17 	.globl _rocasEspejo
                             18 	.globl _rocas
                             19 	.globl _player
                             20 	.globl _game
                             21 	.globl _initGame
                             22 	.globl _createPlayer
                             23 	.globl _createRocas
                             24 	.globl _createRocasEspejo
                             25 	.globl _dibujarGameObjects
                             26 	.globl _comprobarMovimiento
                             27 	.globl _resetGameobjects
                             28 ;--------------------------------------------------------
                             29 ; special function registers
                             30 ;--------------------------------------------------------
                             31 ;--------------------------------------------------------
                             32 ; ram data
                             33 ;--------------------------------------------------------
                             34 	.area _DATA
   0000                      35 _movimientoGuardado:
   0000                      36 	.ds 1
   0001                      37 _player::
   0001                      38 	.ds 5
   0006                      39 _rocas::
   0006                      40 	.ds 25
   001F                      41 _rocasEspejo::
   001F                      42 	.ds 25
   0038                      43 _posicion::
   0038                      44 	.ds 1
                             45 ;--------------------------------------------------------
                             46 ; ram data
                             47 ;--------------------------------------------------------
                             48 	.area _INITIALIZED
                             49 ;--------------------------------------------------------
                             50 ; absolute external ram data
                             51 ;--------------------------------------------------------
                             52 	.area _DABS (ABS)
                             53 ;--------------------------------------------------------
                             54 ; global & static initialisations
                             55 ;--------------------------------------------------------
                             56 	.area _HOME
                             57 	.area _GSINIT
                             58 	.area _GSFINAL
                             59 	.area _GSINIT
                             60 ;--------------------------------------------------------
                             61 ; Home
                             62 ;--------------------------------------------------------
                             63 	.area _HOME
                             64 	.area _HOME
                             65 ;--------------------------------------------------------
                             66 ; code
                             67 ;--------------------------------------------------------
                             68 	.area _CODE
                             69 ;src/juego/juego.c:24: void game(){
                             70 ;	---------------------------------
                             71 ; Function game
                             72 ; ---------------------------------
   0000                      73 _game::
                             74 ;src/juego/juego.c:25: initGame();       
   0000 CDr29r00      [17]   75 	call	_initGame
                             76 ;src/juego/juego.c:26: while(1){ 
   0003                      77 00102$:
                             78 ;src/juego/juego.c:27: scanKey();
   0003 CDr00r00      [17]   79 	call	_scanKey
                             80 ;src/juego/juego.c:28: comprobarMovimiento();      
   0006 CDr1Fr01      [17]   81 	call	_comprobarMovimiento
                             82 ;src/juego/juego.c:29: moverGameObject(&player,movimientoGuardado,rocas,rocasEspejo,posicion);              
   0009 3Ar38r00      [13]   83 	ld	a, (_posicion)
   000C F5            [11]   84 	push	af
   000D 33            [ 6]   85 	inc	sp
   000E 21r1Fr00      [10]   86 	ld	hl, #_rocasEspejo
   0011 E5            [11]   87 	push	hl
   0012 21r06r00      [10]   88 	ld	hl, #_rocas
   0015 E5            [11]   89 	push	hl
   0016 3Ar00r00      [13]   90 	ld	a, (_movimientoGuardado)
   0019 F5            [11]   91 	push	af
   001A 33            [ 6]   92 	inc	sp
   001B 21r01r00      [10]   93 	ld	hl, #_player
   001E E5            [11]   94 	push	hl
   001F CDr00r00      [17]   95 	call	_moverGameObject
   0022 21 08 00      [10]   96 	ld	hl, #8
   0025 39            [11]   97 	add	hl, sp
   0026 F9            [ 6]   98 	ld	sp, hl
   0027 18 DA         [12]   99 	jr	00102$
                            100 ;src/juego/juego.c:32: void initGame(){
                            101 ;	---------------------------------
                            102 ; Function initGame
                            103 ; ---------------------------------
   0029                     104 _initGame::
                            105 ;src/juego/juego.c:33: posicion=posicion_Izquieda;
   0029 21r38r00      [10]  106 	ld	hl,#_posicion + 0
   002C 36 00         [10]  107 	ld	(hl), #0x00
                            108 ;src/juego/juego.c:34: crearNivel();
   002E CDr00r00      [17]  109 	call	_crearNivel
                            110 ;src/juego/juego.c:35: createPlayer();
   0031 CDr3Dr00      [17]  111 	call	_createPlayer
                            112 ;src/juego/juego.c:36: createRocas();
   0034 CDr52r00      [17]  113 	call	_createRocas
                            114 ;src/juego/juego.c:37: createRocasEspejo();
   0037 CDr8Fr00      [17]  115 	call	_createRocasEspejo
                            116 ;src/juego/juego.c:38: dibujarGameObjects();    
   003A C3rE0r00      [10]  117 	jp  _dibujarGameObjects
                            118 ;src/juego/juego.c:40: void createPlayer(){
                            119 ;	---------------------------------
                            120 ; Function createPlayer
                            121 ; ---------------------------------
   003D                     122 _createPlayer::
                            123 ;src/juego/juego.c:41: player.num=-1;
   003D 21r01r00      [10]  124 	ld	hl, #_player
   0040 36 FF         [10]  125 	ld	(hl), #0xff
                            126 ;src/juego/juego.c:42: player.posx=1;
   0042 21r02r00      [10]  127 	ld	hl, #(_player + 0x0001)
   0045 36 01         [10]  128 	ld	(hl), #0x01
                            129 ;src/juego/juego.c:43: player.posy=1;   
   0047 21r03r00      [10]  130 	ld	hl, #(_player + 0x0002)
   004A 36 01         [10]  131 	ld	(hl), #0x01
                            132 ;src/juego/juego.c:44: player.sprite=sprite_Player;
   004C 21r04r00      [10]  133 	ld	hl, #(_player + 0x0003)
   004F 36 01         [10]  134 	ld	(hl), #0x01
   0051 C9            [10]  135 	ret
                            136 ;src/juego/juego.c:46: void createRocas(){
                            137 ;	---------------------------------
                            138 ; Function createRocas
                            139 ; ---------------------------------
   0052                     140 _createRocas::
                            141 ;src/juego/juego.c:47: rocas[0].num=0;
   0052 21r06r00      [10]  142 	ld	hl, #_rocas
   0055 36 00         [10]  143 	ld	(hl), #0x00
                            144 ;src/juego/juego.c:48: rocas[0].posx=5;
   0057 21r07r00      [10]  145 	ld	hl, #(_rocas + 0x0001)
   005A 36 05         [10]  146 	ld	(hl), #0x05
                            147 ;src/juego/juego.c:49: rocas[0].posy=5;
   005C 21r08r00      [10]  148 	ld	hl, #(_rocas + 0x0002)
   005F 36 05         [10]  149 	ld	(hl), #0x05
                            150 ;src/juego/juego.c:50: rocas[0].sprite=sprite_Rock;
   0061 21r09r00      [10]  151 	ld	hl, #(_rocas + 0x0003)
   0064 36 02         [10]  152 	ld	(hl), #0x02
                            153 ;src/juego/juego.c:52: rocas[1].num=1;
   0066 21r0Br00      [10]  154 	ld	hl, #(_rocas + 0x0005)
   0069 36 01         [10]  155 	ld	(hl), #0x01
                            156 ;src/juego/juego.c:53: rocas[1].posx=6;
   006B 21r0Cr00      [10]  157 	ld	hl, #(_rocas + 0x0006)
   006E 36 06         [10]  158 	ld	(hl), #0x06
                            159 ;src/juego/juego.c:54: rocas[1].posy=6;
   0070 21r0Dr00      [10]  160 	ld	hl, #(_rocas + 0x0007)
   0073 36 06         [10]  161 	ld	(hl), #0x06
                            162 ;src/juego/juego.c:55: rocas[1].sprite=sprite_Rock;
   0075 21r0Er00      [10]  163 	ld	hl, #(_rocas + 0x0008)
   0078 36 02         [10]  164 	ld	(hl), #0x02
                            165 ;src/juego/juego.c:57: rocas[2].num=2;
   007A 21r10r00      [10]  166 	ld	hl, #(_rocas + 0x000a)
   007D 36 02         [10]  167 	ld	(hl), #0x02
                            168 ;src/juego/juego.c:58: rocas[2].posx=7;
   007F 21r11r00      [10]  169 	ld	hl, #(_rocas + 0x000b)
   0082 36 07         [10]  170 	ld	(hl), #0x07
                            171 ;src/juego/juego.c:59: rocas[2].posy=7;
   0084 21r12r00      [10]  172 	ld	hl, #(_rocas + 0x000c)
   0087 36 07         [10]  173 	ld	(hl), #0x07
                            174 ;src/juego/juego.c:60: rocas[2].sprite=sprite_Rock;
   0089 21r13r00      [10]  175 	ld	hl, #(_rocas + 0x000d)
   008C 36 02         [10]  176 	ld	(hl), #0x02
   008E C9            [10]  177 	ret
                            178 ;src/juego/juego.c:65: void createRocasEspejo(){
                            179 ;	---------------------------------
                            180 ; Function createRocasEspejo
                            181 ; ---------------------------------
   008F                     182 _createRocasEspejo::
                            183 ;src/juego/juego.c:66: rocasEspejo[0].num=0;
   008F 21r1Fr00      [10]  184 	ld	hl, #_rocasEspejo
   0092 36 00         [10]  185 	ld	(hl), #0x00
                            186 ;src/juego/juego.c:67: rocasEspejo[0].posx=12;
   0094 21r20r00      [10]  187 	ld	hl, #(_rocasEspejo + 0x0001)
   0097 36 0C         [10]  188 	ld	(hl), #0x0c
                            189 ;src/juego/juego.c:68: rocasEspejo[0].posy=5;
   0099 21r21r00      [10]  190 	ld	hl, #(_rocasEspejo + 0x0002)
   009C 36 05         [10]  191 	ld	(hl), #0x05
                            192 ;src/juego/juego.c:69: rocasEspejo[0].sprite=sprite_Rock;
   009E 21r22r00      [10]  193 	ld	hl, #(_rocasEspejo + 0x0003)
   00A1 36 02         [10]  194 	ld	(hl), #0x02
                            195 ;src/juego/juego.c:71: rocasEspejo[1].num=1;
   00A3 21r24r00      [10]  196 	ld	hl, #(_rocasEspejo + 0x0005)
   00A6 36 01         [10]  197 	ld	(hl), #0x01
                            198 ;src/juego/juego.c:72: rocasEspejo[1].posx=11;
   00A8 21r25r00      [10]  199 	ld	hl, #(_rocasEspejo + 0x0006)
   00AB 36 0B         [10]  200 	ld	(hl), #0x0b
                            201 ;src/juego/juego.c:73: rocasEspejo[1].posy=6;
   00AD 21r26r00      [10]  202 	ld	hl, #(_rocasEspejo + 0x0007)
   00B0 36 06         [10]  203 	ld	(hl), #0x06
                            204 ;src/juego/juego.c:74: rocasEspejo[1].sprite=sprite_Rock;
   00B2 21r27r00      [10]  205 	ld	hl, #(_rocasEspejo + 0x0008)
   00B5 36 02         [10]  206 	ld	(hl), #0x02
                            207 ;src/juego/juego.c:76: rocasEspejo[2].num=2;
   00B7 21r29r00      [10]  208 	ld	hl, #(_rocasEspejo + 0x000a)
   00BA 36 02         [10]  209 	ld	(hl), #0x02
                            210 ;src/juego/juego.c:77: rocasEspejo[2].posx=10;
   00BC 21r2Ar00      [10]  211 	ld	hl, #(_rocasEspejo + 0x000b)
   00BF 36 0A         [10]  212 	ld	(hl), #0x0a
                            213 ;src/juego/juego.c:78: rocasEspejo[2].posy=7;
   00C1 21r2Br00      [10]  214 	ld	hl, #(_rocasEspejo + 0x000c)
   00C4 36 07         [10]  215 	ld	(hl), #0x07
                            216 ;src/juego/juego.c:79: rocasEspejo[2].sprite=sprite_RockInmovil;
   00C6 21r2Cr00      [10]  217 	ld	hl, #(_rocasEspejo + 0x000d)
   00C9 36 03         [10]  218 	ld	(hl), #0x03
                            219 ;src/juego/juego.c:81: rocasEspejo[3].num=3;
   00CB 21r2Er00      [10]  220 	ld	hl, #(_rocasEspejo + 0x000f)
   00CE 36 03         [10]  221 	ld	(hl), #0x03
                            222 ;src/juego/juego.c:82: rocasEspejo[3].posx=14;
   00D0 21r2Fr00      [10]  223 	ld	hl, #(_rocasEspejo + 0x0010)
   00D3 36 0E         [10]  224 	ld	(hl), #0x0e
                            225 ;src/juego/juego.c:83: rocasEspejo[3].posy=5;
   00D5 21r30r00      [10]  226 	ld	hl, #(_rocasEspejo + 0x0011)
   00D8 36 05         [10]  227 	ld	(hl), #0x05
                            228 ;src/juego/juego.c:84: rocasEspejo[3].sprite=sprite_RockInmovil;
   00DA 21r31r00      [10]  229 	ld	hl, #(_rocasEspejo + 0x0012)
   00DD 36 03         [10]  230 	ld	(hl), #0x03
   00DF C9            [10]  231 	ret
                            232 ;src/juego/juego.c:86: void dibujarGameObjects(){
                            233 ;	---------------------------------
                            234 ; Function dibujarGameObjects
                            235 ; ---------------------------------
   00E0                     236 _dibujarGameObjects::
                            237 ;src/juego/juego.c:87: dibujarGameObject(&player);
   00E0 21r01r00      [10]  238 	ld	hl, #_player
   00E3 E5            [11]  239 	push	hl
   00E4 CDr00r00      [17]  240 	call	_dibujarGameObject
   00E7 F1            [10]  241 	pop	af
                            242 ;src/juego/juego.c:88: for (u8 i =0; i<RocasMaximas;i++){        
   00E8 0E 00         [ 7]  243 	ld	c, #0x00
   00EA                     244 00104$:
   00EA 79            [ 4]  245 	ld	a, c
   00EB D6 05         [ 7]  246 	sub	a, #0x05
   00ED 30 15         [12]  247 	jr	NC,00101$
                            248 ;src/juego/juego.c:89: dibujarGameObject(&rocas[i]);
   00EF 06 00         [ 7]  249 	ld	b,#0x00
   00F1 69            [ 4]  250 	ld	l, c
   00F2 60            [ 4]  251 	ld	h, b
   00F3 29            [11]  252 	add	hl, hl
   00F4 29            [11]  253 	add	hl, hl
   00F5 09            [11]  254 	add	hl, bc
   00F6 11r06r00      [10]  255 	ld	de, #_rocas
   00F9 19            [11]  256 	add	hl, de
   00FA C5            [11]  257 	push	bc
   00FB E5            [11]  258 	push	hl
   00FC CDr00r00      [17]  259 	call	_dibujarGameObject
   00FF F1            [10]  260 	pop	af
   0100 C1            [10]  261 	pop	bc
                            262 ;src/juego/juego.c:88: for (u8 i =0; i<RocasMaximas;i++){        
   0101 0C            [ 4]  263 	inc	c
   0102 18 E6         [12]  264 	jr	00104$
   0104                     265 00101$:
                            266 ;src/juego/juego.c:92: for (u8 i =0; i<RocasMaximas;i++){        
   0104 0E 00         [ 7]  267 	ld	c, #0x00
   0106                     268 00107$:
   0106 79            [ 4]  269 	ld	a, c
   0107 D6 05         [ 7]  270 	sub	a, #0x05
   0109 D0            [11]  271 	ret	NC
                            272 ;src/juego/juego.c:93: dibujarGameObject(&rocasEspejo[i]);
   010A 06 00         [ 7]  273 	ld	b,#0x00
   010C 69            [ 4]  274 	ld	l, c
   010D 60            [ 4]  275 	ld	h, b
   010E 29            [11]  276 	add	hl, hl
   010F 29            [11]  277 	add	hl, hl
   0110 09            [11]  278 	add	hl, bc
   0111 11r1Fr00      [10]  279 	ld	de, #_rocasEspejo
   0114 19            [11]  280 	add	hl, de
   0115 C5            [11]  281 	push	bc
   0116 E5            [11]  282 	push	hl
   0117 CDr00r00      [17]  283 	call	_dibujarGameObject
   011A F1            [10]  284 	pop	af
   011B C1            [10]  285 	pop	bc
                            286 ;src/juego/juego.c:92: for (u8 i =0; i<RocasMaximas;i++){        
   011C 0C            [ 4]  287 	inc	c
   011D 18 E7         [12]  288 	jr	00107$
                            289 ;src/juego/juego.c:98: void comprobarMovimiento(){
                            290 ;	---------------------------------
                            291 ; Function comprobarMovimiento
                            292 ; ---------------------------------
   011F                     293 _comprobarMovimiento::
                            294 ;src/juego/juego.c:99: if(player.cronoMovimiento==0){
   011F 3Ar05r00      [13]  295 	ld	a, (#(_player + 0x0004) + 0)
   0122 B7            [ 4]  296 	or	a, a
   0123 20 05         [12]  297 	jr	NZ,00102$
                            298 ;src/juego/juego.c:100: movimientoGuardado=mover_SinMovimiento;
   0125 21r00r00      [10]  299 	ld	hl,#_movimientoGuardado + 0
   0128 36 00         [10]  300 	ld	(hl), #0x00
   012A                     301 00102$:
                            302 ;src/juego/juego.c:102: if(movimientoPlayer()!=mover_SinMovimiento){
   012A CDr00r00      [17]  303 	call	_movimientoPlayer
   012D 7D            [ 4]  304 	ld	a, l
   012E B7            [ 4]  305 	or	a, a
   012F C8            [11]  306 	ret	Z
                            307 ;src/juego/juego.c:103: movimientoGuardado=movimientoPlayer();
   0130 CDr00r00      [17]  308 	call	_movimientoPlayer
   0133 FD 21r00r00   [14]  309 	ld	iy, #_movimientoGuardado
   0137 FD 75 00      [19]  310 	ld	0 (iy), l
   013A C9            [10]  311 	ret
                            312 ;src/juego/juego.c:107: void resetGameobjects(){
                            313 ;	---------------------------------
                            314 ; Function resetGameobjects
                            315 ; ---------------------------------
   013B                     316 _resetGameobjects::
                            317 ;src/juego/juego.c:108: player.posx=0;
   013B 21r02r00      [10]  318 	ld	hl, #(_player + 0x0001)
   013E 36 00         [10]  319 	ld	(hl), #0x00
                            320 ;src/juego/juego.c:109: player.posy=0;   
   0140 21r03r00      [10]  321 	ld	hl, #(_player + 0x0002)
   0143 36 00         [10]  322 	ld	(hl), #0x00
                            323 ;src/juego/juego.c:110: player.sprite=sprite_Player;
   0145 21r04r00      [10]  324 	ld	hl, #(_player + 0x0003)
   0148 36 01         [10]  325 	ld	(hl), #0x01
                            326 ;src/juego/juego.c:112: for (u8 i=0;i<RocasMaximas;i++){
   014A 0E 00         [ 7]  327 	ld	c, #0x00
   014C                     328 00103$:
   014C 79            [ 4]  329 	ld	a, c
   014D D6 05         [ 7]  330 	sub	a, #0x05
   014F D0            [11]  331 	ret	NC
                            332 ;src/juego/juego.c:113: rocas[i].posx=0;
   0150 06 00         [ 7]  333 	ld	b,#0x00
   0152 69            [ 4]  334 	ld	l, c
   0153 60            [ 4]  335 	ld	h, b
   0154 29            [11]  336 	add	hl, hl
   0155 29            [11]  337 	add	hl, hl
   0156 09            [11]  338 	add	hl, bc
   0157 11r06r00      [10]  339 	ld	de, #_rocas
   015A 19            [11]  340 	add	hl, de
   015B 5D            [ 4]  341 	ld	e,l
   015C 54            [ 4]  342 	ld	d,h
   015D 23            [ 6]  343 	inc	hl
   015E 36 00         [10]  344 	ld	(hl), #0x00
                            345 ;src/juego/juego.c:114: rocas[i].posy=0;
   0160 6B            [ 4]  346 	ld	l, e
   0161 62            [ 4]  347 	ld	h, d
   0162 23            [ 6]  348 	inc	hl
   0163 23            [ 6]  349 	inc	hl
   0164 36 00         [10]  350 	ld	(hl), #0x00
                            351 ;src/juego/juego.c:115: rocas[i].sprite=sprite_SinDefinir;
   0166 13            [ 6]  352 	inc	de
   0167 13            [ 6]  353 	inc	de
   0168 13            [ 6]  354 	inc	de
   0169 AF            [ 4]  355 	xor	a, a
   016A 12            [ 7]  356 	ld	(de), a
                            357 ;src/juego/juego.c:112: for (u8 i=0;i<RocasMaximas;i++){
   016B 0C            [ 4]  358 	inc	c
   016C 18 DE         [12]  359 	jr	00103$
                            360 	.area _CODE
                            361 	.area _INITIALIZER
                            362 	.area _CABS (ABS)
