                              1 ;--------------------------------------------------------
                              2 ; File Created by SDCC : free open source ANSI-C Compiler
                              3 ; Version 3.6.8 #9946 (Linux)
                              4 ;--------------------------------------------------------
                              5 	.module juego
                              6 	.optsdcc -mz80
                              7 	
                              8 ;--------------------------------------------------------
                              9 ; Public variables in this module
                             10 ;--------------------------------------------------------
                             11 	.globl _crearNivel
                             12 	.globl _movimientoPlayer
                             13 	.globl _scanKey
                             14 	.globl _moverGameObject
                             15 	.globl _dibujarGameObject
                             16 	.globl _initGameobjest
                             17 	.globl _posicion
                             18 	.globl _puertas
                             19 	.globl _portal
                             20 	.globl _rocasEspejo
                             21 	.globl _rocas
                             22 	.globl _player
                             23 	.globl _game
                             24 	.globl _initGame
                             25 	.globl _moverPlayer
                             26 	.globl _createPlayer
                             27 	.globl _createRocas
                             28 	.globl _createRocasEspejo
                             29 	.globl _createPortal
                             30 	.globl _createPuerta
                             31 	.globl _createHole
                             32 	.globl _dibujarGameObjects
                             33 	.globl _comprobarMovimiento
                             34 	.globl _resetGameobjects
                             35 ;--------------------------------------------------------
                             36 ; special function registers
                             37 ;--------------------------------------------------------
                             38 ;--------------------------------------------------------
                             39 ; ram data
                             40 ;--------------------------------------------------------
                             41 	.area _DATA
   0000                      42 _P_portal:
   0000                      43 	.ds 2
   0002                      44 _P_puertas:
   0002                      45 	.ds 2
   0004                      46 _movimientoGuardado:
   0004                      47 	.ds 1
   0005                      48 _player::
   0005                      49 	.ds 6
   000B                      50 _rocas::
   000B                      51 	.ds 240
   00FB                      52 _rocasEspejo::
   00FB                      53 	.ds 240
   01EB                      54 _portal::
   01EB                      55 	.ds 12
   01F7                      56 _puertas::
   01F7                      57 	.ds 60
   0233                      58 _posicion::
   0233                      59 	.ds 1
                             60 ;--------------------------------------------------------
                             61 ; ram data
                             62 ;--------------------------------------------------------
                             63 	.area _INITIALIZED
                             64 ;--------------------------------------------------------
                             65 ; absolute external ram data
                             66 ;--------------------------------------------------------
                             67 	.area _DABS (ABS)
                             68 ;--------------------------------------------------------
                             69 ; global & static initialisations
                             70 ;--------------------------------------------------------
                             71 	.area _HOME
                             72 	.area _GSINIT
                             73 	.area _GSFINAL
                             74 	.area _GSINIT
                             75 ;--------------------------------------------------------
                             76 ; Home
                             77 ;--------------------------------------------------------
                             78 	.area _HOME
                             79 	.area _HOME
                             80 ;--------------------------------------------------------
                             81 ; code
                             82 ;--------------------------------------------------------
                             83 	.area _CODE
                             84 ;src/juego/juego.c:31: void game(){
                             85 ;	---------------------------------
                             86 ; Function game
                             87 ; ---------------------------------
   0000                      88 _game::
                             89 ;src/juego/juego.c:32: initGame();       
   0000 CDr0Er00      [17]   90 	call	_initGame
                             91 ;src/juego/juego.c:33: while(1){ 
   0003                      92 00102$:
                             93 ;src/juego/juego.c:34: scanKey();
   0003 CDr00r00      [17]   94 	call	_scanKey
                             95 ;src/juego/juego.c:35: comprobarMovimiento();      
   0006 CDrCBr01      [17]   96 	call	_comprobarMovimiento
                             97 ;src/juego/juego.c:36: moverPlayer();       
   0009 CDr38r00      [17]   98 	call	_moverPlayer
   000C 18 F5         [12]   99 	jr	00102$
                            100 ;src/juego/juego.c:39: void initGame(){
                            101 ;	---------------------------------
                            102 ; Function initGame
                            103 ; ---------------------------------
   000E                     104 _initGame::
                            105 ;src/juego/juego.c:40: posicion=posicion_Izquieda;
   000E 21r33r02      [10]  106 	ld	hl,#_posicion + 0
   0011 36 00         [10]  107 	ld	(hl), #0x00
                            108 ;src/juego/juego.c:41: crearNivel();
   0013 CDr00r00      [17]  109 	call	_crearNivel
                            110 ;src/juego/juego.c:42: createPlayer();
   0016 CDr86r00      [17]  111 	call	_createPlayer
                            112 ;src/juego/juego.c:43: createRocas();
   0019 CDrA0r00      [17]  113 	call	_createRocas
                            114 ;src/juego/juego.c:44: createRocasEspejo();
   001C CDrD3r00      [17]  115 	call	_createRocasEspejo
                            116 ;src/juego/juego.c:45: createPortal();
   001F CDr06r01      [17]  117 	call	_createPortal
                            118 ;src/juego/juego.c:46: createPuerta();
   0022 CDr25r01      [17]  119 	call	_createPuerta
                            120 ;src/juego/juego.c:47: createHole();
   0025 CDr3Ar01      [17]  121 	call	_createHole
                            122 ;src/juego/juego.c:48: initGameobjest(portal,puertas);
   0028 21rF7r01      [10]  123 	ld	hl, #_puertas
   002B E5            [11]  124 	push	hl
   002C 21rEBr01      [10]  125 	ld	hl, #_portal
   002F E5            [11]  126 	push	hl
   0030 CDr00r00      [17]  127 	call	_initGameobjest
   0033 F1            [10]  128 	pop	af
   0034 F1            [10]  129 	pop	af
                            130 ;src/juego/juego.c:49: dibujarGameObjects();    
   0035 C3r54r01      [10]  131 	jp  _dibujarGameObjects
                            132 ;src/juego/juego.c:51: void moverPlayer(){
                            133 ;	---------------------------------
                            134 ; Function moverPlayer
                            135 ; ---------------------------------
   0038                     136 _moverPlayer::
                            137 ;src/juego/juego.c:53: if(posicion==posicion_Izquieda){
   0038 3Ar33r02      [13]  138 	ld	a,(#_posicion + 0)
   003B B7            [ 4]  139 	or	a, a
   003C 20 22         [12]  140 	jr	NZ,00102$
                            141 ;src/juego/juego.c:54: nivel=moverGameObject(&player,movimientoGuardado,rocas,rocasEspejo,&posicion);
   003E 21r33r02      [10]  142 	ld	hl, #_posicion
   0041 E5            [11]  143 	push	hl
   0042 21rFBr00      [10]  144 	ld	hl, #_rocasEspejo
   0045 E5            [11]  145 	push	hl
   0046 21r0Br00      [10]  146 	ld	hl, #_rocas
   0049 E5            [11]  147 	push	hl
   004A 3Ar04r00      [13]  148 	ld	a, (_movimientoGuardado)
   004D F5            [11]  149 	push	af
   004E 33            [ 6]  150 	inc	sp
   004F 21r05r00      [10]  151 	ld	hl, #_player
   0052 E5            [11]  152 	push	hl
   0053 CDr00r00      [17]  153 	call	_moverGameObject
   0056 FD 21 09 00   [14]  154 	ld	iy, #9
   005A FD 39         [15]  155 	add	iy, sp
   005C FD F9         [10]  156 	ld	sp, iy
   005E 18 20         [12]  157 	jr	00103$
   0060                     158 00102$:
                            159 ;src/juego/juego.c:56: nivel=moverGameObject(&player,movimientoGuardado,rocasEspejo,rocas,&posicion);
   0060 21r33r02      [10]  160 	ld	hl, #_posicion
   0063 E5            [11]  161 	push	hl
   0064 21r0Br00      [10]  162 	ld	hl, #_rocas
   0067 E5            [11]  163 	push	hl
   0068 21rFBr00      [10]  164 	ld	hl, #_rocasEspejo
   006B E5            [11]  165 	push	hl
   006C 3Ar04r00      [13]  166 	ld	a, (_movimientoGuardado)
   006F F5            [11]  167 	push	af
   0070 33            [ 6]  168 	inc	sp
   0071 21r05r00      [10]  169 	ld	hl, #_player
   0074 E5            [11]  170 	push	hl
   0075 CDr00r00      [17]  171 	call	_moverGameObject
   0078 FD 21 09 00   [14]  172 	ld	iy, #9
   007C FD 39         [15]  173 	add	iy, sp
   007E FD F9         [10]  174 	ld	sp, iy
   0080                     175 00103$:
                            176 ;src/juego/juego.c:59: if(nivel!=seguir_En_Nivel){
   0080 7D            [ 4]  177 	ld	a, l
   0081 B7            [ 4]  178 	or	a, a
   0082 C8            [11]  179 	ret	Z
                            180 ;src/juego/juego.c:60: resetGameobjects();
   0083 C3rE7r01      [10]  181 	jp  _resetGameobjects
                            182 ;src/juego/juego.c:63: void createPlayer(){
                            183 ;	---------------------------------
                            184 ; Function createPlayer
                            185 ; ---------------------------------
   0086                     186 _createPlayer::
                            187 ;src/juego/juego.c:64: player.num=-1;
   0086 21r05r00      [10]  188 	ld	hl, #_player
   0089 36 FF         [10]  189 	ld	(hl), #0xff
                            190 ;src/juego/juego.c:65: player.posx=1;
   008B 21r06r00      [10]  191 	ld	hl, #(_player + 0x0001)
   008E 36 01         [10]  192 	ld	(hl), #0x01
                            193 ;src/juego/juego.c:66: player.posy=1;   
   0090 21r07r00      [10]  194 	ld	hl, #(_player + 0x0002)
   0093 36 01         [10]  195 	ld	(hl), #0x01
                            196 ;src/juego/juego.c:67: player.sprite=sprite_Player;
   0095 21r08r00      [10]  197 	ld	hl, #(_player + 0x0003)
   0098 36 01         [10]  198 	ld	(hl), #0x01
                            199 ;src/juego/juego.c:68: player.movimiento=mover_1;
   009A 21r09r00      [10]  200 	ld	hl, #(_player + 0x0004)
   009D 36 01         [10]  201 	ld	(hl), #0x01
   009F C9            [10]  202 	ret
                            203 ;src/juego/juego.c:70: void createRocas(){
                            204 ;	---------------------------------
                            205 ; Function createRocas
                            206 ; ---------------------------------
   00A0                     207 _createRocas::
                            208 ;src/juego/juego.c:71: rocas[0].num=1;
   00A0 21r0Br00      [10]  209 	ld	hl, #_rocas
   00A3 36 01         [10]  210 	ld	(hl), #0x01
                            211 ;src/juego/juego.c:72: rocas[0].posx=3;
   00A5 21r0Cr00      [10]  212 	ld	hl, #(_rocas + 0x0001)
   00A8 36 03         [10]  213 	ld	(hl), #0x03
                            214 ;src/juego/juego.c:73: rocas[0].posy=3;
   00AA 21r0Dr00      [10]  215 	ld	hl, #(_rocas + 0x0002)
   00AD 36 03         [10]  216 	ld	(hl), #0x03
                            217 ;src/juego/juego.c:74: rocas[0].sprite=sprite_RockLineal;
   00AF 21r0Er00      [10]  218 	ld	hl, #(_rocas + 0x0003)
   00B2 36 04         [10]  219 	ld	(hl), #0x04
                            220 ;src/juego/juego.c:75: rocas[0].movimiento=mover_Linea;
   00B4 21r0Fr00      [10]  221 	ld	hl, #(_rocas + 0x0004)
   00B7 36 02         [10]  222 	ld	(hl), #0x02
                            223 ;src/juego/juego.c:78: rocas[1].num=2;
   00B9 21r11r00      [10]  224 	ld	hl, #(_rocas + 0x0006)
   00BC 36 02         [10]  225 	ld	(hl), #0x02
                            226 ;src/juego/juego.c:79: rocas[1].posx=4;
   00BE 21r12r00      [10]  227 	ld	hl, #(_rocas + 0x0007)
   00C1 36 04         [10]  228 	ld	(hl), #0x04
                            229 ;src/juego/juego.c:80: rocas[1].posy=3;
   00C3 21r13r00      [10]  230 	ld	hl, #(_rocas + 0x0008)
   00C6 36 03         [10]  231 	ld	(hl), #0x03
                            232 ;src/juego/juego.c:81: rocas[1].sprite=sprite_Rock;
   00C8 21r14r00      [10]  233 	ld	hl, #(_rocas + 0x0009)
   00CB 36 02         [10]  234 	ld	(hl), #0x02
                            235 ;src/juego/juego.c:82: rocas[1].movimiento=mover_1;
   00CD 21r15r00      [10]  236 	ld	hl, #(_rocas + 0x000a)
   00D0 36 01         [10]  237 	ld	(hl), #0x01
   00D2 C9            [10]  238 	ret
                            239 ;src/juego/juego.c:95: void createRocasEspejo(){
                            240 ;	---------------------------------
                            241 ; Function createRocasEspejo
                            242 ; ---------------------------------
   00D3                     243 _createRocasEspejo::
                            244 ;src/juego/juego.c:96: rocasEspejo[0].num=1;
   00D3 21rFBr00      [10]  245 	ld	hl, #_rocasEspejo
   00D6 36 01         [10]  246 	ld	(hl), #0x01
                            247 ;src/juego/juego.c:97: rocasEspejo[0].posx=14;
   00D8 21rFCr00      [10]  248 	ld	hl, #(_rocasEspejo + 0x0001)
   00DB 36 0E         [10]  249 	ld	(hl), #0x0e
                            250 ;src/juego/juego.c:98: rocasEspejo[0].posy=5;
   00DD 21rFDr00      [10]  251 	ld	hl, #(_rocasEspejo + 0x0002)
   00E0 36 05         [10]  252 	ld	(hl), #0x05
                            253 ;src/juego/juego.c:99: rocasEspejo[0].sprite=sprite_RockLineal;
   00E2 21rFEr00      [10]  254 	ld	hl, #(_rocasEspejo + 0x0003)
   00E5 36 04         [10]  255 	ld	(hl), #0x04
                            256 ;src/juego/juego.c:100: rocasEspejo[0].movimiento=mover_Linea;
   00E7 21rFFr00      [10]  257 	ld	hl, #(_rocasEspejo + 0x0004)
   00EA 36 02         [10]  258 	ld	(hl), #0x02
                            259 ;src/juego/juego.c:103: rocasEspejo[1].num=2;
   00EC 21r01r01      [10]  260 	ld	hl, #(_rocasEspejo + 0x0006)
   00EF 36 02         [10]  261 	ld	(hl), #0x02
                            262 ;src/juego/juego.c:104: rocasEspejo[1].posx=14;
   00F1 21r02r01      [10]  263 	ld	hl, #(_rocasEspejo + 0x0007)
   00F4 36 0E         [10]  264 	ld	(hl), #0x0e
                            265 ;src/juego/juego.c:105: rocasEspejo[1].posy=6;
   00F6 21r03r01      [10]  266 	ld	hl, #(_rocasEspejo + 0x0008)
   00F9 36 06         [10]  267 	ld	(hl), #0x06
                            268 ;src/juego/juego.c:106: rocasEspejo[1].sprite=sprite_Rock;
   00FB 21r04r01      [10]  269 	ld	hl, #(_rocasEspejo + 0x0009)
   00FE 36 02         [10]  270 	ld	(hl), #0x02
                            271 ;src/juego/juego.c:107: rocasEspejo[1].movimiento=mover_1;
   0100 21r05r01      [10]  272 	ld	hl, #(_rocasEspejo + 0x000a)
   0103 36 01         [10]  273 	ld	(hl), #0x01
   0105 C9            [10]  274 	ret
                            275 ;src/juego/juego.c:124: void createPortal(){
                            276 ;	---------------------------------
                            277 ; Function createPortal
                            278 ; ---------------------------------
   0106                     279 _createPortal::
                            280 ;src/juego/juego.c:125: portal[0].posx=7;
   0106 21rECr01      [10]  281 	ld	hl, #(_portal + 0x0001)
   0109 36 07         [10]  282 	ld	(hl), #0x07
                            283 ;src/juego/juego.c:126: portal[0].posy=4;
   010B 21rEDr01      [10]  284 	ld	hl, #(_portal + 0x0002)
   010E 36 04         [10]  285 	ld	(hl), #0x04
                            286 ;src/juego/juego.c:127: portal[0].sprite=sprite_Portal;
   0110 21rEEr01      [10]  287 	ld	hl, #(_portal + 0x0003)
   0113 36 05         [10]  288 	ld	(hl), #0x05
                            289 ;src/juego/juego.c:129: portal[1].posx=9;
   0115 21rF2r01      [10]  290 	ld	hl, #(_portal + 0x0007)
   0118 36 09         [10]  291 	ld	(hl), #0x09
                            292 ;src/juego/juego.c:130: portal[1].posy=4;
   011A 21rF3r01      [10]  293 	ld	hl, #(_portal + 0x0008)
   011D 36 04         [10]  294 	ld	(hl), #0x04
                            295 ;src/juego/juego.c:131: portal[1].sprite=sprite_Portal;
   011F 21rF4r01      [10]  296 	ld	hl, #(_portal + 0x0009)
   0122 36 05         [10]  297 	ld	(hl), #0x05
   0124 C9            [10]  298 	ret
                            299 ;src/juego/juego.c:133: void createPuerta(){
                            300 ;	---------------------------------
                            301 ; Function createPuerta
                            302 ; ---------------------------------
   0125                     303 _createPuerta::
                            304 ;src/juego/juego.c:134: puertas[0].num=nivel_2;
   0125 21rF7r01      [10]  305 	ld	hl, #_puertas
   0128 36 02         [10]  306 	ld	(hl), #0x02
                            307 ;src/juego/juego.c:135: puertas[0].posx=1;
   012A 21rF8r01      [10]  308 	ld	hl, #(_puertas + 0x0001)
   012D 36 01         [10]  309 	ld	(hl), #0x01
                            310 ;src/juego/juego.c:136: puertas[0].posy=7;
   012F 21rF9r01      [10]  311 	ld	hl, #(_puertas + 0x0002)
   0132 36 07         [10]  312 	ld	(hl), #0x07
                            313 ;src/juego/juego.c:137: puertas[0].sprite=sprite_Puerta;
   0134 21rFAr01      [10]  314 	ld	hl, #(_puertas + 0x0003)
   0137 36 06         [10]  315 	ld	(hl), #0x06
   0139 C9            [10]  316 	ret
                            317 ;src/juego/juego.c:139: void createHole(){
                            318 ;	---------------------------------
                            319 ; Function createHole
                            320 ; ---------------------------------
   013A                     321 _createHole::
                            322 ;src/juego/juego.c:140: rocas[3].num=0;
   013A 21r1Dr00      [10]  323 	ld	hl, #(_rocas + 0x0012)
   013D 36 00         [10]  324 	ld	(hl), #0x00
                            325 ;src/juego/juego.c:141: rocas[3].posx=6;
   013F 21r1Er00      [10]  326 	ld	hl, #(_rocas + 0x0013)
   0142 36 06         [10]  327 	ld	(hl), #0x06
                            328 ;src/juego/juego.c:142: rocas[3].posy=3;
   0144 21r1Fr00      [10]  329 	ld	hl, #(_rocas + 0x0014)
   0147 36 03         [10]  330 	ld	(hl), #0x03
                            331 ;src/juego/juego.c:143: rocas[3].sprite=sprite_hole;
   0149 21r20r00      [10]  332 	ld	hl, #(_rocas + 0x0015)
   014C 36 07         [10]  333 	ld	(hl), #0x07
                            334 ;src/juego/juego.c:144: rocas[3].movimiento=sin_Movimiento;
   014E 21r21r00      [10]  335 	ld	hl, #(_rocas + 0x0016)
   0151 36 00         [10]  336 	ld	(hl), #0x00
   0153 C9            [10]  337 	ret
                            338 ;src/juego/juego.c:148: void dibujarGameObjects(){
                            339 ;	---------------------------------
                            340 ; Function dibujarGameObjects
                            341 ; ---------------------------------
   0154                     342 _dibujarGameObjects::
                            343 ;src/juego/juego.c:149: dibujarGameObject(&player);
   0154 21r05r00      [10]  344 	ld	hl, #_player
   0157 E5            [11]  345 	push	hl
   0158 CDr00r00      [17]  346 	call	_dibujarGameObject
   015B F1            [10]  347 	pop	af
                            348 ;src/juego/juego.c:150: for (u8 i =0; i<RocasMaximas;i++){        
   015C 0E 00         [ 7]  349 	ld	c, #0x00
   015E                     350 00106$:
   015E 79            [ 4]  351 	ld	a, c
   015F D6 28         [ 7]  352 	sub	a, #0x28
   0161 30 15         [12]  353 	jr	NC,00101$
                            354 ;src/juego/juego.c:151: dibujarGameObject(&rocas[i]);
   0163 06 00         [ 7]  355 	ld	b,#0x00
   0165 69            [ 4]  356 	ld	l, c
   0166 60            [ 4]  357 	ld	h, b
   0167 29            [11]  358 	add	hl, hl
   0168 09            [11]  359 	add	hl, bc
   0169 29            [11]  360 	add	hl, hl
   016A 11r0Br00      [10]  361 	ld	de, #_rocas
   016D 19            [11]  362 	add	hl, de
   016E C5            [11]  363 	push	bc
   016F E5            [11]  364 	push	hl
   0170 CDr00r00      [17]  365 	call	_dibujarGameObject
   0173 F1            [10]  366 	pop	af
   0174 C1            [10]  367 	pop	bc
                            368 ;src/juego/juego.c:150: for (u8 i =0; i<RocasMaximas;i++){        
   0175 0C            [ 4]  369 	inc	c
   0176 18 E6         [12]  370 	jr	00106$
   0178                     371 00101$:
                            372 ;src/juego/juego.c:154: for (u8 i =0; i<RocasMaximas;i++){        
   0178 0E 00         [ 7]  373 	ld	c, #0x00
   017A                     374 00109$:
   017A 79            [ 4]  375 	ld	a, c
   017B D6 28         [ 7]  376 	sub	a, #0x28
   017D 30 15         [12]  377 	jr	NC,00102$
                            378 ;src/juego/juego.c:155: dibujarGameObject(&rocasEspejo[i]);
   017F 06 00         [ 7]  379 	ld	b,#0x00
   0181 69            [ 4]  380 	ld	l, c
   0182 60            [ 4]  381 	ld	h, b
   0183 29            [11]  382 	add	hl, hl
   0184 09            [11]  383 	add	hl, bc
   0185 29            [11]  384 	add	hl, hl
   0186 11rFBr00      [10]  385 	ld	de, #_rocasEspejo
   0189 19            [11]  386 	add	hl, de
   018A C5            [11]  387 	push	bc
   018B E5            [11]  388 	push	hl
   018C CDr00r00      [17]  389 	call	_dibujarGameObject
   018F F1            [10]  390 	pop	af
   0190 C1            [10]  391 	pop	bc
                            392 ;src/juego/juego.c:154: for (u8 i =0; i<RocasMaximas;i++){        
   0191 0C            [ 4]  393 	inc	c
   0192 18 E6         [12]  394 	jr	00109$
   0194                     395 00102$:
                            396 ;src/juego/juego.c:158: for(u8 i=0;i<2;i++){
   0194 0E 00         [ 7]  397 	ld	c, #0x00
   0196                     398 00112$:
   0196 79            [ 4]  399 	ld	a, c
   0197 D6 02         [ 7]  400 	sub	a, #0x02
   0199 30 15         [12]  401 	jr	NC,00103$
                            402 ;src/juego/juego.c:159: dibujarGameObject(&portal[i]);
   019B 06 00         [ 7]  403 	ld	b,#0x00
   019D 69            [ 4]  404 	ld	l, c
   019E 60            [ 4]  405 	ld	h, b
   019F 29            [11]  406 	add	hl, hl
   01A0 09            [11]  407 	add	hl, bc
   01A1 29            [11]  408 	add	hl, hl
   01A2 11rEBr01      [10]  409 	ld	de, #_portal
   01A5 19            [11]  410 	add	hl, de
   01A6 C5            [11]  411 	push	bc
   01A7 E5            [11]  412 	push	hl
   01A8 CDr00r00      [17]  413 	call	_dibujarGameObject
   01AB F1            [10]  414 	pop	af
   01AC C1            [10]  415 	pop	bc
                            416 ;src/juego/juego.c:158: for(u8 i=0;i<2;i++){
   01AD 0C            [ 4]  417 	inc	c
   01AE 18 E6         [12]  418 	jr	00112$
   01B0                     419 00103$:
                            420 ;src/juego/juego.c:161: for(u8 i=0;i<2;i++){
   01B0 0E 00         [ 7]  421 	ld	c, #0x00
   01B2                     422 00115$:
   01B2 79            [ 4]  423 	ld	a, c
   01B3 D6 02         [ 7]  424 	sub	a, #0x02
   01B5 D0            [11]  425 	ret	NC
                            426 ;src/juego/juego.c:162: dibujarGameObject(&puertas[i]);
   01B6 06 00         [ 7]  427 	ld	b,#0x00
   01B8 69            [ 4]  428 	ld	l, c
   01B9 60            [ 4]  429 	ld	h, b
   01BA 29            [11]  430 	add	hl, hl
   01BB 09            [11]  431 	add	hl, bc
   01BC 29            [11]  432 	add	hl, hl
   01BD 11rF7r01      [10]  433 	ld	de, #_puertas
   01C0 19            [11]  434 	add	hl, de
   01C1 C5            [11]  435 	push	bc
   01C2 E5            [11]  436 	push	hl
   01C3 CDr00r00      [17]  437 	call	_dibujarGameObject
   01C6 F1            [10]  438 	pop	af
   01C7 C1            [10]  439 	pop	bc
                            440 ;src/juego/juego.c:161: for(u8 i=0;i<2;i++){
   01C8 0C            [ 4]  441 	inc	c
   01C9 18 E7         [12]  442 	jr	00115$
                            443 ;src/juego/juego.c:166: void comprobarMovimiento(){
                            444 ;	---------------------------------
                            445 ; Function comprobarMovimiento
                            446 ; ---------------------------------
   01CB                     447 _comprobarMovimiento::
                            448 ;src/juego/juego.c:167: if(player.cronoMovimiento==0){
   01CB 3Ar0Ar00      [13]  449 	ld	a, (#(_player + 0x0005) + 0)
   01CE B7            [ 4]  450 	or	a, a
   01CF 20 05         [12]  451 	jr	NZ,00102$
                            452 ;src/juego/juego.c:168: movimientoGuardado=mover_SinMovimiento;
   01D1 21r04r00      [10]  453 	ld	hl,#_movimientoGuardado + 0
   01D4 36 00         [10]  454 	ld	(hl), #0x00
   01D6                     455 00102$:
                            456 ;src/juego/juego.c:170: if(movimientoPlayer()!=mover_SinMovimiento){
   01D6 CDr00r00      [17]  457 	call	_movimientoPlayer
   01D9 7D            [ 4]  458 	ld	a, l
   01DA B7            [ 4]  459 	or	a, a
   01DB C8            [11]  460 	ret	Z
                            461 ;src/juego/juego.c:171: movimientoGuardado=movimientoPlayer();
   01DC CDr00r00      [17]  462 	call	_movimientoPlayer
   01DF FD 21r04r00   [14]  463 	ld	iy, #_movimientoGuardado
   01E3 FD 75 00      [19]  464 	ld	0 (iy), l
   01E6 C9            [10]  465 	ret
                            466 ;src/juego/juego.c:175: void resetGameobjects(){
                            467 ;	---------------------------------
                            468 ; Function resetGameobjects
                            469 ; ---------------------------------
   01E7                     470 _resetGameobjects::
                            471 ;src/juego/juego.c:176: posicion=posicion_Izquieda;
   01E7 21r33r02      [10]  472 	ld	hl,#_posicion + 0
   01EA 36 00         [10]  473 	ld	(hl), #0x00
                            474 ;src/juego/juego.c:177: crearNivel();
   01EC CDr00r00      [17]  475 	call	_crearNivel
                            476 ;src/juego/juego.c:178: createPlayer();
   01EF CDr86r00      [17]  477 	call	_createPlayer
                            478 ;src/juego/juego.c:179: createRocas();
   01F2 CDrA0r00      [17]  479 	call	_createRocas
                            480 ;src/juego/juego.c:180: createRocasEspejo();
   01F5 CDrD3r00      [17]  481 	call	_createRocasEspejo
                            482 ;src/juego/juego.c:181: createPortal();
   01F8 CDr06r01      [17]  483 	call	_createPortal
                            484 ;src/juego/juego.c:182: createPuerta();
   01FB CDr25r01      [17]  485 	call	_createPuerta
                            486 ;src/juego/juego.c:183: createHole();
   01FE CDr3Ar01      [17]  487 	call	_createHole
                            488 ;src/juego/juego.c:184: initGameobjest(portal,puertas);
   0201 21rF7r01      [10]  489 	ld	hl, #_puertas
   0204 E5            [11]  490 	push	hl
   0205 21rEBr01      [10]  491 	ld	hl, #_portal
   0208 E5            [11]  492 	push	hl
   0209 CDr00r00      [17]  493 	call	_initGameobjest
   020C F1            [10]  494 	pop	af
   020D F1            [10]  495 	pop	af
                            496 ;src/juego/juego.c:185: dibujarGameObjects();  
   020E C3r54r01      [10]  497 	jp  _dibujarGameObjects
                            498 	.area _CODE
                            499 	.area _INITIALIZER
                            500 	.area _CABS (ABS)
