                              1 ;--------------------------------------------------------
                              2 ; File Created by SDCC : free open source ANSI-C Compiler
                              3 ; Version 3.6.8 #9946 (Linux)
                              4 ;--------------------------------------------------------
                              5 	.module juego
                              6 	.optsdcc -mz80
                              7 	
                              8 ;--------------------------------------------------------
                              9 ; Public variables in this module
                             10 ;--------------------------------------------------------
                             11 	.globl _crearEnemigos
                             12 	.globl _initEnemigos
                             13 	.globl _initDialogos
                             14 	.globl _initHud
                             15 	.globl _crearNivel
                             16 	.globl _initNiveles
                             17 	.globl _movimientoPlayer
                             18 	.globl _keyR
                             19 	.globl _scanKey
                             20 	.globl _moverGameObject
                             21 	.globl _dibujarGameObjectCol
                             22 	.globl _dibujarGameObject
                             23 	.globl _initGameobjest
                             24 	.globl _cpct_akp_SFXInit
                             25 	.globl _cpct_akp_stop
                             26 	.globl _cpct_akp_musicPlay
                             27 	.globl _cpct_akp_musicInit
                             28 	.globl _cpct_waitVSYNC
                             29 	.globl _frecuenciaIA
                             30 	.globl _pasos
                             31 	.globl _nivelActual
                             32 	.globl _coleccionablesAms
                             33 	.globl _coleccionablesFam
                             34 	.globl _coleccionablesLuz
                             35 	.globl _posicion
                             36 	.globl _colList
                             37 	.globl _coleccionables
                             38 	.globl _puertas
                             39 	.globl _portal
                             40 	.globl _rocasEspejo
                             41 	.globl _rocas
                             42 	.globl _player
                             43 	.globl _game
                             44 	.globl _initGame
                             45 	.globl _moverPlayer
                             46 	.globl _dibujarGameObjects
                             47 	.globl _comprobarMovimiento
                             48 	.globl _comprobarPasos
                             49 	.globl _resetGameobjects
                             50 ;--------------------------------------------------------
                             51 ; special function registers
                             52 ;--------------------------------------------------------
                             53 ;--------------------------------------------------------
                             54 ; ram data
                             55 ;--------------------------------------------------------
                             56 	.area _DATA
   0000                      57 _P_portal:
   0000                      58 	.ds 2
   0002                      59 _P_puertas:
   0002                      60 	.ds 2
   0004                      61 _P_col:
   0004                      62 	.ds 2
   0006                      63 _P_luz:
   0006                      64 	.ds 2
   0008                      65 _P_fam:
   0008                      66 	.ds 2
   000A                      67 _P_ams:
   000A                      68 	.ds 2
   000C                      69 _P_colList:
   000C                      70 	.ds 2
   000E                      71 _movimientoGuardado:
   000E                      72 	.ds 1
   000F                      73 _niveles:
   000F                      74 	.ds 100
   0073                      75 _contadorRocas:
   0073                      76 	.ds 1
   0074                      77 _contadorRocasEspejo:
   0074                      78 	.ds 1
   0075                      79 _contadorPuertas:
   0075                      80 	.ds 1
   0076                      81 _contadorColeccionables:
   0076                      82 	.ds 1
   0077                      83 _P_colList2:
   0077                      84 	.ds 2
   0079                      85 _dialogos:
   0079                      86 	.ds 100
   00DD                      87 _creadorDeEnemigos:
   00DD                      88 	.ds 100
   0141                      89 _player::
   0141                      90 	.ds 7
   0148                      91 _rocas::
   0148                      92 	.ds 280
   0260                      93 _rocasEspejo::
   0260                      94 	.ds 280
   0378                      95 _portal::
   0378                      96 	.ds 14
   0386                      97 _puertas::
   0386                      98 	.ds 70
   03CC                      99 _coleccionables::
   03CC                     100 	.ds 12
   03D8                     101 _colList::
   03D8                     102 	.ds 50
   040A                     103 _posicion::
   040A                     104 	.ds 1
   040B                     105 _coleccionablesLuz::
   040B                     106 	.ds 1
   040C                     107 _coleccionablesFam::
   040C                     108 	.ds 1
   040D                     109 _coleccionablesAms::
   040D                     110 	.ds 1
   040E                     111 _nivelActual::
   040E                     112 	.ds 1
   040F                     113 _pasos::
   040F                     114 	.ds 1
   0410                     115 _frecuenciaIA::
   0410                     116 	.ds 1
                            117 ;--------------------------------------------------------
                            118 ; ram data
                            119 ;--------------------------------------------------------
                            120 	.area _INITIALIZED
                            121 ;--------------------------------------------------------
                            122 ; absolute external ram data
                            123 ;--------------------------------------------------------
                            124 	.area _DABS (ABS)
                            125 ;--------------------------------------------------------
                            126 ; global & static initialisations
                            127 ;--------------------------------------------------------
                            128 	.area _HOME
                            129 	.area _GSINIT
                            130 	.area _GSFINAL
                            131 	.area _GSINIT
                            132 ;--------------------------------------------------------
                            133 ; Home
                            134 ;--------------------------------------------------------
                            135 	.area _HOME
                            136 	.area _HOME
                            137 ;--------------------------------------------------------
                            138 ; code
                            139 ;--------------------------------------------------------
                            140 	.area _CODE
                            141 ;src/juego/juego.c:38: void game(){
                            142 ;	---------------------------------
                            143 ; Function game
                            144 ; ---------------------------------
   0000                     145 _game::
                            146 ;src/juego/juego.c:39: initGame();
   0000 CDr48r00      [17]  147 	call	_initGame
                            148 ;src/juego/juego.c:40: cpct_akp_musicInit(molusk);    // Initialize the music
   0003 21r00r00      [10]  149 	ld	hl, #_molusk
   0006 E5            [11]  150 	push	hl
   0007 CDr00r00      [17]  151 	call	_cpct_akp_musicInit
                            152 ;src/juego/juego.c:41: cpct_akp_SFXInit(molusk);      // Initialize instruments to be used for SFX (Same as music song)
   000A 21r00r00      [10]  153 	ld	hl, #_molusk
   000D E3            [19]  154 	ex	(sp),hl
   000E CDr00r00      [17]  155 	call	_cpct_akp_SFXInit
   0011 F1            [10]  156 	pop	af
                            157 ;src/juego/juego.c:43: while(1){
   0012                     158 00108$:
                            159 ;src/juego/juego.c:44: cpct_waitVSYNC();        
   0012 CDr00r00      [17]  160 	call	_cpct_waitVSYNC
                            161 ;src/juego/juego.c:45: cpct_akp_musicPlay();
   0015 CDr00r00      [17]  162 	call	_cpct_akp_musicPlay
                            163 ;src/juego/juego.c:46: frecuenciaIA--;
   0018 21r10r04      [10]  164 	ld	hl, #_frecuenciaIA+0
   001B 35            [11]  165 	dec	(hl)
                            166 ;src/juego/juego.c:49: scanKey();
   001C CDr00r00      [17]  167 	call	_scanKey
                            168 ;src/juego/juego.c:50: if(keyR()==si){            
   001F CDr00r00      [17]  169 	call	_keyR
   0022 7D            [ 4]  170 	ld	a, l
   0023 B7            [ 4]  171 	or	a, a
   0024 20 09         [12]  172 	jr	NZ,00102$
                            173 ;src/juego/juego.c:51: resetGameobjects(nivelActual);
   0026 3Ar0Er04      [13]  174 	ld	a, (_nivelActual)
   0029 F5            [11]  175 	push	af
   002A 33            [ 6]  176 	inc	sp
   002B CDr02r02      [17]  177 	call	_resetGameobjects
   002E 33            [ 6]  178 	inc	sp
   002F                     179 00102$:
                            180 ;src/juego/juego.c:53: comprobarMovimiento();      
   002F CDrCFr01      [17]  181 	call	_comprobarMovimiento
                            182 ;src/juego/juego.c:54: moverPlayer();
   0032 CDrE2r00      [17]  183 	call	_moverPlayer
                            184 ;src/juego/juego.c:56: if(comprobarPasos()==si){
   0035 CDrEBr01      [17]  185 	call	_comprobarPasos
                            186 ;src/juego/juego.c:62: if(frecuenciaIA==0){
   0038 FD 21r10r04   [14]  187 	ld	iy, #_frecuenciaIA
   003C FD 7E 00      [19]  188 	ld	a, 0 (iy)
   003F B7            [ 4]  189 	or	a, a
   0040 20 D0         [12]  190 	jr	NZ,00108$
                            191 ;src/juego/juego.c:63: frecuenciaIA=frecuenciaMaxIA;
   0042 FD 36 00 14   [19]  192 	ld	0 (iy), #0x14
   0046 18 CA         [12]  193 	jr	00108$
                            194 ;src/juego/juego.c:68: void initGame(){
                            195 ;	---------------------------------
                            196 ; Function initGame
                            197 ; ---------------------------------
   0048                     198 _initGame::
                            199 ;src/juego/juego.c:69: for(u8 i =0;i<ColeccionablesMaximosTotales;i++){
   0048 01rD8r03      [10]  200 	ld	bc, #_colList+0
   004B 1E 00         [ 7]  201 	ld	e, #0x00
   004D                     202 00103$:
   004D 7B            [ 4]  203 	ld	a, e
   004E D6 32         [ 7]  204 	sub	a, #0x32
   0050 30 09         [12]  205 	jr	NC,00101$
                            206 ;src/juego/juego.c:70: colList[i]=coleccionable_activo;
   0052 6B            [ 4]  207 	ld	l,e
   0053 26 00         [ 7]  208 	ld	h,#0x00
   0055 09            [11]  209 	add	hl, bc
   0056 36 00         [10]  210 	ld	(hl), #0x00
                            211 ;src/juego/juego.c:69: for(u8 i =0;i<ColeccionablesMaximosTotales;i++){
   0058 1C            [ 4]  212 	inc	e
   0059 18 F2         [12]  213 	jr	00103$
   005B                     214 00101$:
                            215 ;src/juego/juego.c:72: posicion=posicion_Izquieda;
   005B 21r0Ar04      [10]  216 	ld	hl,#_posicion + 0
   005E 36 00         [10]  217 	ld	(hl), #0x00
                            218 ;src/juego/juego.c:73: coleccionablesLuz=0;
   0060 21r0Br04      [10]  219 	ld	hl,#_coleccionablesLuz + 0
   0063 36 00         [10]  220 	ld	(hl), #0x00
                            221 ;src/juego/juego.c:74: coleccionablesFam=0;
   0065 21r0Cr04      [10]  222 	ld	hl,#_coleccionablesFam + 0
   0068 36 00         [10]  223 	ld	(hl), #0x00
                            224 ;src/juego/juego.c:75: coleccionablesAms=0;
   006A 21r0Dr04      [10]  225 	ld	hl,#_coleccionablesAms + 0
   006D 36 00         [10]  226 	ld	(hl), #0x00
                            227 ;src/juego/juego.c:76: nivelActual=nivel_01;
   006F 21r0Er04      [10]  228 	ld	hl,#_nivelActual + 0
   0072 36 01         [10]  229 	ld	(hl), #0x01
                            230 ;src/juego/juego.c:77: pasos=0;
   0074 21r0Fr04      [10]  231 	ld	hl,#_pasos + 0
   0077 36 00         [10]  232 	ld	(hl), #0x00
                            233 ;src/juego/juego.c:78: frecuenciaIA=frecuenciaMaxIA;
   0079 21r10r04      [10]  234 	ld	hl,#_frecuenciaIA + 0
   007C 36 14         [10]  235 	ld	(hl), #0x14
                            236 ;src/juego/juego.c:79: initNiveles(colList);
   007E 59            [ 4]  237 	ld	e, c
   007F 50            [ 4]  238 	ld	d, b
   0080 C5            [11]  239 	push	bc
   0081 D5            [11]  240 	push	de
   0082 CDr00r00      [17]  241 	call	_initNiveles
   0085 21r0Dr04      [10]  242 	ld	hl, #_coleccionablesAms
   0088 E3            [19]  243 	ex	(sp),hl
   0089 21r0Cr04      [10]  244 	ld	hl, #_coleccionablesFam
   008C E5            [11]  245 	push	hl
   008D 21r0Br04      [10]  246 	ld	hl, #_coleccionablesLuz
   0090 E5            [11]  247 	push	hl
   0091 21rCCr03      [10]  248 	ld	hl, #_coleccionables
   0094 E5            [11]  249 	push	hl
   0095 21r86r03      [10]  250 	ld	hl, #_puertas
   0098 E5            [11]  251 	push	hl
   0099 21r78r03      [10]  252 	ld	hl, #_portal
   009C E5            [11]  253 	push	hl
   009D CDr00r00      [17]  254 	call	_initGameobjest
   00A0 21 0E 00      [10]  255 	ld	hl, #14
   00A3 39            [11]  256 	add	hl, sp
   00A4 F9            [ 6]  257 	ld	sp, hl
                            258 ;src/juego/juego.c:81: initHud();
   00A5 CDr00r00      [17]  259 	call	_initHud
                            260 ;src/juego/juego.c:82: initDialogos();
   00A8 CDr00r00      [17]  261 	call	_initDialogos
                            262 ;src/juego/juego.c:83: initEnemigos();
   00AB CDr00r00      [17]  263 	call	_initEnemigos
                            264 ;src/juego/juego.c:84: crearNivel(&player,rocas,rocasEspejo,puertas,portal,coleccionables,&posicion,nivel_01);
   00AE 3E 01         [ 7]  265 	ld	a, #0x01
   00B0 F5            [11]  266 	push	af
   00B1 33            [ 6]  267 	inc	sp
   00B2 21r0Ar04      [10]  268 	ld	hl, #_posicion
   00B5 E5            [11]  269 	push	hl
   00B6 21rCCr03      [10]  270 	ld	hl, #_coleccionables
   00B9 E5            [11]  271 	push	hl
   00BA 21r78r03      [10]  272 	ld	hl, #_portal
   00BD E5            [11]  273 	push	hl
   00BE 21r86r03      [10]  274 	ld	hl, #_puertas
   00C1 E5            [11]  275 	push	hl
   00C2 21r60r02      [10]  276 	ld	hl, #_rocasEspejo
   00C5 E5            [11]  277 	push	hl
   00C6 21r48r01      [10]  278 	ld	hl, #_rocas
   00C9 E5            [11]  279 	push	hl
   00CA 21r41r01      [10]  280 	ld	hl, #_player
   00CD E5            [11]  281 	push	hl
   00CE CDr00r00      [17]  282 	call	_crearNivel
   00D1 21 0F 00      [10]  283 	ld	hl, #15
   00D4 39            [11]  284 	add	hl, sp
   00D5 F9            [ 6]  285 	ld	sp, hl
                            286 ;src/juego/juego.c:85: crearEnemigos(nivelActual);    
   00D6 3Ar0Er04      [13]  287 	ld	a, (_nivelActual)
   00D9 F5            [11]  288 	push	af
   00DA 33            [ 6]  289 	inc	sp
   00DB CDr00r00      [17]  290 	call	_crearEnemigos
   00DE 33            [ 6]  291 	inc	sp
                            292 ;src/juego/juego.c:86: dibujarGameObjects();
   00DF C3r3Ar01      [10]  293 	jp  _dibujarGameObjects
                            294 ;src/juego/juego.c:89: void moverPlayer(){
                            295 ;	---------------------------------
                            296 ; Function moverPlayer
                            297 ; ---------------------------------
   00E2                     298 _moverPlayer::
                            299 ;src/juego/juego.c:91: if(posicion==posicion_Izquieda){
   00E2 3Ar0Ar04      [13]  300 	ld	a,(#_posicion + 0)
   00E5 B7            [ 4]  301 	or	a, a
   00E6 20 23         [12]  302 	jr	NZ,00102$
                            303 ;src/juego/juego.c:92: nivel=moverGameObject(&player,movimientoGuardado,rocas,rocasEspejo,&posicion);
   00E8 21r0Ar04      [10]  304 	ld	hl, #_posicion
   00EB E5            [11]  305 	push	hl
   00EC 21r60r02      [10]  306 	ld	hl, #_rocasEspejo
   00EF E5            [11]  307 	push	hl
   00F0 21r48r01      [10]  308 	ld	hl, #_rocas
   00F3 E5            [11]  309 	push	hl
   00F4 3Ar0Er00      [13]  310 	ld	a, (_movimientoGuardado)
   00F7 F5            [11]  311 	push	af
   00F8 33            [ 6]  312 	inc	sp
   00F9 21r41r01      [10]  313 	ld	hl, #_player
   00FC E5            [11]  314 	push	hl
   00FD CDr00r00      [17]  315 	call	_moverGameObject
   0100 FD 21 09 00   [14]  316 	ld	iy, #9
   0104 FD 39         [15]  317 	add	iy, sp
   0106 FD F9         [10]  318 	ld	sp, iy
   0108 45            [ 4]  319 	ld	b, l
   0109 18 21         [12]  320 	jr	00103$
   010B                     321 00102$:
                            322 ;src/juego/juego.c:94: nivel=moverGameObject(&player,movimientoGuardado,rocasEspejo,rocas,&posicion);
   010B 21r0Ar04      [10]  323 	ld	hl, #_posicion
   010E E5            [11]  324 	push	hl
   010F 21r48r01      [10]  325 	ld	hl, #_rocas
   0112 E5            [11]  326 	push	hl
   0113 21r60r02      [10]  327 	ld	hl, #_rocasEspejo
   0116 E5            [11]  328 	push	hl
   0117 3Ar0Er00      [13]  329 	ld	a, (_movimientoGuardado)
   011A F5            [11]  330 	push	af
   011B 33            [ 6]  331 	inc	sp
   011C 21r41r01      [10]  332 	ld	hl, #_player
   011F E5            [11]  333 	push	hl
   0120 CDr00r00      [17]  334 	call	_moverGameObject
   0123 FD 21 09 00   [14]  335 	ld	iy, #9
   0127 FD 39         [15]  336 	add	iy, sp
   0129 FD F9         [10]  337 	ld	sp, iy
   012B 45            [ 4]  338 	ld	b, l
   012C                     339 00103$:
                            340 ;src/juego/juego.c:97: if(nivel!=seguir_En_Nivel){ 
   012C 78            [ 4]  341 	ld	a, b
   012D B7            [ 4]  342 	or	a, a
   012E C8            [11]  343 	ret	Z
                            344 ;src/juego/juego.c:98: nivelActual=nivel;      
   012F 21r0Er04      [10]  345 	ld	hl,#_nivelActual + 0
   0132 70            [ 7]  346 	ld	(hl), b
                            347 ;src/juego/juego.c:99: resetGameobjects(nivel);
   0133 C5            [11]  348 	push	bc
   0134 33            [ 6]  349 	inc	sp
   0135 CDr02r02      [17]  350 	call	_resetGameobjects
   0138 33            [ 6]  351 	inc	sp
   0139 C9            [10]  352 	ret
                            353 ;src/juego/juego.c:105: void dibujarGameObjects(){
                            354 ;	---------------------------------
                            355 ; Function dibujarGameObjects
                            356 ; ---------------------------------
   013A                     357 _dibujarGameObjects::
                            358 ;src/juego/juego.c:106: dibujarGameObject(&player);
   013A 21r41r01      [10]  359 	ld	hl, #_player
   013D E5            [11]  360 	push	hl
   013E CDr00r00      [17]  361 	call	_dibujarGameObject
   0141 F1            [10]  362 	pop	af
                            363 ;src/juego/juego.c:107: for (u8 i =0; i<RocasMaximas;i++){        
   0142 0E 00         [ 7]  364 	ld	c, #0x00
   0144                     365 00107$:
   0144 79            [ 4]  366 	ld	a, c
   0145 D6 28         [ 7]  367 	sub	a, #0x28
   0147 30 16         [12]  368 	jr	NC,00101$
                            369 ;src/juego/juego.c:108: dibujarGameObject(&rocas[i]);        
   0149 06 00         [ 7]  370 	ld	b,#0x00
   014B 69            [ 4]  371 	ld	l, c
   014C 60            [ 4]  372 	ld	h, b
   014D 29            [11]  373 	add	hl, hl
   014E 09            [11]  374 	add	hl, bc
   014F 29            [11]  375 	add	hl, hl
   0150 09            [11]  376 	add	hl, bc
   0151 11r48r01      [10]  377 	ld	de, #_rocas
   0154 19            [11]  378 	add	hl, de
   0155 C5            [11]  379 	push	bc
   0156 E5            [11]  380 	push	hl
   0157 CDr00r00      [17]  381 	call	_dibujarGameObject
   015A F1            [10]  382 	pop	af
   015B C1            [10]  383 	pop	bc
                            384 ;src/juego/juego.c:107: for (u8 i =0; i<RocasMaximas;i++){        
   015C 0C            [ 4]  385 	inc	c
   015D 18 E5         [12]  386 	jr	00107$
   015F                     387 00101$:
                            388 ;src/juego/juego.c:110: for (u8 i =0; i<RocasMaximas;i++){        
   015F 0E 00         [ 7]  389 	ld	c, #0x00
   0161                     390 00110$:
   0161 79            [ 4]  391 	ld	a, c
   0162 D6 28         [ 7]  392 	sub	a, #0x28
   0164 30 16         [12]  393 	jr	NC,00102$
                            394 ;src/juego/juego.c:111: dibujarGameObject(&rocasEspejo[i]);
   0166 06 00         [ 7]  395 	ld	b,#0x00
   0168 69            [ 4]  396 	ld	l, c
   0169 60            [ 4]  397 	ld	h, b
   016A 29            [11]  398 	add	hl, hl
   016B 09            [11]  399 	add	hl, bc
   016C 29            [11]  400 	add	hl, hl
   016D 09            [11]  401 	add	hl, bc
   016E 11r60r02      [10]  402 	ld	de, #_rocasEspejo
   0171 19            [11]  403 	add	hl, de
   0172 C5            [11]  404 	push	bc
   0173 E5            [11]  405 	push	hl
   0174 CDr00r00      [17]  406 	call	_dibujarGameObject
   0177 F1            [10]  407 	pop	af
   0178 C1            [10]  408 	pop	bc
                            409 ;src/juego/juego.c:110: for (u8 i =0; i<RocasMaximas;i++){        
   0179 0C            [ 4]  410 	inc	c
   017A 18 E5         [12]  411 	jr	00110$
   017C                     412 00102$:
                            413 ;src/juego/juego.c:114: for(u8 i=0;i<2;i++){
   017C 0E 00         [ 7]  414 	ld	c, #0x00
   017E                     415 00113$:
   017E 79            [ 4]  416 	ld	a, c
   017F D6 02         [ 7]  417 	sub	a, #0x02
   0181 30 16         [12]  418 	jr	NC,00103$
                            419 ;src/juego/juego.c:115: dibujarGameObject(&portal[i]);
   0183 06 00         [ 7]  420 	ld	b,#0x00
   0185 69            [ 4]  421 	ld	l, c
   0186 60            [ 4]  422 	ld	h, b
   0187 29            [11]  423 	add	hl, hl
   0188 09            [11]  424 	add	hl, bc
   0189 29            [11]  425 	add	hl, hl
   018A 09            [11]  426 	add	hl, bc
   018B 11r78r03      [10]  427 	ld	de, #_portal
   018E 19            [11]  428 	add	hl, de
   018F C5            [11]  429 	push	bc
   0190 E5            [11]  430 	push	hl
   0191 CDr00r00      [17]  431 	call	_dibujarGameObject
   0194 F1            [10]  432 	pop	af
   0195 C1            [10]  433 	pop	bc
                            434 ;src/juego/juego.c:114: for(u8 i=0;i<2;i++){
   0196 0C            [ 4]  435 	inc	c
   0197 18 E5         [12]  436 	jr	00113$
   0199                     437 00103$:
                            438 ;src/juego/juego.c:117: for(u8 i=0;i<PuertasMaximas;i++){
   0199 0E 00         [ 7]  439 	ld	c, #0x00
   019B                     440 00116$:
   019B 79            [ 4]  441 	ld	a, c
   019C D6 06         [ 7]  442 	sub	a, #0x06
   019E 30 16         [12]  443 	jr	NC,00104$
                            444 ;src/juego/juego.c:118: dibujarGameObject(&puertas[i]);
   01A0 06 00         [ 7]  445 	ld	b,#0x00
   01A2 69            [ 4]  446 	ld	l, c
   01A3 60            [ 4]  447 	ld	h, b
   01A4 29            [11]  448 	add	hl, hl
   01A5 09            [11]  449 	add	hl, bc
   01A6 29            [11]  450 	add	hl, hl
   01A7 09            [11]  451 	add	hl, bc
   01A8 11r86r03      [10]  452 	ld	de, #_puertas
   01AB 19            [11]  453 	add	hl, de
   01AC C5            [11]  454 	push	bc
   01AD E5            [11]  455 	push	hl
   01AE CDr00r00      [17]  456 	call	_dibujarGameObject
   01B1 F1            [10]  457 	pop	af
   01B2 C1            [10]  458 	pop	bc
                            459 ;src/juego/juego.c:117: for(u8 i=0;i<PuertasMaximas;i++){
   01B3 0C            [ 4]  460 	inc	c
   01B4 18 E5         [12]  461 	jr	00116$
   01B6                     462 00104$:
                            463 ;src/juego/juego.c:120: for(u8 i=0;i<ColeccionablesMaximos;i++){
   01B6 0E 00         [ 7]  464 	ld	c, #0x00
   01B8                     465 00119$:
   01B8 79            [ 4]  466 	ld	a, c
   01B9 D6 03         [ 7]  467 	sub	a, #0x03
   01BB D0            [11]  468 	ret	NC
                            469 ;src/juego/juego.c:121: dibujarGameObjectCol(&coleccionables[i]);
   01BC 69            [ 4]  470 	ld	l, c
   01BD 26 00         [ 7]  471 	ld	h, #0x00
   01BF 29            [11]  472 	add	hl, hl
   01C0 29            [11]  473 	add	hl, hl
   01C1 11rCCr03      [10]  474 	ld	de, #_coleccionables
   01C4 19            [11]  475 	add	hl, de
   01C5 C5            [11]  476 	push	bc
   01C6 E5            [11]  477 	push	hl
   01C7 CDr00r00      [17]  478 	call	_dibujarGameObjectCol
   01CA F1            [10]  479 	pop	af
   01CB C1            [10]  480 	pop	bc
                            481 ;src/juego/juego.c:120: for(u8 i=0;i<ColeccionablesMaximos;i++){
   01CC 0C            [ 4]  482 	inc	c
   01CD 18 E9         [12]  483 	jr	00119$
                            484 ;src/juego/juego.c:125: void comprobarMovimiento(){
                            485 ;	---------------------------------
                            486 ; Function comprobarMovimiento
                            487 ; ---------------------------------
   01CF                     488 _comprobarMovimiento::
                            489 ;src/juego/juego.c:126: if(player.cronoMovimiento==0){
   01CF 3Ar46r01      [13]  490 	ld	a, (#(_player + 0x0005) + 0)
   01D2 B7            [ 4]  491 	or	a, a
   01D3 20 05         [12]  492 	jr	NZ,00102$
                            493 ;src/juego/juego.c:127: movimientoGuardado=mover_SinMovimiento;
   01D5 21r0Er00      [10]  494 	ld	hl,#_movimientoGuardado + 0
   01D8 36 00         [10]  495 	ld	(hl), #0x00
   01DA                     496 00102$:
                            497 ;src/juego/juego.c:129: if(movimientoPlayer()!=mover_SinMovimiento){
   01DA CDr00r00      [17]  498 	call	_movimientoPlayer
   01DD 7D            [ 4]  499 	ld	a, l
   01DE B7            [ 4]  500 	or	a, a
   01DF C8            [11]  501 	ret	Z
                            502 ;src/juego/juego.c:130: movimientoGuardado=movimientoPlayer();
   01E0 CDr00r00      [17]  503 	call	_movimientoPlayer
   01E3 FD 21r0Er00   [14]  504 	ld	iy, #_movimientoGuardado
   01E7 FD 75 00      [19]  505 	ld	0 (iy), l
   01EA C9            [10]  506 	ret
                            507 ;src/juego/juego.c:133: u8 comprobarPasos(){
                            508 ;	---------------------------------
                            509 ; Function comprobarPasos
                            510 ; ---------------------------------
   01EB                     511 _comprobarPasos::
                            512 ;src/juego/juego.c:134: if(player.pasos!=pasos){
   01EB 21r47r01      [10]  513 	ld	hl, #(_player + 0x0006) + 0
   01EE 4E            [ 7]  514 	ld	c, (hl)
   01EF FD 21r0Fr04   [14]  515 	ld	iy, #_pasos
   01F3 FD 7E 00      [19]  516 	ld	a, 0 (iy)
   01F6 91            [ 4]  517 	sub	a, c
   01F7 28 06         [12]  518 	jr	Z,00102$
                            519 ;src/juego/juego.c:135: pasos=player.pasos;
   01F9 FD 71 00      [19]  520 	ld	0 (iy), c
                            521 ;src/juego/juego.c:136: return si;
   01FC 2E 00         [ 7]  522 	ld	l, #0x00
   01FE C9            [10]  523 	ret
   01FF                     524 00102$:
                            525 ;src/juego/juego.c:138: return no;
   01FF 2E 01         [ 7]  526 	ld	l, #0x01
   0201 C9            [10]  527 	ret
                            528 ;src/juego/juego.c:141: void resetGameobjects(u8 nivel){
                            529 ;	---------------------------------
                            530 ; Function resetGameobjects
                            531 ; ---------------------------------
   0202                     532 _resetGameobjects::
   0202 DD E5         [15]  533 	push	ix
   0204 DD 21 00 00   [14]  534 	ld	ix,#0
   0208 DD 39         [15]  535 	add	ix,sp
                            536 ;src/juego/juego.c:142: cpct_akp_stop();
   020A CDr00r00      [17]  537 	call	_cpct_akp_stop
                            538 ;src/juego/juego.c:143: posicion=posicion_Izquieda;
   020D 21r0Ar04      [10]  539 	ld	hl,#_posicion + 0
   0210 36 00         [10]  540 	ld	(hl), #0x00
                            541 ;src/juego/juego.c:144: player.pasos=0;
   0212 21r47r01      [10]  542 	ld	hl, #(_player + 0x0006)
   0215 36 00         [10]  543 	ld	(hl), #0x00
                            544 ;src/juego/juego.c:145: pasos=0;    
   0217 21r0Fr04      [10]  545 	ld	hl,#_pasos + 0
   021A 36 00         [10]  546 	ld	(hl), #0x00
                            547 ;src/juego/juego.c:146: crearNivel(&player,rocas,rocasEspejo,puertas,portal,coleccionables,&posicion,nivel);
   021C DD 7E 04      [19]  548 	ld	a, 4 (ix)
   021F F5            [11]  549 	push	af
   0220 33            [ 6]  550 	inc	sp
   0221 21r0Ar04      [10]  551 	ld	hl, #_posicion
   0224 E5            [11]  552 	push	hl
   0225 21rCCr03      [10]  553 	ld	hl, #_coleccionables
   0228 E5            [11]  554 	push	hl
   0229 21r78r03      [10]  555 	ld	hl, #_portal
   022C E5            [11]  556 	push	hl
   022D 21r86r03      [10]  557 	ld	hl, #_puertas
   0230 E5            [11]  558 	push	hl
   0231 21r60r02      [10]  559 	ld	hl, #_rocasEspejo
   0234 E5            [11]  560 	push	hl
   0235 21r48r01      [10]  561 	ld	hl, #_rocas
   0238 E5            [11]  562 	push	hl
   0239 21r41r01      [10]  563 	ld	hl, #_player
   023C E5            [11]  564 	push	hl
   023D CDr00r00      [17]  565 	call	_crearNivel
   0240 21 0F 00      [10]  566 	ld	hl, #15
   0243 39            [11]  567 	add	hl, sp
   0244 F9            [ 6]  568 	ld	sp, hl
                            569 ;src/juego/juego.c:147: crearEnemigos(nivelActual);        
   0245 3Ar0Er04      [13]  570 	ld	a, (_nivelActual)
   0248 F5            [11]  571 	push	af
   0249 33            [ 6]  572 	inc	sp
   024A CDr00r00      [17]  573 	call	_crearEnemigos
   024D 33            [ 6]  574 	inc	sp
                            575 ;src/juego/juego.c:148: dibujarGameObjects();     
   024E DD E1         [14]  576 	pop	ix
   0250 C3r3Ar01      [10]  577 	jp	_dibujarGameObjects
                            578 	.area _CODE
                            579 	.area _INITIALIZER
                            580 	.area _CABS (ABS)
