                              1 ;--------------------------------------------------------
                              2 ; File Created by SDCC : free open source ANSI-C Compiler
                              3 ; Version 3.6.8 #9946 (Linux)
                              4 ;--------------------------------------------------------
                              5 	.module gameObject
                              6 	.optsdcc -mz80
                              7 	
                              8 ;--------------------------------------------------------
                              9 ; Public variables in this module
                             10 ;--------------------------------------------------------
                             11 	.globl _comprobarColisiones1vs1
                             12 	.globl _calcularMaximosyMinimos
                             13 	.globl _calcularPosicionEnPantalla
                             14 	.globl _cpct_akp_SFXPlay
                             15 	.globl _cpct_drawSprite
                             16 	.globl _cpct_drawSolidBox
                             17 	.globl _initGameobjest
                             18 	.globl _dibujarGameObject
                             19 	.globl _dibujarGameObjectCol
                             20 	.globl _dibujarGameObjectColSprite
                             21 	.globl _limpiarRastro
                             22 	.globl _moverGameObject
                             23 	.globl _moverElEspejo
                             24 	.globl _cambiarPosicion
                             25 	.globl _moverYdibujar
                             26 	.globl _taparHole
                             27 	.globl _moverTipoPlayer
                             28 	.globl _moverTipoRoca
                             29 	.globl _mover1casilla
                             30 	.globl _movimientoLineal
                             31 	.globl _colisionesSiguientePosicion
                             32 	.globl _comprobarRocas
                             33 	.globl _comprobarPortales
                             34 	.globl _comprobarPuertas
                             35 	.globl _comprobarColeccionables
                             36 	.globl _comprobarEnemigos
                             37 ;--------------------------------------------------------
                             38 ; special function registers
                             39 ;--------------------------------------------------------
                             40 ;--------------------------------------------------------
                             41 ; ram data
                             42 ;--------------------------------------------------------
                             43 	.area _DATA
   0000                      44 _P_portal:
   0000                      45 	.ds 2
   0002                      46 _P_puertas:
   0002                      47 	.ds 2
   0004                      48 _P_col:
   0004                      49 	.ds 2
   0006                      50 _P_luz:
   0006                      51 	.ds 2
   0008                      52 _P_fam:
   0008                      53 	.ds 2
   000A                      54 _P_ams:
   000A                      55 	.ds 2
   000C                      56 _P_colList:
   000C                      57 	.ds 2
   000E                      58 _creadorDeEnemigos:
   000E                      59 	.ds 100
                             60 ;--------------------------------------------------------
                             61 ; ram data
                             62 ;--------------------------------------------------------
                             63 	.area _INITIALIZED
                             64 ;--------------------------------------------------------
                             65 ; absolute external ram data
                             66 ;--------------------------------------------------------
                             67 	.area _DABS (ABS)
                             68 ;--------------------------------------------------------
                             69 ; global & static initialisations
                             70 ;--------------------------------------------------------
                             71 	.area _HOME
                             72 	.area _GSINIT
                             73 	.area _GSFINAL
                             74 	.area _GSINIT
                             75 ;--------------------------------------------------------
                             76 ; Home
                             77 ;--------------------------------------------------------
                             78 	.area _HOME
                             79 	.area _HOME
                             80 ;--------------------------------------------------------
                             81 ; code
                             82 ;--------------------------------------------------------
                             83 	.area _CODE
                             84 ;src/gameObject/gameObject.c:72: void initGameobjest(TGameObject* portales,TGameObject* puertas,TGameObjectCol* colec,u8* colLuz,u8* colFam,u8* colAms,u8* colList){
                             85 ;	---------------------------------
                             86 ; Function initGameobjest
                             87 ; ---------------------------------
   0000                      88 _initGameobjest::
   0000 DD E5         [15]   89 	push	ix
   0002 DD 21 00 00   [14]   90 	ld	ix,#0
   0006 DD 39         [15]   91 	add	ix,sp
                             92 ;src/gameObject/gameObject.c:73: P_portal=portales;
   0008 DD 6E 04      [19]   93 	ld	l,4 (ix)
   000B DD 66 05      [19]   94 	ld	h,5 (ix)
   000E 22r00r00      [16]   95 	ld	(_P_portal), hl
                             96 ;src/gameObject/gameObject.c:74: P_puertas=puertas;
   0011 DD 6E 06      [19]   97 	ld	l,6 (ix)
   0014 DD 66 07      [19]   98 	ld	h,7 (ix)
   0017 22r02r00      [16]   99 	ld	(_P_puertas), hl
                            100 ;src/gameObject/gameObject.c:75: P_col=colec;
   001A DD 6E 08      [19]  101 	ld	l,8 (ix)
   001D DD 66 09      [19]  102 	ld	h,9 (ix)
   0020 22r04r00      [16]  103 	ld	(_P_col), hl
                            104 ;src/gameObject/gameObject.c:76: P_luz=colLuz;
   0023 DD 6E 0A      [19]  105 	ld	l,10 (ix)
   0026 DD 66 0B      [19]  106 	ld	h,11 (ix)
   0029 22r06r00      [16]  107 	ld	(_P_luz), hl
                            108 ;src/gameObject/gameObject.c:77: P_fam=colFam;
   002C DD 6E 0C      [19]  109 	ld	l,12 (ix)
   002F DD 66 0D      [19]  110 	ld	h,13 (ix)
   0032 22r08r00      [16]  111 	ld	(_P_fam), hl
                            112 ;src/gameObject/gameObject.c:78: P_ams=colAms;
   0035 DD 6E 0E      [19]  113 	ld	l,14 (ix)
   0038 DD 66 0F      [19]  114 	ld	h,15 (ix)
   003B 22r0Ar00      [16]  115 	ld	(_P_ams), hl
                            116 ;src/gameObject/gameObject.c:79: P_colList=colList;   
   003E DD 6E 10      [19]  117 	ld	l,16 (ix)
   0041 DD 66 11      [19]  118 	ld	h,17 (ix)
   0044 22r0Cr00      [16]  119 	ld	(_P_colList), hl
   0047 DD E1         [14]  120 	pop	ix
   0049 C9            [10]  121 	ret
                            122 ;src/gameObject/gameObject.c:82: void dibujarGameObject(TGameObject* objeto){
                            123 ;	---------------------------------
                            124 ; Function dibujarGameObject
                            125 ; ---------------------------------
   004A                     126 _dibujarGameObject::
   004A DD E5         [15]  127 	push	ix
   004C DD 21 00 00   [14]  128 	ld	ix,#0
   0050 DD 39         [15]  129 	add	ix,sp
                            130 ;src/gameObject/gameObject.c:83: if(objeto->posx!=0){
   0052 DD 4E 04      [19]  131 	ld	c,4 (ix)
   0055 DD 46 05      [19]  132 	ld	b,5 (ix)
   0058 69            [ 4]  133 	ld	l, c
   0059 60            [ 4]  134 	ld	h, b
   005A 23            [ 6]  135 	inc	hl
   005B 56            [ 7]  136 	ld	d, (hl)
   005C 7A            [ 4]  137 	ld	a, d
   005D B7            [ 4]  138 	or	a, a
   005E CAr26r05      [10]  139 	jp	Z, 00237$
                            140 ;src/gameObject/gameObject.c:84: if(objeto->sprite==sprite_Player){
   0061 69            [ 4]  141 	ld	l, c
   0062 60            [ 4]  142 	ld	h, b
   0063 23            [ 6]  143 	inc	hl
   0064 23            [ 6]  144 	inc	hl
   0065 23            [ 6]  145 	inc	hl
   0066 5E            [ 7]  146 	ld	e, (hl)
                            147 ;src/gameObject/gameObject.c:85: cpct_drawSprite(Character_Principal_0, calcularPosicionEnPantalla(objeto->posx,objeto->posy), anchoSprite, altoSprite);  
   0067 69            [ 4]  148 	ld	l, c
   0068 60            [ 4]  149 	ld	h, b
   0069 23            [ 6]  150 	inc	hl
   006A 23            [ 6]  151 	inc	hl
                            152 ;src/gameObject/gameObject.c:84: if(objeto->sprite==sprite_Player){
   006B 7B            [ 4]  153 	ld	a, e
   006C 3D            [ 4]  154 	dec	a
   006D 20 18         [12]  155 	jr	NZ,00233$
                            156 ;src/gameObject/gameObject.c:85: cpct_drawSprite(Character_Principal_0, calcularPosicionEnPantalla(objeto->posx,objeto->posy), anchoSprite, altoSprite);  
   006F 46            [ 7]  157 	ld	b, (hl)
   0070 4A            [ 4]  158 	ld	c, d
   0071 C5            [11]  159 	push	bc
   0072 CDr00r00      [17]  160 	call	_calcularPosicionEnPantalla
   0075 F1            [10]  161 	pop	af
   0076 4D            [ 4]  162 	ld	c, l
   0077 44            [ 4]  163 	ld	b, h
   0078 21 04 10      [10]  164 	ld	hl, #0x1004
   007B E5            [11]  165 	push	hl
   007C C5            [11]  166 	push	bc
   007D 21r00r00      [10]  167 	ld	hl, #_Character_Principal_0
   0080 E5            [11]  168 	push	hl
   0081 CDr00r00      [17]  169 	call	_cpct_drawSprite
   0084 C3r26r05      [10]  170 	jp	00237$
   0087                     171 00233$:
                            172 ;src/gameObject/gameObject.c:86: }else if(objeto->sprite==sprite_Rock_G){
   0087 7B            [ 4]  173 	ld	a, e
   0088 D6 02         [ 7]  174 	sub	a, #0x02
   008A 20 18         [12]  175 	jr	NZ,00230$
                            176 ;src/gameObject/gameObject.c:87: cpct_drawSprite(Block_Move1_G_0, calcularPosicionEnPantalla(objeto->posx,objeto->posy), anchoSprite, altoSprite);
   008C 46            [ 7]  177 	ld	b, (hl)
   008D 4A            [ 4]  178 	ld	c, d
   008E C5            [11]  179 	push	bc
   008F CDr00r00      [17]  180 	call	_calcularPosicionEnPantalla
   0092 F1            [10]  181 	pop	af
   0093 4D            [ 4]  182 	ld	c, l
   0094 44            [ 4]  183 	ld	b, h
   0095 21 04 10      [10]  184 	ld	hl, #0x1004
   0098 E5            [11]  185 	push	hl
   0099 C5            [11]  186 	push	bc
   009A 21r00r00      [10]  187 	ld	hl, #_Block_Move1_G_0
   009D E5            [11]  188 	push	hl
   009E CDr00r00      [17]  189 	call	_cpct_drawSprite
   00A1 C3r26r05      [10]  190 	jp	00237$
   00A4                     191 00230$:
                            192 ;src/gameObject/gameObject.c:88: }else if(objeto->sprite==sprite_Rock_B){
   00A4 7B            [ 4]  193 	ld	a, e
   00A5 D6 03         [ 7]  194 	sub	a, #0x03
   00A7 20 16         [12]  195 	jr	NZ,00227$
                            196 ;src/gameObject/gameObject.c:89: cpct_drawSprite(Block_Move1_B_0, calcularPosicionEnPantalla(objeto->posx,objeto->posy), anchoSprite, altoSprite);
   00A9 46            [ 7]  197 	ld	b, (hl)
   00AA 4A            [ 4]  198 	ld	c, d
   00AB C5            [11]  199 	push	bc
   00AC CDr00r00      [17]  200 	call	_calcularPosicionEnPantalla
   00AF F1            [10]  201 	pop	af
   00B0 01r00r00      [10]  202 	ld	bc, #_Block_Move1_B_0+0
   00B3 11 04 10      [10]  203 	ld	de, #0x1004
   00B6 D5            [11]  204 	push	de
   00B7 E5            [11]  205 	push	hl
   00B8 C5            [11]  206 	push	bc
   00B9 CDr00r00      [17]  207 	call	_cpct_drawSprite
   00BC C3r26r05      [10]  208 	jp	00237$
   00BF                     209 00227$:
                            210 ;src/gameObject/gameObject.c:90: }else if(objeto->sprite==sprite_Rock_nomove_B){
   00BF 7B            [ 4]  211 	ld	a, e
   00C0 D6 04         [ 7]  212 	sub	a, #0x04
   00C2 20 16         [12]  213 	jr	NZ,00224$
                            214 ;src/gameObject/gameObject.c:91: cpct_drawSprite(Block_Move0_B_0, calcularPosicionEnPantalla(objeto->posx,objeto->posy), anchoSprite, altoSprite);
   00C4 46            [ 7]  215 	ld	b, (hl)
   00C5 4A            [ 4]  216 	ld	c, d
   00C6 C5            [11]  217 	push	bc
   00C7 CDr00r00      [17]  218 	call	_calcularPosicionEnPantalla
   00CA F1            [10]  219 	pop	af
   00CB 01r00r00      [10]  220 	ld	bc, #_Block_Move0_B_0+0
   00CE 11 04 10      [10]  221 	ld	de, #0x1004
   00D1 D5            [11]  222 	push	de
   00D2 E5            [11]  223 	push	hl
   00D3 C5            [11]  224 	push	bc
   00D4 CDr00r00      [17]  225 	call	_cpct_drawSprite
   00D7 C3r26r05      [10]  226 	jp	00237$
   00DA                     227 00224$:
                            228 ;src/gameObject/gameObject.c:92: }else if(objeto->sprite==sprite_RockInmovil1_G){
   00DA 7B            [ 4]  229 	ld	a, e
   00DB D6 07         [ 7]  230 	sub	a, #0x07
   00DD 20 16         [12]  231 	jr	NZ,00221$
                            232 ;src/gameObject/gameObject.c:93: cpct_drawSprite(Block_Static1_G_0, calcularPosicionEnPantalla(objeto->posx,objeto->posy), anchoSprite, altoSprite);
   00DF 46            [ 7]  233 	ld	b, (hl)
   00E0 4A            [ 4]  234 	ld	c, d
   00E1 C5            [11]  235 	push	bc
   00E2 CDr00r00      [17]  236 	call	_calcularPosicionEnPantalla
   00E5 F1            [10]  237 	pop	af
   00E6 01r00r00      [10]  238 	ld	bc, #_Block_Static1_G_0+0
   00E9 11 04 10      [10]  239 	ld	de, #0x1004
   00EC D5            [11]  240 	push	de
   00ED E5            [11]  241 	push	hl
   00EE C5            [11]  242 	push	bc
   00EF CDr00r00      [17]  243 	call	_cpct_drawSprite
   00F2 C3r26r05      [10]  244 	jp	00237$
   00F5                     245 00221$:
                            246 ;src/gameObject/gameObject.c:94: }else if(objeto->sprite==sprite_RockInmovil1_B){
   00F5 7B            [ 4]  247 	ld	a, e
   00F6 D6 08         [ 7]  248 	sub	a, #0x08
   00F8 20 16         [12]  249 	jr	NZ,00218$
                            250 ;src/gameObject/gameObject.c:95: cpct_drawSprite(Block_Static1_B_0, calcularPosicionEnPantalla(objeto->posx,objeto->posy), anchoSprite, altoSprite);
   00FA 46            [ 7]  251 	ld	b, (hl)
   00FB 4A            [ 4]  252 	ld	c, d
   00FC C5            [11]  253 	push	bc
   00FD CDr00r00      [17]  254 	call	_calcularPosicionEnPantalla
   0100 F1            [10]  255 	pop	af
   0101 01r00r00      [10]  256 	ld	bc, #_Block_Static1_B_0+0
   0104 11 04 10      [10]  257 	ld	de, #0x1004
   0107 D5            [11]  258 	push	de
   0108 E5            [11]  259 	push	hl
   0109 C5            [11]  260 	push	bc
   010A CDr00r00      [17]  261 	call	_cpct_drawSprite
   010D C3r26r05      [10]  262 	jp	00237$
   0110                     263 00218$:
                            264 ;src/gameObject/gameObject.c:96: }else if(objeto->sprite==sprite_RockInmovil2_G){
   0110 7B            [ 4]  265 	ld	a, e
   0111 D6 09         [ 7]  266 	sub	a, #0x09
   0113 20 16         [12]  267 	jr	NZ,00215$
                            268 ;src/gameObject/gameObject.c:97: cpct_drawSprite(Block_Static2_G_0, calcularPosicionEnPantalla(objeto->posx,objeto->posy), anchoSprite, altoSprite);
   0115 46            [ 7]  269 	ld	b, (hl)
   0116 4A            [ 4]  270 	ld	c, d
   0117 C5            [11]  271 	push	bc
   0118 CDr00r00      [17]  272 	call	_calcularPosicionEnPantalla
   011B F1            [10]  273 	pop	af
   011C 01r00r00      [10]  274 	ld	bc, #_Block_Static2_G_0+0
   011F 11 04 10      [10]  275 	ld	de, #0x1004
   0122 D5            [11]  276 	push	de
   0123 E5            [11]  277 	push	hl
   0124 C5            [11]  278 	push	bc
   0125 CDr00r00      [17]  279 	call	_cpct_drawSprite
   0128 C3r26r05      [10]  280 	jp	00237$
   012B                     281 00215$:
                            282 ;src/gameObject/gameObject.c:98: }else if(objeto->sprite==sprite_RockInmovil2_B){
   012B 7B            [ 4]  283 	ld	a, e
   012C D6 0A         [ 7]  284 	sub	a, #0x0a
   012E 20 16         [12]  285 	jr	NZ,00212$
                            286 ;src/gameObject/gameObject.c:99: cpct_drawSprite(Block_Static2_B_0, calcularPosicionEnPantalla(objeto->posx,objeto->posy), anchoSprite, altoSprite);
   0130 46            [ 7]  287 	ld	b, (hl)
   0131 4A            [ 4]  288 	ld	c, d
   0132 C5            [11]  289 	push	bc
   0133 CDr00r00      [17]  290 	call	_calcularPosicionEnPantalla
   0136 F1            [10]  291 	pop	af
   0137 01r00r00      [10]  292 	ld	bc, #_Block_Static2_B_0+0
   013A 11 04 10      [10]  293 	ld	de, #0x1004
   013D D5            [11]  294 	push	de
   013E E5            [11]  295 	push	hl
   013F C5            [11]  296 	push	bc
   0140 CDr00r00      [17]  297 	call	_cpct_drawSprite
   0143 C3r26r05      [10]  298 	jp	00237$
   0146                     299 00212$:
                            300 ;src/gameObject/gameObject.c:100: }else if(objeto->sprite==sprite_RockInmovil3_G){
   0146 7B            [ 4]  301 	ld	a, e
   0147 D6 0B         [ 7]  302 	sub	a, #0x0b
   0149 20 16         [12]  303 	jr	NZ,00209$
                            304 ;src/gameObject/gameObject.c:101: cpct_drawSprite(Block_Static3_G_0, calcularPosicionEnPantalla(objeto->posx,objeto->posy), anchoSprite, altoSprite);
   014B 46            [ 7]  305 	ld	b, (hl)
   014C 4A            [ 4]  306 	ld	c, d
   014D C5            [11]  307 	push	bc
   014E CDr00r00      [17]  308 	call	_calcularPosicionEnPantalla
   0151 F1            [10]  309 	pop	af
   0152 01r00r00      [10]  310 	ld	bc, #_Block_Static3_G_0+0
   0155 11 04 10      [10]  311 	ld	de, #0x1004
   0158 D5            [11]  312 	push	de
   0159 E5            [11]  313 	push	hl
   015A C5            [11]  314 	push	bc
   015B CDr00r00      [17]  315 	call	_cpct_drawSprite
   015E C3r26r05      [10]  316 	jp	00237$
   0161                     317 00209$:
                            318 ;src/gameObject/gameObject.c:102: }else if(objeto->sprite==sprite_RockInmovil3_B){
   0161 7B            [ 4]  319 	ld	a, e
   0162 D6 0C         [ 7]  320 	sub	a, #0x0c
   0164 20 16         [12]  321 	jr	NZ,00206$
                            322 ;src/gameObject/gameObject.c:103: cpct_drawSprite(Block_Static3_B_0, calcularPosicionEnPantalla(objeto->posx,objeto->posy), anchoSprite, altoSprite);
   0166 46            [ 7]  323 	ld	b, (hl)
   0167 4A            [ 4]  324 	ld	c, d
   0168 C5            [11]  325 	push	bc
   0169 CDr00r00      [17]  326 	call	_calcularPosicionEnPantalla
   016C F1            [10]  327 	pop	af
   016D 01r00r00      [10]  328 	ld	bc, #_Block_Static3_B_0+0
   0170 11 04 10      [10]  329 	ld	de, #0x1004
   0173 D5            [11]  330 	push	de
   0174 E5            [11]  331 	push	hl
   0175 C5            [11]  332 	push	bc
   0176 CDr00r00      [17]  333 	call	_cpct_drawSprite
   0179 C3r26r05      [10]  334 	jp	00237$
   017C                     335 00206$:
                            336 ;src/gameObject/gameObject.c:104: }else if(objeto->sprite==sprite_RockInmovil4_G){
   017C 7B            [ 4]  337 	ld	a, e
   017D D6 0D         [ 7]  338 	sub	a, #0x0d
   017F 20 16         [12]  339 	jr	NZ,00203$
                            340 ;src/gameObject/gameObject.c:105: cpct_drawSprite(Block_Static4_G_0, calcularPosicionEnPantalla(objeto->posx,objeto->posy), anchoSprite, altoSprite);
   0181 46            [ 7]  341 	ld	b, (hl)
   0182 4A            [ 4]  342 	ld	c, d
   0183 C5            [11]  343 	push	bc
   0184 CDr00r00      [17]  344 	call	_calcularPosicionEnPantalla
   0187 F1            [10]  345 	pop	af
   0188 01r00r00      [10]  346 	ld	bc, #_Block_Static4_G_0+0
   018B 11 04 10      [10]  347 	ld	de, #0x1004
   018E D5            [11]  348 	push	de
   018F E5            [11]  349 	push	hl
   0190 C5            [11]  350 	push	bc
   0191 CDr00r00      [17]  351 	call	_cpct_drawSprite
   0194 C3r26r05      [10]  352 	jp	00237$
   0197                     353 00203$:
                            354 ;src/gameObject/gameObject.c:106: }else if(objeto->sprite==sprite_RockInmovil4_B){
   0197 7B            [ 4]  355 	ld	a, e
   0198 D6 0E         [ 7]  356 	sub	a, #0x0e
   019A 20 16         [12]  357 	jr	NZ,00200$
                            358 ;src/gameObject/gameObject.c:107: cpct_drawSprite(Block_Static4_B_0, calcularPosicionEnPantalla(objeto->posx,objeto->posy), anchoSprite, altoSprite);
   019C 46            [ 7]  359 	ld	b, (hl)
   019D 4A            [ 4]  360 	ld	c, d
   019E C5            [11]  361 	push	bc
   019F CDr00r00      [17]  362 	call	_calcularPosicionEnPantalla
   01A2 F1            [10]  363 	pop	af
   01A3 01r00r00      [10]  364 	ld	bc, #_Block_Static4_B_0+0
   01A6 11 04 10      [10]  365 	ld	de, #0x1004
   01A9 D5            [11]  366 	push	de
   01AA E5            [11]  367 	push	hl
   01AB C5            [11]  368 	push	bc
   01AC CDr00r00      [17]  369 	call	_cpct_drawSprite
   01AF C3r26r05      [10]  370 	jp	00237$
   01B2                     371 00200$:
                            372 ;src/gameObject/gameObject.c:108: }else if(objeto->sprite==sprite_RockInmovil5_G){
   01B2 7B            [ 4]  373 	ld	a, e
   01B3 D6 0F         [ 7]  374 	sub	a, #0x0f
   01B5 20 16         [12]  375 	jr	NZ,00197$
                            376 ;src/gameObject/gameObject.c:109: cpct_drawSprite(Block_Static5_G_0, calcularPosicionEnPantalla(objeto->posx,objeto->posy), anchoSprite, altoSprite);
   01B7 46            [ 7]  377 	ld	b, (hl)
   01B8 4A            [ 4]  378 	ld	c, d
   01B9 C5            [11]  379 	push	bc
   01BA CDr00r00      [17]  380 	call	_calcularPosicionEnPantalla
   01BD F1            [10]  381 	pop	af
   01BE 01r00r00      [10]  382 	ld	bc, #_Block_Static5_G_0+0
   01C1 11 04 10      [10]  383 	ld	de, #0x1004
   01C4 D5            [11]  384 	push	de
   01C5 E5            [11]  385 	push	hl
   01C6 C5            [11]  386 	push	bc
   01C7 CDr00r00      [17]  387 	call	_cpct_drawSprite
   01CA C3r26r05      [10]  388 	jp	00237$
   01CD                     389 00197$:
                            390 ;src/gameObject/gameObject.c:110: }else if(objeto->sprite==sprite_RockInmovil5_B){
   01CD 7B            [ 4]  391 	ld	a, e
   01CE D6 10         [ 7]  392 	sub	a, #0x10
   01D0 20 16         [12]  393 	jr	NZ,00194$
                            394 ;src/gameObject/gameObject.c:111: cpct_drawSprite(Block_Static5_B_0, calcularPosicionEnPantalla(objeto->posx,objeto->posy), anchoSprite, altoSprite);
   01D2 46            [ 7]  395 	ld	b, (hl)
   01D3 4A            [ 4]  396 	ld	c, d
   01D4 C5            [11]  397 	push	bc
   01D5 CDr00r00      [17]  398 	call	_calcularPosicionEnPantalla
   01D8 F1            [10]  399 	pop	af
   01D9 01r00r00      [10]  400 	ld	bc, #_Block_Static5_B_0+0
   01DC 11 04 10      [10]  401 	ld	de, #0x1004
   01DF D5            [11]  402 	push	de
   01E0 E5            [11]  403 	push	hl
   01E1 C5            [11]  404 	push	bc
   01E2 CDr00r00      [17]  405 	call	_cpct_drawSprite
   01E5 C3r26r05      [10]  406 	jp	00237$
   01E8                     407 00194$:
                            408 ;src/gameObject/gameObject.c:112: }else if(objeto->sprite==sprite_RockInmovil6_G){
   01E8 7B            [ 4]  409 	ld	a, e
   01E9 D6 11         [ 7]  410 	sub	a, #0x11
   01EB 20 16         [12]  411 	jr	NZ,00191$
                            412 ;src/gameObject/gameObject.c:113: cpct_drawSprite(Block_Static6_G_0, calcularPosicionEnPantalla(objeto->posx,objeto->posy), anchoSprite, altoSprite);
   01ED 46            [ 7]  413 	ld	b, (hl)
   01EE 4A            [ 4]  414 	ld	c, d
   01EF C5            [11]  415 	push	bc
   01F0 CDr00r00      [17]  416 	call	_calcularPosicionEnPantalla
   01F3 F1            [10]  417 	pop	af
   01F4 01r00r00      [10]  418 	ld	bc, #_Block_Static6_G_0+0
   01F7 11 04 10      [10]  419 	ld	de, #0x1004
   01FA D5            [11]  420 	push	de
   01FB E5            [11]  421 	push	hl
   01FC C5            [11]  422 	push	bc
   01FD CDr00r00      [17]  423 	call	_cpct_drawSprite
   0200 C3r26r05      [10]  424 	jp	00237$
   0203                     425 00191$:
                            426 ;src/gameObject/gameObject.c:114: }else if(objeto->sprite==sprite_RockInmovil7_G){
   0203 7B            [ 4]  427 	ld	a, e
   0204 D6 13         [ 7]  428 	sub	a, #0x13
   0206 20 16         [12]  429 	jr	NZ,00188$
                            430 ;src/gameObject/gameObject.c:115: cpct_drawSprite(Block_Static7_G_0, calcularPosicionEnPantalla(objeto->posx,objeto->posy), anchoSprite, altoSprite);
   0208 46            [ 7]  431 	ld	b, (hl)
   0209 4A            [ 4]  432 	ld	c, d
   020A C5            [11]  433 	push	bc
   020B CDr00r00      [17]  434 	call	_calcularPosicionEnPantalla
   020E F1            [10]  435 	pop	af
   020F 01r00r00      [10]  436 	ld	bc, #_Block_Static7_G_0+0
   0212 11 04 10      [10]  437 	ld	de, #0x1004
   0215 D5            [11]  438 	push	de
   0216 E5            [11]  439 	push	hl
   0217 C5            [11]  440 	push	bc
   0218 CDr00r00      [17]  441 	call	_cpct_drawSprite
   021B C3r26r05      [10]  442 	jp	00237$
   021E                     443 00188$:
                            444 ;src/gameObject/gameObject.c:116: }else if(objeto->sprite==sprite_RockInmovil7_B){
   021E 7B            [ 4]  445 	ld	a, e
   021F D6 14         [ 7]  446 	sub	a, #0x14
   0221 20 16         [12]  447 	jr	NZ,00185$
                            448 ;src/gameObject/gameObject.c:117: cpct_drawSprite(Block_Static7_B_0, calcularPosicionEnPantalla(objeto->posx,objeto->posy), anchoSprite, altoSprite);
   0223 46            [ 7]  449 	ld	b, (hl)
   0224 4A            [ 4]  450 	ld	c, d
   0225 C5            [11]  451 	push	bc
   0226 CDr00r00      [17]  452 	call	_calcularPosicionEnPantalla
   0229 F1            [10]  453 	pop	af
   022A 01r00r00      [10]  454 	ld	bc, #_Block_Static7_B_0+0
   022D 11 04 10      [10]  455 	ld	de, #0x1004
   0230 D5            [11]  456 	push	de
   0231 E5            [11]  457 	push	hl
   0232 C5            [11]  458 	push	bc
   0233 CDr00r00      [17]  459 	call	_cpct_drawSprite
   0236 C3r26r05      [10]  460 	jp	00237$
   0239                     461 00185$:
                            462 ;src/gameObject/gameObject.c:118: }else if(objeto->sprite==sprite_RockInmovil8_G){
   0239 7B            [ 4]  463 	ld	a, e
   023A D6 15         [ 7]  464 	sub	a, #0x15
   023C 20 16         [12]  465 	jr	NZ,00182$
                            466 ;src/gameObject/gameObject.c:119: cpct_drawSprite(Block_Static8_G_0, calcularPosicionEnPantalla(objeto->posx,objeto->posy), anchoSprite, altoSprite);
   023E 46            [ 7]  467 	ld	b, (hl)
   023F 4A            [ 4]  468 	ld	c, d
   0240 C5            [11]  469 	push	bc
   0241 CDr00r00      [17]  470 	call	_calcularPosicionEnPantalla
   0244 F1            [10]  471 	pop	af
   0245 01r00r00      [10]  472 	ld	bc, #_Block_Static8_G_0+0
   0248 11 04 10      [10]  473 	ld	de, #0x1004
   024B D5            [11]  474 	push	de
   024C E5            [11]  475 	push	hl
   024D C5            [11]  476 	push	bc
   024E CDr00r00      [17]  477 	call	_cpct_drawSprite
   0251 C3r26r05      [10]  478 	jp	00237$
   0254                     479 00182$:
                            480 ;src/gameObject/gameObject.c:120: }else if(objeto->sprite==sprite_RockInmovil8_B){
   0254 7B            [ 4]  481 	ld	a, e
   0255 D6 16         [ 7]  482 	sub	a, #0x16
   0257 20 16         [12]  483 	jr	NZ,00179$
                            484 ;src/gameObject/gameObject.c:121: cpct_drawSprite(Block_Static8_B_0, calcularPosicionEnPantalla(objeto->posx,objeto->posy), anchoSprite, altoSprite);
   0259 46            [ 7]  485 	ld	b, (hl)
   025A 4A            [ 4]  486 	ld	c, d
   025B C5            [11]  487 	push	bc
   025C CDr00r00      [17]  488 	call	_calcularPosicionEnPantalla
   025F F1            [10]  489 	pop	af
   0260 01r00r00      [10]  490 	ld	bc, #_Block_Static8_B_0+0
   0263 11 04 10      [10]  491 	ld	de, #0x1004
   0266 D5            [11]  492 	push	de
   0267 E5            [11]  493 	push	hl
   0268 C5            [11]  494 	push	bc
   0269 CDr00r00      [17]  495 	call	_cpct_drawSprite
   026C C3r26r05      [10]  496 	jp	00237$
   026F                     497 00179$:
                            498 ;src/gameObject/gameObject.c:122: }else if(objeto->sprite==sprite_RockInmovil9_G){
   026F 7B            [ 4]  499 	ld	a, e
   0270 D6 17         [ 7]  500 	sub	a, #0x17
   0272 20 16         [12]  501 	jr	NZ,00176$
                            502 ;src/gameObject/gameObject.c:123: cpct_drawSprite(Block_Static9_G_0, calcularPosicionEnPantalla(objeto->posx,objeto->posy), anchoSprite, altoSprite);
   0274 46            [ 7]  503 	ld	b, (hl)
   0275 4A            [ 4]  504 	ld	c, d
   0276 C5            [11]  505 	push	bc
   0277 CDr00r00      [17]  506 	call	_calcularPosicionEnPantalla
   027A F1            [10]  507 	pop	af
   027B 01r00r00      [10]  508 	ld	bc, #_Block_Static9_G_0+0
   027E 11 04 10      [10]  509 	ld	de, #0x1004
   0281 D5            [11]  510 	push	de
   0282 E5            [11]  511 	push	hl
   0283 C5            [11]  512 	push	bc
   0284 CDr00r00      [17]  513 	call	_cpct_drawSprite
   0287 C3r26r05      [10]  514 	jp	00237$
   028A                     515 00176$:
                            516 ;src/gameObject/gameObject.c:124: }else if(objeto->sprite==sprite_RockInmovil9_B){
   028A 7B            [ 4]  517 	ld	a, e
   028B D6 18         [ 7]  518 	sub	a, #0x18
   028D 20 16         [12]  519 	jr	NZ,00173$
                            520 ;src/gameObject/gameObject.c:125: cpct_drawSprite(Block_Static9_B_0, calcularPosicionEnPantalla(objeto->posx,objeto->posy), anchoSprite, altoSprite);
   028F 46            [ 7]  521 	ld	b, (hl)
   0290 4A            [ 4]  522 	ld	c, d
   0291 C5            [11]  523 	push	bc
   0292 CDr00r00      [17]  524 	call	_calcularPosicionEnPantalla
   0295 F1            [10]  525 	pop	af
   0296 01r00r00      [10]  526 	ld	bc, #_Block_Static9_B_0+0
   0299 11 04 10      [10]  527 	ld	de, #0x1004
   029C D5            [11]  528 	push	de
   029D E5            [11]  529 	push	hl
   029E C5            [11]  530 	push	bc
   029F CDr00r00      [17]  531 	call	_cpct_drawSprite
   02A2 C3r26r05      [10]  532 	jp	00237$
   02A5                     533 00173$:
                            534 ;src/gameObject/gameObject.c:126: }else if(objeto->sprite==sprite_RockLineal1_G){
   02A5 7B            [ 4]  535 	ld	a, e
   02A6 D6 05         [ 7]  536 	sub	a, #0x05
   02A8 20 16         [12]  537 	jr	NZ,00170$
                            538 ;src/gameObject/gameObject.c:127: cpct_drawSprite(Block_Move2_G_0, calcularPosicionEnPantalla(objeto->posx,objeto->posy), anchoSprite, altoSprite);
   02AA 46            [ 7]  539 	ld	b, (hl)
   02AB 4A            [ 4]  540 	ld	c, d
   02AC C5            [11]  541 	push	bc
   02AD CDr00r00      [17]  542 	call	_calcularPosicionEnPantalla
   02B0 F1            [10]  543 	pop	af
   02B1 01r00r00      [10]  544 	ld	bc, #_Block_Move2_G_0+0
   02B4 11 04 10      [10]  545 	ld	de, #0x1004
   02B7 D5            [11]  546 	push	de
   02B8 E5            [11]  547 	push	hl
   02B9 C5            [11]  548 	push	bc
   02BA CDr00r00      [17]  549 	call	_cpct_drawSprite
   02BD C3r26r05      [10]  550 	jp	00237$
   02C0                     551 00170$:
                            552 ;src/gameObject/gameObject.c:128: }else if(objeto->sprite==sprite_RockLineal1_B){
   02C0 7B            [ 4]  553 	ld	a, e
   02C1 D6 06         [ 7]  554 	sub	a, #0x06
   02C3 20 16         [12]  555 	jr	NZ,00167$
                            556 ;src/gameObject/gameObject.c:129: cpct_drawSprite(Block_Move2_B_0, calcularPosicionEnPantalla(objeto->posx,objeto->posy), anchoSprite, altoSprite);
   02C5 46            [ 7]  557 	ld	b, (hl)
   02C6 4A            [ 4]  558 	ld	c, d
   02C7 C5            [11]  559 	push	bc
   02C8 CDr00r00      [17]  560 	call	_calcularPosicionEnPantalla
   02CB F1            [10]  561 	pop	af
   02CC 01r00r00      [10]  562 	ld	bc, #_Block_Move2_B_0+0
   02CF 11 04 10      [10]  563 	ld	de, #0x1004
   02D2 D5            [11]  564 	push	de
   02D3 E5            [11]  565 	push	hl
   02D4 C5            [11]  566 	push	bc
   02D5 CDr00r00      [17]  567 	call	_cpct_drawSprite
   02D8 C3r26r05      [10]  568 	jp	00237$
   02DB                     569 00167$:
                            570 ;src/gameObject/gameObject.c:130: }else if(objeto->sprite==sprite_PortalMuro){
   02DB 7B            [ 4]  571 	ld	a, e
   02DC D6 19         [ 7]  572 	sub	a, #0x19
   02DE 20 16         [12]  573 	jr	NZ,00164$
                            574 ;src/gameObject/gameObject.c:131: cpct_drawSprite(PortalWall_0, calcularPosicionEnPantalla(objeto->posx,objeto->posy), anchoSprite, altoSprite);
   02E0 46            [ 7]  575 	ld	b, (hl)
   02E1 4A            [ 4]  576 	ld	c, d
   02E2 C5            [11]  577 	push	bc
   02E3 CDr00r00      [17]  578 	call	_calcularPosicionEnPantalla
   02E6 F1            [10]  579 	pop	af
   02E7 01r00r00      [10]  580 	ld	bc, #_PortalWall_0+0
   02EA 11 04 10      [10]  581 	ld	de, #0x1004
   02ED D5            [11]  582 	push	de
   02EE E5            [11]  583 	push	hl
   02EF C5            [11]  584 	push	bc
   02F0 CDr00r00      [17]  585 	call	_cpct_drawSprite
   02F3 C3r26r05      [10]  586 	jp	00237$
   02F6                     587 00164$:
                            588 ;src/gameObject/gameObject.c:132: }else if(objeto->sprite==sprite_PuertaPortal_G){
   02F6 7B            [ 4]  589 	ld	a, e
   02F7 D6 1A         [ 7]  590 	sub	a, #0x1a
   02F9 20 16         [12]  591 	jr	NZ,00161$
                            592 ;src/gameObject/gameObject.c:133: cpct_drawSprite(PortalDoor_G_0, calcularPosicionEnPantalla(objeto->posx,objeto->posy), anchoSprite, altoSprite);
   02FB 46            [ 7]  593 	ld	b, (hl)
   02FC 4A            [ 4]  594 	ld	c, d
   02FD C5            [11]  595 	push	bc
   02FE CDr00r00      [17]  596 	call	_calcularPosicionEnPantalla
   0301 F1            [10]  597 	pop	af
   0302 01r00r00      [10]  598 	ld	bc, #_PortalDoor_G_0+0
   0305 11 04 10      [10]  599 	ld	de, #0x1004
   0308 D5            [11]  600 	push	de
   0309 E5            [11]  601 	push	hl
   030A C5            [11]  602 	push	bc
   030B CDr00r00      [17]  603 	call	_cpct_drawSprite
   030E C3r26r05      [10]  604 	jp	00237$
   0311                     605 00161$:
                            606 ;src/gameObject/gameObject.c:134: }else if(objeto->sprite==sprite_Muro_Solid1){
   0311 7B            [ 4]  607 	ld	a, e
   0312 D6 1D         [ 7]  608 	sub	a, #0x1d
   0314 20 16         [12]  609 	jr	NZ,00158$
                            610 ;src/gameObject/gameObject.c:135: cpct_drawSprite(Wall_Solid1_0, calcularPosicionEnPantalla(objeto->posx,objeto->posy), anchoSprite, altoSprite);
   0316 46            [ 7]  611 	ld	b, (hl)
   0317 4A            [ 4]  612 	ld	c, d
   0318 C5            [11]  613 	push	bc
   0319 CDr00r00      [17]  614 	call	_calcularPosicionEnPantalla
   031C F1            [10]  615 	pop	af
   031D 01r00r00      [10]  616 	ld	bc, #_Wall_Solid1_0+0
   0320 11 04 10      [10]  617 	ld	de, #0x1004
   0323 D5            [11]  618 	push	de
   0324 E5            [11]  619 	push	hl
   0325 C5            [11]  620 	push	bc
   0326 CDr00r00      [17]  621 	call	_cpct_drawSprite
   0329 C3r26r05      [10]  622 	jp	00237$
   032C                     623 00158$:
                            624 ;src/gameObject/gameObject.c:136: }else if(objeto->sprite==sprite_Muro_Polvo1){
   032C 7B            [ 4]  625 	ld	a, e
   032D D6 1C         [ 7]  626 	sub	a, #0x1c
   032F 20 16         [12]  627 	jr	NZ,00155$
                            628 ;src/gameObject/gameObject.c:137: cpct_drawSprite(Wall_Dust_B_0, calcularPosicionEnPantalla(objeto->posx,objeto->posy), anchoSprite, altoSprite);
   0331 46            [ 7]  629 	ld	b, (hl)
   0332 4A            [ 4]  630 	ld	c, d
   0333 C5            [11]  631 	push	bc
   0334 CDr00r00      [17]  632 	call	_calcularPosicionEnPantalla
   0337 F1            [10]  633 	pop	af
   0338 01r00r00      [10]  634 	ld	bc, #_Wall_Dust_B_0+0
   033B 11 04 10      [10]  635 	ld	de, #0x1004
   033E D5            [11]  636 	push	de
   033F E5            [11]  637 	push	hl
   0340 C5            [11]  638 	push	bc
   0341 CDr00r00      [17]  639 	call	_cpct_drawSprite
   0344 C3r26r05      [10]  640 	jp	00237$
   0347                     641 00155$:
                            642 ;src/gameObject/gameObject.c:138: }else if(objeto->sprite==sprite_PuertaPortal_B){
   0347 7B            [ 4]  643 	ld	a, e
   0348 D6 1B         [ 7]  644 	sub	a, #0x1b
   034A 20 16         [12]  645 	jr	NZ,00152$
                            646 ;src/gameObject/gameObject.c:139: cpct_drawSprite(PortalDoor_B_0, calcularPosicionEnPantalla(objeto->posx,objeto->posy), anchoSprite, altoSprite);
   034C 46            [ 7]  647 	ld	b, (hl)
   034D 4A            [ 4]  648 	ld	c, d
   034E C5            [11]  649 	push	bc
   034F CDr00r00      [17]  650 	call	_calcularPosicionEnPantalla
   0352 F1            [10]  651 	pop	af
   0353 01r00r00      [10]  652 	ld	bc, #_PortalDoor_B_0+0
   0356 11 04 10      [10]  653 	ld	de, #0x1004
   0359 D5            [11]  654 	push	de
   035A E5            [11]  655 	push	hl
   035B C5            [11]  656 	push	bc
   035C CDr00r00      [17]  657 	call	_cpct_drawSprite
   035F C3r26r05      [10]  658 	jp	00237$
   0362                     659 00152$:
                            660 ;src/gameObject/gameObject.c:140: }else if(objeto->sprite==sprite_Puerta_G){
   0362 7B            [ 4]  661 	ld	a, e
   0363 D6 1E         [ 7]  662 	sub	a, #0x1e
   0365 20 16         [12]  663 	jr	NZ,00149$
                            664 ;src/gameObject/gameObject.c:141: cpct_drawSprite(Door_G_0, calcularPosicionEnPantalla(objeto->posx,objeto->posy), anchoSprite, altoSprite);
   0367 46            [ 7]  665 	ld	b, (hl)
   0368 4A            [ 4]  666 	ld	c, d
   0369 C5            [11]  667 	push	bc
   036A CDr00r00      [17]  668 	call	_calcularPosicionEnPantalla
   036D F1            [10]  669 	pop	af
   036E 01r00r00      [10]  670 	ld	bc, #_Door_G_0+0
   0371 11 04 10      [10]  671 	ld	de, #0x1004
   0374 D5            [11]  672 	push	de
   0375 E5            [11]  673 	push	hl
   0376 C5            [11]  674 	push	bc
   0377 CDr00r00      [17]  675 	call	_cpct_drawSprite
   037A C3r26r05      [10]  676 	jp	00237$
   037D                     677 00149$:
                            678 ;src/gameObject/gameObject.c:142: }else if(objeto->sprite==sprite_Puerta_B){
   037D 7B            [ 4]  679 	ld	a, e
   037E D6 1F         [ 7]  680 	sub	a, #0x1f
   0380 20 16         [12]  681 	jr	NZ,00146$
                            682 ;src/gameObject/gameObject.c:143: cpct_drawSprite(Door_B_0, calcularPosicionEnPantalla(objeto->posx,objeto->posy), anchoSprite, altoSprite);
   0382 46            [ 7]  683 	ld	b, (hl)
   0383 4A            [ 4]  684 	ld	c, d
   0384 C5            [11]  685 	push	bc
   0385 CDr00r00      [17]  686 	call	_calcularPosicionEnPantalla
   0388 F1            [10]  687 	pop	af
   0389 01r00r00      [10]  688 	ld	bc, #_Door_B_0+0
   038C 11 04 10      [10]  689 	ld	de, #0x1004
   038F D5            [11]  690 	push	de
   0390 E5            [11]  691 	push	hl
   0391 C5            [11]  692 	push	bc
   0392 CDr00r00      [17]  693 	call	_cpct_drawSprite
   0395 C3r26r05      [10]  694 	jp	00237$
   0398                     695 00146$:
                            696 ;src/gameObject/gameObject.c:144: }else if(objeto->sprite==sprite_StairUp1_G){
   0398 7B            [ 4]  697 	ld	a, e
   0399 D6 20         [ 7]  698 	sub	a, #0x20
   039B 20 16         [12]  699 	jr	NZ,00143$
                            700 ;src/gameObject/gameObject.c:145: cpct_drawSprite(StairUp1_G_0, calcularPosicionEnPantalla(objeto->posx,objeto->posy), anchoSprite, altoSprite);
   039D 46            [ 7]  701 	ld	b, (hl)
   039E 4A            [ 4]  702 	ld	c, d
   039F C5            [11]  703 	push	bc
   03A0 CDr00r00      [17]  704 	call	_calcularPosicionEnPantalla
   03A3 F1            [10]  705 	pop	af
   03A4 01r00r00      [10]  706 	ld	bc, #_StairUp1_G_0+0
   03A7 11 04 10      [10]  707 	ld	de, #0x1004
   03AA D5            [11]  708 	push	de
   03AB E5            [11]  709 	push	hl
   03AC C5            [11]  710 	push	bc
   03AD CDr00r00      [17]  711 	call	_cpct_drawSprite
   03B0 C3r26r05      [10]  712 	jp	00237$
   03B3                     713 00143$:
                            714 ;src/gameObject/gameObject.c:146: }else if(objeto->sprite==sprite_StairUp1_B){
   03B3 7B            [ 4]  715 	ld	a, e
   03B4 D6 21         [ 7]  716 	sub	a, #0x21
   03B6 20 16         [12]  717 	jr	NZ,00140$
                            718 ;src/gameObject/gameObject.c:147: cpct_drawSprite(StairUp1_B_0, calcularPosicionEnPantalla(objeto->posx,objeto->posy), anchoSprite, altoSprite);
   03B8 46            [ 7]  719 	ld	b, (hl)
   03B9 4A            [ 4]  720 	ld	c, d
   03BA C5            [11]  721 	push	bc
   03BB CDr00r00      [17]  722 	call	_calcularPosicionEnPantalla
   03BE F1            [10]  723 	pop	af
   03BF 01r00r00      [10]  724 	ld	bc, #_StairUp1_B_0+0
   03C2 11 04 10      [10]  725 	ld	de, #0x1004
   03C5 D5            [11]  726 	push	de
   03C6 E5            [11]  727 	push	hl
   03C7 C5            [11]  728 	push	bc
   03C8 CDr00r00      [17]  729 	call	_cpct_drawSprite
   03CB C3r26r05      [10]  730 	jp	00237$
   03CE                     731 00140$:
                            732 ;src/gameObject/gameObject.c:148: }else if(objeto->sprite==sprite_StairDown1_G){
   03CE 7B            [ 4]  733 	ld	a, e
   03CF D6 22         [ 7]  734 	sub	a, #0x22
   03D1 20 16         [12]  735 	jr	NZ,00137$
                            736 ;src/gameObject/gameObject.c:149: cpct_drawSprite(StairDown1_G_0, calcularPosicionEnPantalla(objeto->posx,objeto->posy), anchoSprite, altoSprite);
   03D3 46            [ 7]  737 	ld	b, (hl)
   03D4 4A            [ 4]  738 	ld	c, d
   03D5 C5            [11]  739 	push	bc
   03D6 CDr00r00      [17]  740 	call	_calcularPosicionEnPantalla
   03D9 F1            [10]  741 	pop	af
   03DA 01r00r00      [10]  742 	ld	bc, #_StairDown1_G_0+0
   03DD 11 04 10      [10]  743 	ld	de, #0x1004
   03E0 D5            [11]  744 	push	de
   03E1 E5            [11]  745 	push	hl
   03E2 C5            [11]  746 	push	bc
   03E3 CDr00r00      [17]  747 	call	_cpct_drawSprite
   03E6 C3r26r05      [10]  748 	jp	00237$
   03E9                     749 00137$:
                            750 ;src/gameObject/gameObject.c:150: }else if(objeto->sprite==sprite_StairDown1_B){
   03E9 7B            [ 4]  751 	ld	a, e
   03EA D6 23         [ 7]  752 	sub	a, #0x23
   03EC 20 16         [12]  753 	jr	NZ,00134$
                            754 ;src/gameObject/gameObject.c:151: cpct_drawSprite(StairDown1_B_0, calcularPosicionEnPantalla(objeto->posx,objeto->posy), anchoSprite, altoSprite);
   03EE 46            [ 7]  755 	ld	b, (hl)
   03EF 4A            [ 4]  756 	ld	c, d
   03F0 C5            [11]  757 	push	bc
   03F1 CDr00r00      [17]  758 	call	_calcularPosicionEnPantalla
   03F4 F1            [10]  759 	pop	af
   03F5 01r00r00      [10]  760 	ld	bc, #_StairDown1_B_0+0
   03F8 11 04 10      [10]  761 	ld	de, #0x1004
   03FB D5            [11]  762 	push	de
   03FC E5            [11]  763 	push	hl
   03FD C5            [11]  764 	push	bc
   03FE CDr00r00      [17]  765 	call	_cpct_drawSprite
   0401 C3r26r05      [10]  766 	jp	00237$
   0404                     767 00134$:
                            768 ;src/gameObject/gameObject.c:152: }else if(objeto->sprite==sprite_hole){
   0404 7B            [ 4]  769 	ld	a, e
   0405 D6 24         [ 7]  770 	sub	a, #0x24
   0407 20 16         [12]  771 	jr	NZ,00131$
                            772 ;src/gameObject/gameObject.c:153: cpct_drawSprite(Block_Hole_0, calcularPosicionEnPantalla(objeto->posx,objeto->posy), anchoSprite, altoSprite);
   0409 46            [ 7]  773 	ld	b, (hl)
   040A 4A            [ 4]  774 	ld	c, d
   040B C5            [11]  775 	push	bc
   040C CDr00r00      [17]  776 	call	_calcularPosicionEnPantalla
   040F F1            [10]  777 	pop	af
   0410 01r00r00      [10]  778 	ld	bc, #_Block_Hole_0+0
   0413 11 04 10      [10]  779 	ld	de, #0x1004
   0416 D5            [11]  780 	push	de
   0417 E5            [11]  781 	push	hl
   0418 C5            [11]  782 	push	bc
   0419 CDr00r00      [17]  783 	call	_cpct_drawSprite
   041C C3r26r05      [10]  784 	jp	00237$
   041F                     785 00131$:
                            786 ;src/gameObject/gameObject.c:154: }else if(objeto->sprite==sprite_amstrad){
   041F 7B            [ 4]  787 	ld	a, e
   0420 D6 2E         [ 7]  788 	sub	a, #0x2e
   0422 20 16         [12]  789 	jr	NZ,00128$
                            790 ;src/gameObject/gameObject.c:155: cpct_drawSprite(Amstrad_0, calcularPosicionEnPantalla(objeto->posx,objeto->posy), anchoSprite, altoSprite);
   0424 46            [ 7]  791 	ld	b, (hl)
   0425 4A            [ 4]  792 	ld	c, d
   0426 C5            [11]  793 	push	bc
   0427 CDr00r00      [17]  794 	call	_calcularPosicionEnPantalla
   042A F1            [10]  795 	pop	af
   042B 01r00r00      [10]  796 	ld	bc, #_Amstrad_0+0
   042E 11 04 10      [10]  797 	ld	de, #0x1004
   0431 D5            [11]  798 	push	de
   0432 E5            [11]  799 	push	hl
   0433 C5            [11]  800 	push	bc
   0434 CDr00r00      [17]  801 	call	_cpct_drawSprite
   0437 C3r26r05      [10]  802 	jp	00237$
   043A                     803 00128$:
                            804 ;src/gameObject/gameObject.c:156: }else if(objeto->sprite==sprite_PrinceofPersia1_G){
   043A 7B            [ 4]  805 	ld	a, e
   043B D6 30         [ 7]  806 	sub	a, #0x30
   043D 20 16         [12]  807 	jr	NZ,00125$
                            808 ;src/gameObject/gameObject.c:157: cpct_drawSprite(PrinceOfPersia_PJ_G_0, calcularPosicionEnPantalla(objeto->posx,objeto->posy), anchoSprite, altoSprite);
   043F 46            [ 7]  809 	ld	b, (hl)
   0440 4A            [ 4]  810 	ld	c, d
   0441 C5            [11]  811 	push	bc
   0442 CDr00r00      [17]  812 	call	_calcularPosicionEnPantalla
   0445 F1            [10]  813 	pop	af
   0446 01r00r00      [10]  814 	ld	bc, #_PrinceOfPersia_PJ_G_0+0
   0449 11 04 10      [10]  815 	ld	de, #0x1004
   044C D5            [11]  816 	push	de
   044D E5            [11]  817 	push	hl
   044E C5            [11]  818 	push	bc
   044F CDr00r00      [17]  819 	call	_cpct_drawSprite
   0452 C3r26r05      [10]  820 	jp	00237$
   0455                     821 00125$:
                            822 ;src/gameObject/gameObject.c:158: }else if(objeto->sprite==sprite_PrinceofPersia1_B){
   0455 7B            [ 4]  823 	ld	a, e
   0456 D6 31         [ 7]  824 	sub	a, #0x31
   0458 20 16         [12]  825 	jr	NZ,00122$
                            826 ;src/gameObject/gameObject.c:159: cpct_drawSprite(PrinceOfPersia_PJ_B_0, calcularPosicionEnPantalla(objeto->posx,objeto->posy), anchoSprite, altoSprite);
   045A 46            [ 7]  827 	ld	b, (hl)
   045B 4A            [ 4]  828 	ld	c, d
   045C C5            [11]  829 	push	bc
   045D CDr00r00      [17]  830 	call	_calcularPosicionEnPantalla
   0460 F1            [10]  831 	pop	af
   0461 01r00r00      [10]  832 	ld	bc, #_PrinceOfPersia_PJ_B_0+0
   0464 11 04 10      [10]  833 	ld	de, #0x1004
   0467 D5            [11]  834 	push	de
   0468 E5            [11]  835 	push	hl
   0469 C5            [11]  836 	push	bc
   046A CDr00r00      [17]  837 	call	_cpct_drawSprite
   046D C3r26r05      [10]  838 	jp	00237$
   0470                     839 00122$:
                            840 ;src/gameObject/gameObject.c:160: }else if(objeto->sprite==sprite_PrinceofPersia2_G){
   0470 7B            [ 4]  841 	ld	a, e
   0471 D6 32         [ 7]  842 	sub	a, #0x32
   0473 20 16         [12]  843 	jr	NZ,00119$
                            844 ;src/gameObject/gameObject.c:161: cpct_drawSprite(PrinceOfPersia_ENE_G_0, calcularPosicionEnPantalla(objeto->posx,objeto->posy), anchoSprite, altoSprite);
   0475 46            [ 7]  845 	ld	b, (hl)
   0476 4A            [ 4]  846 	ld	c, d
   0477 C5            [11]  847 	push	bc
   0478 CDr00r00      [17]  848 	call	_calcularPosicionEnPantalla
   047B F1            [10]  849 	pop	af
   047C 01r00r00      [10]  850 	ld	bc, #_PrinceOfPersia_ENE_G_0+0
   047F 11 04 10      [10]  851 	ld	de, #0x1004
   0482 D5            [11]  852 	push	de
   0483 E5            [11]  853 	push	hl
   0484 C5            [11]  854 	push	bc
   0485 CDr00r00      [17]  855 	call	_cpct_drawSprite
   0488 C3r26r05      [10]  856 	jp	00237$
   048B                     857 00119$:
                            858 ;src/gameObject/gameObject.c:162: }else if(objeto->sprite==sprite_PrinceofPersia2_B){
   048B 7B            [ 4]  859 	ld	a, e
   048C D6 33         [ 7]  860 	sub	a, #0x33
   048E 20 16         [12]  861 	jr	NZ,00116$
                            862 ;src/gameObject/gameObject.c:163: cpct_drawSprite(PrinceOfPersia_ENE_B_0, calcularPosicionEnPantalla(objeto->posx,objeto->posy), anchoSprite, altoSprite);
   0490 46            [ 7]  863 	ld	b, (hl)
   0491 4A            [ 4]  864 	ld	c, d
   0492 C5            [11]  865 	push	bc
   0493 CDr00r00      [17]  866 	call	_calcularPosicionEnPantalla
   0496 F1            [10]  867 	pop	af
   0497 01r00r00      [10]  868 	ld	bc, #_PrinceOfPersia_ENE_B_0+0
   049A 11 04 10      [10]  869 	ld	de, #0x1004
   049D D5            [11]  870 	push	de
   049E E5            [11]  871 	push	hl
   049F C5            [11]  872 	push	bc
   04A0 CDr00r00      [17]  873 	call	_cpct_drawSprite
   04A3 C3r26r05      [10]  874 	jp	00237$
   04A6                     875 00116$:
                            876 ;src/gameObject/gameObject.c:164: }else if(objeto->sprite==sprite_PrinceofPersia3){
   04A6 7B            [ 4]  877 	ld	a, e
   04A7 D6 34         [ 7]  878 	sub	a, #0x34
   04A9 20 15         [12]  879 	jr	NZ,00113$
                            880 ;src/gameObject/gameObject.c:165: cpct_drawSprite(PrinceOfPersia_COVER_0, calcularPosicionEnPantalla(objeto->posx,objeto->posy), anchoSprite, altoSprite);
   04AB 46            [ 7]  881 	ld	b, (hl)
   04AC 4A            [ 4]  882 	ld	c, d
   04AD C5            [11]  883 	push	bc
   04AE CDr00r00      [17]  884 	call	_calcularPosicionEnPantalla
   04B1 F1            [10]  885 	pop	af
   04B2 01r00r00      [10]  886 	ld	bc, #_PrinceOfPersia_COVER_0+0
   04B5 11 04 10      [10]  887 	ld	de, #0x1004
   04B8 D5            [11]  888 	push	de
   04B9 E5            [11]  889 	push	hl
   04BA C5            [11]  890 	push	bc
   04BB CDr00r00      [17]  891 	call	_cpct_drawSprite
   04BE 18 66         [12]  892 	jr	00237$
   04C0                     893 00113$:
                            894 ;src/gameObject/gameObject.c:166: }else if(objeto->sprite==sprite_enemigo1){
   04C0 7B            [ 4]  895 	ld	a, e
   04C1 D6 2A         [ 7]  896 	sub	a, #0x2a
   04C3 20 15         [12]  897 	jr	NZ,00110$
                            898 ;src/gameObject/gameObject.c:167: cpct_drawSprite(Enemy_01_0, calcularPosicionEnPantalla(objeto->posx,objeto->posy), anchoSprite, altoSprite);
   04C5 46            [ 7]  899 	ld	b, (hl)
   04C6 4A            [ 4]  900 	ld	c, d
   04C7 C5            [11]  901 	push	bc
   04C8 CDr00r00      [17]  902 	call	_calcularPosicionEnPantalla
   04CB F1            [10]  903 	pop	af
   04CC 01r00r00      [10]  904 	ld	bc, #_Enemy_01_0+0
   04CF 11 04 10      [10]  905 	ld	de, #0x1004
   04D2 D5            [11]  906 	push	de
   04D3 E5            [11]  907 	push	hl
   04D4 C5            [11]  908 	push	bc
   04D5 CDr00r00      [17]  909 	call	_cpct_drawSprite
   04D8 18 4C         [12]  910 	jr	00237$
   04DA                     911 00110$:
                            912 ;src/gameObject/gameObject.c:168: }else if(objeto->sprite==sprite_zul1_1){
   04DA 7B            [ 4]  913 	ld	a, e
   04DB D6 2C         [ 7]  914 	sub	a, #0x2c
   04DD 20 15         [12]  915 	jr	NZ,00107$
                            916 ;src/gameObject/gameObject.c:169: cpct_drawSprite(zul1_1_0, calcularPosicionEnPantalla(objeto->posx,objeto->posy), anchoSprite, altoSprite);
   04DF 46            [ 7]  917 	ld	b, (hl)
   04E0 4A            [ 4]  918 	ld	c, d
   04E1 C5            [11]  919 	push	bc
   04E2 CDr00r00      [17]  920 	call	_calcularPosicionEnPantalla
   04E5 F1            [10]  921 	pop	af
   04E6 01r00r00      [10]  922 	ld	bc, #_zul1_1_0+0
   04E9 11 04 10      [10]  923 	ld	de, #0x1004
   04EC D5            [11]  924 	push	de
   04ED E5            [11]  925 	push	hl
   04EE C5            [11]  926 	push	bc
   04EF CDr00r00      [17]  927 	call	_cpct_drawSprite
   04F2 18 32         [12]  928 	jr	00237$
   04F4                     929 00107$:
                            930 ;src/gameObject/gameObject.c:170: }else if(objeto->sprite==sprite_zul1_2){
   04F4 7B            [ 4]  931 	ld	a, e
   04F5 D6 2D         [ 7]  932 	sub	a, #0x2d
   04F7 20 15         [12]  933 	jr	NZ,00104$
                            934 ;src/gameObject/gameObject.c:171: cpct_drawSprite(zul1_2_0, calcularPosicionEnPantalla(objeto->posx,objeto->posy), anchoSprite, altoSprite);
   04F9 46            [ 7]  935 	ld	b, (hl)
   04FA 4A            [ 4]  936 	ld	c, d
   04FB C5            [11]  937 	push	bc
   04FC CDr00r00      [17]  938 	call	_calcularPosicionEnPantalla
   04FF F1            [10]  939 	pop	af
   0500 01r00r00      [10]  940 	ld	bc, #_zul1_2_0+0
   0503 11 04 10      [10]  941 	ld	de, #0x1004
   0506 D5            [11]  942 	push	de
   0507 E5            [11]  943 	push	hl
   0508 C5            [11]  944 	push	bc
   0509 CDr00r00      [17]  945 	call	_cpct_drawSprite
   050C 18 18         [12]  946 	jr	00237$
   050E                     947 00104$:
                            948 ;src/gameObject/gameObject.c:172: }else if(objeto->sprite==sprite_RockInmovil6_B){
   050E 7B            [ 4]  949 	ld	a, e
   050F D6 12         [ 7]  950 	sub	a, #0x12
   0511 20 13         [12]  951 	jr	NZ,00237$
                            952 ;src/gameObject/gameObject.c:173: cpct_drawSprite(Block_Static6_BB_0, calcularPosicionEnPantalla(objeto->posx,objeto->posy), anchoSprite, altoSprite);
   0513 46            [ 7]  953 	ld	b, (hl)
   0514 4A            [ 4]  954 	ld	c, d
   0515 C5            [11]  955 	push	bc
   0516 CDr00r00      [17]  956 	call	_calcularPosicionEnPantalla
   0519 F1            [10]  957 	pop	af
   051A 01r00r00      [10]  958 	ld	bc, #_Block_Static6_BB_0+0
   051D 11 04 10      [10]  959 	ld	de, #0x1004
   0520 D5            [11]  960 	push	de
   0521 E5            [11]  961 	push	hl
   0522 C5            [11]  962 	push	bc
   0523 CDr00r00      [17]  963 	call	_cpct_drawSprite
   0526                     964 00237$:
   0526 DD E1         [14]  965 	pop	ix
   0528 C9            [10]  966 	ret
                            967 ;src/gameObject/gameObject.c:178: void dibujarGameObjectCol(TGameObjectCol* objeto){
                            968 ;	---------------------------------
                            969 ; Function dibujarGameObjectCol
                            970 ; ---------------------------------
   0529                     971 _dibujarGameObjectCol::
   0529 DD E5         [15]  972 	push	ix
   052B DD 21 00 00   [14]  973 	ld	ix,#0
   052F DD 39         [15]  974 	add	ix,sp
                            975 ;src/gameObject/gameObject.c:179: if(objeto->posx!=0){
   0531 DD 4E 04      [19]  976 	ld	c,4 (ix)
   0534 DD 46 05      [19]  977 	ld	b,5 (ix)
   0537 69            [ 4]  978 	ld	l, c
   0538 60            [ 4]  979 	ld	h, b
   0539 23            [ 6]  980 	inc	hl
   053A 56            [ 7]  981 	ld	d, (hl)
   053B 7A            [ 4]  982 	ld	a, d
   053C B7            [ 4]  983 	or	a, a
   053D CArE9r05      [10]  984 	jp	Z, 00120$
                            985 ;src/gameObject/gameObject.c:180: if(objeto->sprite==sprite_luz){
   0540 69            [ 4]  986 	ld	l, c
   0541 60            [ 4]  987 	ld	h, b
   0542 23            [ 6]  988 	inc	hl
   0543 23            [ 6]  989 	inc	hl
   0544 23            [ 6]  990 	inc	hl
   0545 5E            [ 7]  991 	ld	e, (hl)
                            992 ;src/gameObject/gameObject.c:181: cpct_drawSprite(LuzAzul_0, calcularPosicionEnPantalla(objeto->posx,objeto->posy), anchoSprite, altoSprite);  
   0546 69            [ 4]  993 	ld	l, c
   0547 60            [ 4]  994 	ld	h, b
   0548 23            [ 6]  995 	inc	hl
   0549 23            [ 6]  996 	inc	hl
                            997 ;src/gameObject/gameObject.c:180: if(objeto->sprite==sprite_luz){
   054A 7B            [ 4]  998 	ld	a, e
   054B D6 25         [ 7]  999 	sub	a, #0x25
   054D 20 18         [12] 1000 	jr	NZ,00116$
                           1001 ;src/gameObject/gameObject.c:181: cpct_drawSprite(LuzAzul_0, calcularPosicionEnPantalla(objeto->posx,objeto->posy), anchoSprite, altoSprite);  
   054F 46            [ 7] 1002 	ld	b, (hl)
   0550 4A            [ 4] 1003 	ld	c, d
   0551 C5            [11] 1004 	push	bc
   0552 CDr00r00      [17] 1005 	call	_calcularPosicionEnPantalla
   0555 F1            [10] 1006 	pop	af
   0556 4D            [ 4] 1007 	ld	c, l
   0557 44            [ 4] 1008 	ld	b, h
   0558 21 04 10      [10] 1009 	ld	hl, #0x1004
   055B E5            [11] 1010 	push	hl
   055C C5            [11] 1011 	push	bc
   055D 21r00r00      [10] 1012 	ld	hl, #_LuzAzul_0
   0560 E5            [11] 1013 	push	hl
   0561 CDr00r00      [17] 1014 	call	_cpct_drawSprite
   0564 C3rE9r05      [10] 1015 	jp	00120$
   0567                    1016 00116$:
                           1017 ;src/gameObject/gameObject.c:182: }else if(objeto->sprite==sprite_familia1){
   0567 7B            [ 4] 1018 	ld	a, e
   0568 D6 26         [ 7] 1019 	sub	a, #0x26
   056A 20 17         [12] 1020 	jr	NZ,00113$
                           1021 ;src/gameObject/gameObject.c:183: cpct_drawSprite(Character_Brother_0, calcularPosicionEnPantalla(objeto->posx,objeto->posy), anchoSprite, altoSprite);
   056C 46            [ 7] 1022 	ld	b, (hl)
   056D 4A            [ 4] 1023 	ld	c, d
   056E C5            [11] 1024 	push	bc
   056F CDr00r00      [17] 1025 	call	_calcularPosicionEnPantalla
   0572 F1            [10] 1026 	pop	af
   0573 4D            [ 4] 1027 	ld	c, l
   0574 44            [ 4] 1028 	ld	b, h
   0575 21 04 10      [10] 1029 	ld	hl, #0x1004
   0578 E5            [11] 1030 	push	hl
   0579 C5            [11] 1031 	push	bc
   057A 21r00r00      [10] 1032 	ld	hl, #_Character_Brother_0
   057D E5            [11] 1033 	push	hl
   057E CDr00r00      [17] 1034 	call	_cpct_drawSprite
   0581 18 66         [12] 1035 	jr	00120$
   0583                    1036 00113$:
                           1037 ;src/gameObject/gameObject.c:184: }else if(objeto->sprite==sprite_familia2){
   0583 7B            [ 4] 1038 	ld	a, e
   0584 D6 27         [ 7] 1039 	sub	a, #0x27
   0586 20 15         [12] 1040 	jr	NZ,00110$
                           1041 ;src/gameObject/gameObject.c:185: cpct_drawSprite(Character_Sister_0, calcularPosicionEnPantalla(objeto->posx,objeto->posy), anchoSprite, altoSprite);
   0588 46            [ 7] 1042 	ld	b, (hl)
   0589 4A            [ 4] 1043 	ld	c, d
   058A C5            [11] 1044 	push	bc
   058B CDr00r00      [17] 1045 	call	_calcularPosicionEnPantalla
   058E F1            [10] 1046 	pop	af
   058F 01r00r00      [10] 1047 	ld	bc, #_Character_Sister_0+0
   0592 11 04 10      [10] 1048 	ld	de, #0x1004
   0595 D5            [11] 1049 	push	de
   0596 E5            [11] 1050 	push	hl
   0597 C5            [11] 1051 	push	bc
   0598 CDr00r00      [17] 1052 	call	_cpct_drawSprite
   059B 18 4C         [12] 1053 	jr	00120$
   059D                    1054 00110$:
                           1055 ;src/gameObject/gameObject.c:186: }else if(objeto->sprite==sprite_familia3){
   059D 7B            [ 4] 1056 	ld	a, e
   059E D6 28         [ 7] 1057 	sub	a, #0x28
   05A0 20 15         [12] 1058 	jr	NZ,00107$
                           1059 ;src/gameObject/gameObject.c:187: cpct_drawSprite(Character_Mother_0, calcularPosicionEnPantalla(objeto->posx,objeto->posy), anchoSprite, altoSprite);
   05A2 46            [ 7] 1060 	ld	b, (hl)
   05A3 4A            [ 4] 1061 	ld	c, d
   05A4 C5            [11] 1062 	push	bc
   05A5 CDr00r00      [17] 1063 	call	_calcularPosicionEnPantalla
   05A8 F1            [10] 1064 	pop	af
   05A9 01r00r00      [10] 1065 	ld	bc, #_Character_Mother_0+0
   05AC 11 04 10      [10] 1066 	ld	de, #0x1004
   05AF D5            [11] 1067 	push	de
   05B0 E5            [11] 1068 	push	hl
   05B1 C5            [11] 1069 	push	bc
   05B2 CDr00r00      [17] 1070 	call	_cpct_drawSprite
   05B5 18 32         [12] 1071 	jr	00120$
   05B7                    1072 00107$:
                           1073 ;src/gameObject/gameObject.c:188: }else if(objeto->sprite==sprite_familia4){
   05B7 7B            [ 4] 1074 	ld	a, e
   05B8 D6 29         [ 7] 1075 	sub	a, #0x29
   05BA 20 15         [12] 1076 	jr	NZ,00104$
                           1077 ;src/gameObject/gameObject.c:189: cpct_drawSprite(Character_Father_0, calcularPosicionEnPantalla(objeto->posx,objeto->posy), anchoSprite, altoSprite);
   05BC 46            [ 7] 1078 	ld	b, (hl)
   05BD 4A            [ 4] 1079 	ld	c, d
   05BE C5            [11] 1080 	push	bc
   05BF CDr00r00      [17] 1081 	call	_calcularPosicionEnPantalla
   05C2 F1            [10] 1082 	pop	af
   05C3 01r00r00      [10] 1083 	ld	bc, #_Character_Father_0+0
   05C6 11 04 10      [10] 1084 	ld	de, #0x1004
   05C9 D5            [11] 1085 	push	de
   05CA E5            [11] 1086 	push	hl
   05CB C5            [11] 1087 	push	bc
   05CC CDr00r00      [17] 1088 	call	_cpct_drawSprite
   05CF 18 18         [12] 1089 	jr	00120$
   05D1                    1090 00104$:
                           1091 ;src/gameObject/gameObject.c:190: }else if(objeto->sprite==sprite_amstradTape){
   05D1 7B            [ 4] 1092 	ld	a, e
   05D2 D6 2F         [ 7] 1093 	sub	a, #0x2f
   05D4 20 13         [12] 1094 	jr	NZ,00120$
                           1095 ;src/gameObject/gameObject.c:191: cpct_drawSprite(PrinceOfPersia_Tape_0, calcularPosicionEnPantalla(objeto->posx,objeto->posy), anchoSprite, altoSprite);
   05D6 46            [ 7] 1096 	ld	b, (hl)
   05D7 4A            [ 4] 1097 	ld	c, d
   05D8 C5            [11] 1098 	push	bc
   05D9 CDr00r00      [17] 1099 	call	_calcularPosicionEnPantalla
   05DC F1            [10] 1100 	pop	af
   05DD 01r00r00      [10] 1101 	ld	bc, #_PrinceOfPersia_Tape_0+0
   05E0 11 04 10      [10] 1102 	ld	de, #0x1004
   05E3 D5            [11] 1103 	push	de
   05E4 E5            [11] 1104 	push	hl
   05E5 C5            [11] 1105 	push	bc
   05E6 CDr00r00      [17] 1106 	call	_cpct_drawSprite
   05E9                    1107 00120$:
   05E9 DD E1         [14] 1108 	pop	ix
   05EB C9            [10] 1109 	ret
                           1110 ;src/gameObject/gameObject.c:195: void dibujarGameObjectColSprite(u8 sprite,u8 posx, u8 posy){
                           1111 ;	---------------------------------
                           1112 ; Function dibujarGameObjectColSprite
                           1113 ; ---------------------------------
   05EC                    1114 _dibujarGameObjectColSprite::
   05EC DD E5         [15] 1115 	push	ix
   05EE DD 21 00 00   [14] 1116 	ld	ix,#0
   05F2 DD 39         [15] 1117 	add	ix,sp
                           1118 ;src/gameObject/gameObject.c:197: cpct_drawSprite(LuzAzul_0, cpctm_screenPtr(CPCT_VMEM_START, posx*4 + 1, posy*16), anchoSprite, altoSprite);  
   05F4 DD 6E 06      [19] 1119 	ld	l, 6 (ix)
   05F7 26 00         [ 7] 1120 	ld	h, #0x00
   05F9 DD 5E 05      [19] 1121 	ld	e, 5 (ix)
   05FC 16 00         [ 7] 1122 	ld	d, #0x00
   05FE 29            [11] 1123 	add	hl, hl
   05FF 29            [11] 1124 	add	hl, hl
   0600 29            [11] 1125 	add	hl, hl
   0601 29            [11] 1126 	add	hl, hl
   0602 4D            [ 4] 1127 	ld	c, l
   0603 44            [ 4] 1128 	ld	b, h
   0604 EB            [ 4] 1129 	ex	de,hl
   0605 29            [11] 1130 	add	hl, hl
   0606 29            [11] 1131 	add	hl, hl
   0607 59            [ 4] 1132 	ld	e, c
   0608 50            [ 4] 1133 	ld	d, b
   0609 CB 2A         [ 8] 1134 	sra	d
   060B CB 1B         [ 8] 1135 	rr	e
   060D CB 2A         [ 8] 1136 	sra	d
   060F CB 1B         [ 8] 1137 	rr	e
   0611 CB 2A         [ 8] 1138 	sra	d
   0613 CB 1B         [ 8] 1139 	rr	e
   0615 79            [ 4] 1140 	ld	a, c
   0616 E6 07         [ 7] 1141 	and	a, #0x07
   0618 4F            [ 4] 1142 	ld	c, a
   0619 23            [ 6] 1143 	inc	hl
   061A E5            [11] 1144 	push	hl
   061B FD E1         [14] 1145 	pop	iy
   061D 79            [ 4] 1146 	ld	a, c
   061E 07            [ 4] 1147 	rlca
   061F 07            [ 4] 1148 	rlca
   0620 07            [ 4] 1149 	rlca
   0621 E6 F8         [ 7] 1150 	and	a, #0xf8
   0623 47            [ 4] 1151 	ld	b, a
   0624 0E 00         [ 7] 1152 	ld	c, #0x00
   0626 6B            [ 4] 1153 	ld	l, e
   0627 62            [ 4] 1154 	ld	h, d
   0628 29            [11] 1155 	add	hl, hl
   0629 29            [11] 1156 	add	hl, hl
   062A 19            [11] 1157 	add	hl, de
   062B 29            [11] 1158 	add	hl, hl
   062C 29            [11] 1159 	add	hl, hl
   062D 29            [11] 1160 	add	hl, hl
   062E 29            [11] 1161 	add	hl, hl
   062F 11 00 C0      [10] 1162 	ld	de, #0xc000
   0632 19            [11] 1163 	add	hl, de
   0633 09            [11] 1164 	add	hl,bc
   0634 4D            [ 4] 1165 	ld	c, l
   0635 44            [ 4] 1166 	ld	b, h
   0636 FD 09         [15] 1167 	add	iy, bc
   0638 FD E5         [15] 1168 	push	iy
   063A C1            [10] 1169 	pop	bc
                           1170 ;src/gameObject/gameObject.c:196: if(sprite==sprite_luz){
   063B DD 7E 04      [19] 1171 	ld	a, 4 (ix)
   063E D6 25         [ 7] 1172 	sub	a, #0x25
   0640 20 0E         [12] 1173 	jr	NZ,00116$
                           1174 ;src/gameObject/gameObject.c:197: cpct_drawSprite(LuzAzul_0, cpctm_screenPtr(CPCT_VMEM_START, posx*4 + 1, posy*16), anchoSprite, altoSprite);  
   0642 21 04 10      [10] 1175 	ld	hl, #0x1004
   0645 E5            [11] 1176 	push	hl
   0646 C5            [11] 1177 	push	bc
   0647 21r00r00      [10] 1178 	ld	hl, #_LuzAzul_0
   064A E5            [11] 1179 	push	hl
   064B CDr00r00      [17] 1180 	call	_cpct_drawSprite
   064E 18 67         [12] 1181 	jr	00118$
   0650                    1182 00116$:
                           1183 ;src/gameObject/gameObject.c:198: }else if(sprite==sprite_familia1){
   0650 DD 7E 04      [19] 1184 	ld	a, 4 (ix)
   0653 D6 26         [ 7] 1185 	sub	a, #0x26
   0655 20 0E         [12] 1186 	jr	NZ,00113$
                           1187 ;src/gameObject/gameObject.c:199: cpct_drawSprite(Character_Brother_0, cpctm_screenPtr(CPCT_VMEM_START, posx*4 + 1, posy*16), anchoSprite, altoSprite);
   0657 21 04 10      [10] 1188 	ld	hl, #0x1004
   065A E5            [11] 1189 	push	hl
   065B C5            [11] 1190 	push	bc
   065C 21r00r00      [10] 1191 	ld	hl, #_Character_Brother_0
   065F E5            [11] 1192 	push	hl
   0660 CDr00r00      [17] 1193 	call	_cpct_drawSprite
   0663 18 52         [12] 1194 	jr	00118$
   0665                    1195 00113$:
                           1196 ;src/gameObject/gameObject.c:200: }else if(sprite==sprite_familia2){
   0665 DD 7E 04      [19] 1197 	ld	a, 4 (ix)
   0668 D6 27         [ 7] 1198 	sub	a, #0x27
   066A 20 0E         [12] 1199 	jr	NZ,00110$
                           1200 ;src/gameObject/gameObject.c:201: cpct_drawSprite(Character_Sister_0, cpctm_screenPtr(CPCT_VMEM_START, posx*4 + 1, posy*16), anchoSprite, altoSprite);
   066C 21 04 10      [10] 1201 	ld	hl, #0x1004
   066F E5            [11] 1202 	push	hl
   0670 C5            [11] 1203 	push	bc
   0671 21r00r00      [10] 1204 	ld	hl, #_Character_Sister_0
   0674 E5            [11] 1205 	push	hl
   0675 CDr00r00      [17] 1206 	call	_cpct_drawSprite
   0678 18 3D         [12] 1207 	jr	00118$
   067A                    1208 00110$:
                           1209 ;src/gameObject/gameObject.c:202: }else if(sprite==sprite_familia3){
   067A DD 7E 04      [19] 1210 	ld	a, 4 (ix)
   067D D6 28         [ 7] 1211 	sub	a, #0x28
   067F 20 0E         [12] 1212 	jr	NZ,00107$
                           1213 ;src/gameObject/gameObject.c:203: cpct_drawSprite(Character_Mother_0, cpctm_screenPtr(CPCT_VMEM_START, posx*4 + 1, posy*16), anchoSprite, altoSprite);
   0681 21 04 10      [10] 1214 	ld	hl, #0x1004
   0684 E5            [11] 1215 	push	hl
   0685 C5            [11] 1216 	push	bc
   0686 21r00r00      [10] 1217 	ld	hl, #_Character_Mother_0
   0689 E5            [11] 1218 	push	hl
   068A CDr00r00      [17] 1219 	call	_cpct_drawSprite
   068D 18 28         [12] 1220 	jr	00118$
   068F                    1221 00107$:
                           1222 ;src/gameObject/gameObject.c:204: }else if(sprite==sprite_familia4){
   068F DD 7E 04      [19] 1223 	ld	a, 4 (ix)
   0692 D6 29         [ 7] 1224 	sub	a, #0x29
   0694 20 0E         [12] 1225 	jr	NZ,00104$
                           1226 ;src/gameObject/gameObject.c:205: cpct_drawSprite(Character_Father_0, cpctm_screenPtr(CPCT_VMEM_START, posx*4 + 1, posy*16), anchoSprite, altoSprite);
   0696 21 04 10      [10] 1227 	ld	hl, #0x1004
   0699 E5            [11] 1228 	push	hl
   069A C5            [11] 1229 	push	bc
   069B 21r00r00      [10] 1230 	ld	hl, #_Character_Father_0
   069E E5            [11] 1231 	push	hl
   069F CDr00r00      [17] 1232 	call	_cpct_drawSprite
   06A2 18 13         [12] 1233 	jr	00118$
   06A4                    1234 00104$:
                           1235 ;src/gameObject/gameObject.c:206: }else if(sprite==sprite_amstradTape){        
   06A4 DD 7E 04      [19] 1236 	ld	a, 4 (ix)
   06A7 D6 2F         [ 7] 1237 	sub	a, #0x2f
   06A9 20 0C         [12] 1238 	jr	NZ,00118$
                           1239 ;src/gameObject/gameObject.c:207: cpct_drawSprite(PrinceOfPersia_Tape_0, cpctm_screenPtr(CPCT_VMEM_START, posx*4 + 1, posy*16), anchoSprite, altoSprite);
   06AB 21 04 10      [10] 1240 	ld	hl, #0x1004
   06AE E5            [11] 1241 	push	hl
   06AF C5            [11] 1242 	push	bc
   06B0 21r00r00      [10] 1243 	ld	hl, #_PrinceOfPersia_Tape_0
   06B3 E5            [11] 1244 	push	hl
   06B4 CDr00r00      [17] 1245 	call	_cpct_drawSprite
   06B7                    1246 00118$:
   06B7 DD E1         [14] 1247 	pop	ix
   06B9 C9            [10] 1248 	ret
                           1249 ;src/gameObject/gameObject.c:212: void limpiarRastro(u8 posx, u8 posy){
                           1250 ;	---------------------------------
                           1251 ; Function limpiarRastro
                           1252 ; ---------------------------------
   06BA                    1253 _limpiarRastro::
                           1254 ;src/gameObject/gameObject.c:213: cpct_drawSolidBox(calcularPosicionEnPantalla(posx,posy),0x00,4,16);
   06BA 21 03 00      [10] 1255 	ld	hl, #3+0
   06BD 39            [11] 1256 	add	hl, sp
   06BE 7E            [ 7] 1257 	ld	a, (hl)
   06BF F5            [11] 1258 	push	af
   06C0 33            [ 6] 1259 	inc	sp
   06C1 21 03 00      [10] 1260 	ld	hl, #3+0
   06C4 39            [11] 1261 	add	hl, sp
   06C5 7E            [ 7] 1262 	ld	a, (hl)
   06C6 F5            [11] 1263 	push	af
   06C7 33            [ 6] 1264 	inc	sp
   06C8 CDr00r00      [17] 1265 	call	_calcularPosicionEnPantalla
   06CB F1            [10] 1266 	pop	af
   06CC 01 04 10      [10] 1267 	ld	bc, #0x1004
   06CF C5            [11] 1268 	push	bc
   06D0 01 00 00      [10] 1269 	ld	bc, #0x0000
   06D3 C5            [11] 1270 	push	bc
   06D4 E5            [11] 1271 	push	hl
   06D5 CDr00r00      [17] 1272 	call	_cpct_drawSolidBox
   06D8 C9            [10] 1273 	ret
                           1274 ;src/gameObject/gameObject.c:215: u8 moverGameObject(TGameObject* objeto,u8 movimiento, TGameObject* rocasCol,TGameObject* rocasEspejo,u8* posicion){
                           1275 ;	---------------------------------
                           1276 ; Function moverGameObject
                           1277 ; ---------------------------------
   06D9                    1278 _moverGameObject::
   06D9 DD E5         [15] 1279 	push	ix
   06DB DD 21 00 00   [14] 1280 	ld	ix,#0
   06DF DD 39         [15] 1281 	add	ix,sp
                           1282 ;src/gameObject/gameObject.c:216: if(objeto->sprite==sprite_Player){
   06E1 DD 4E 04      [19] 1283 	ld	c,4 (ix)
   06E4 DD 46 05      [19] 1284 	ld	b,5 (ix)
   06E7 69            [ 4] 1285 	ld	l, c
   06E8 60            [ 4] 1286 	ld	h, b
   06E9 23            [ 6] 1287 	inc	hl
   06EA 23            [ 6] 1288 	inc	hl
   06EB 23            [ 6] 1289 	inc	hl
   06EC 5E            [ 7] 1290 	ld	e, (hl)
   06ED 1D            [ 4] 1291 	dec	e
   06EE 20 28         [12] 1292 	jr	NZ,00102$
                           1293 ;src/gameObject/gameObject.c:217: return moverTipoPlayer(objeto,movimiento,rocasCol,rocasEspejo,posicion);
   06F0 DD 6E 0B      [19] 1294 	ld	l,11 (ix)
   06F3 DD 66 0C      [19] 1295 	ld	h,12 (ix)
   06F6 E5            [11] 1296 	push	hl
   06F7 DD 6E 09      [19] 1297 	ld	l,9 (ix)
   06FA DD 66 0A      [19] 1298 	ld	h,10 (ix)
   06FD E5            [11] 1299 	push	hl
   06FE DD 6E 07      [19] 1300 	ld	l,7 (ix)
   0701 DD 66 08      [19] 1301 	ld	h,8 (ix)
   0704 E5            [11] 1302 	push	hl
   0705 DD 7E 06      [19] 1303 	ld	a, 6 (ix)
   0708 F5            [11] 1304 	push	af
   0709 33            [ 6] 1305 	inc	sp
   070A C5            [11] 1306 	push	bc
   070B CDr7Ar09      [17] 1307 	call	_moverTipoPlayer
   070E FD 21 09 00   [14] 1308 	ld	iy, #9
   0712 FD 39         [15] 1309 	add	iy, sp
   0714 FD F9         [10] 1310 	ld	sp, iy
   0716 18 26         [12] 1311 	jr	00104$
   0718                    1312 00102$:
                           1313 ;src/gameObject/gameObject.c:219: return moverTipoRoca(objeto,movimiento,rocasCol,rocasEspejo,posicion);
   0718 DD 6E 0B      [19] 1314 	ld	l,11 (ix)
   071B DD 66 0C      [19] 1315 	ld	h,12 (ix)
   071E E5            [11] 1316 	push	hl
   071F DD 6E 09      [19] 1317 	ld	l,9 (ix)
   0722 DD 66 0A      [19] 1318 	ld	h,10 (ix)
   0725 E5            [11] 1319 	push	hl
   0726 DD 6E 07      [19] 1320 	ld	l,7 (ix)
   0729 DD 66 08      [19] 1321 	ld	h,8 (ix)
   072C E5            [11] 1322 	push	hl
   072D DD 7E 06      [19] 1323 	ld	a, 6 (ix)
   0730 F5            [11] 1324 	push	af
   0731 33            [ 6] 1325 	inc	sp
   0732 C5            [11] 1326 	push	bc
   0733 CDrC5r0B      [17] 1327 	call	_moverTipoRoca
   0736 FD 21 09 00   [14] 1328 	ld	iy, #9
   073A FD 39         [15] 1329 	add	iy, sp
   073C FD F9         [10] 1330 	ld	sp, iy
   073E                    1331 00104$:
   073E DD E1         [14] 1332 	pop	ix
   0740 C9            [10] 1333 	ret
                           1334 ;src/gameObject/gameObject.c:223: void moverElEspejo(u8 num,u8 movimiento,TGameObject* rocasEspejo,u8 posicion,u8 numMovimientos){
                           1335 ;	---------------------------------
                           1336 ; Function moverElEspejo
                           1337 ; ---------------------------------
   0741                    1338 _moverElEspejo::
   0741 DD E5         [15] 1339 	push	ix
   0743 DD 21 00 00   [14] 1340 	ld	ix,#0
   0747 DD 39         [15] 1341 	add	ix,sp
   0749 21 F3 FF      [10] 1342 	ld	hl, #-13
   074C 39            [11] 1343 	add	hl, sp
   074D F9            [ 6] 1344 	ld	sp, hl
                           1345 ;src/gameObject/gameObject.c:225: u8 nextMovimiento=movimiento;
   074E DD 4E 05      [19] 1346 	ld	c, 5 (ix)
                           1347 ;src/gameObject/gameObject.c:230: if(movimiento==mover_Izquierda){
   0751 79            [ 4] 1348 	ld	a, c
   0752 3D            [ 4] 1349 	dec	a
   0753 20 02         [12] 1350 	jr	NZ,00102$
                           1351 ;src/gameObject/gameObject.c:231: nextMovimiento=mover_Derecha;
   0755 0E 03         [ 7] 1352 	ld	c, #0x03
   0757                    1353 00102$:
                           1354 ;src/gameObject/gameObject.c:232: }if(movimiento==mover_Derecha){
   0757 DD 7E 05      [19] 1355 	ld	a, 5 (ix)
   075A D6 03         [ 7] 1356 	sub	a, #0x03
   075C 20 02         [12] 1357 	jr	NZ,00104$
                           1358 ;src/gameObject/gameObject.c:233: nextMovimiento=mover_Izquierda;
   075E 0E 01         [ 7] 1359 	ld	c, #0x01
   0760                    1360 00104$:
                           1361 ;src/gameObject/gameObject.c:236: if(posicion==posicion_Izquieda){
   0760 DD 7E 08      [19] 1362 	ld	a, 8 (ix)
   0763 B7            [ 4] 1363 	or	a, a
   0764 20 06         [12] 1364 	jr	NZ,00106$
                           1365 ;src/gameObject/gameObject.c:237: posicion=posicion_Derecha;
   0766 DD 36 08 01   [19] 1366 	ld	8 (ix), #0x01
   076A 18 04         [12] 1367 	jr	00145$
   076C                    1368 00106$:
                           1369 ;src/gameObject/gameObject.c:239: posicion=posicion_Izquieda;
   076C DD 36 08 00   [19] 1370 	ld	8 (ix), #0x00
                           1371 ;src/gameObject/gameObject.c:242: for(u8 i=0;i<RocasMaximas;i++){
   0770                    1372 00145$:
   0770 06 00         [ 7] 1373 	ld	b, #0x00
   0772                    1374 00128$:
   0772 78            [ 4] 1375 	ld	a, b
   0773 D6 28         [ 7] 1376 	sub	a, #0x28
   0775 D2rB6r08      [10] 1377 	jp	NC, 00130$
                           1378 ;src/gameObject/gameObject.c:243: if(rocasEspejo[i].num==num){
   0778 58            [ 4] 1379 	ld	e,b
   0779 16 00         [ 7] 1380 	ld	d,#0x00
   077B 6B            [ 4] 1381 	ld	l, e
   077C 62            [ 4] 1382 	ld	h, d
   077D 29            [11] 1383 	add	hl, hl
   077E 19            [11] 1384 	add	hl, de
   077F 29            [11] 1385 	add	hl, hl
   0780 19            [11] 1386 	add	hl, de
   0781 EB            [ 4] 1387 	ex	de,hl
   0782 DD 7E 06      [19] 1388 	ld	a, 6 (ix)
   0785 83            [ 4] 1389 	add	a, e
   0786 5F            [ 4] 1390 	ld	e, a
   0787 DD 7E 07      [19] 1391 	ld	a, 7 (ix)
   078A 8A            [ 4] 1392 	adc	a, d
   078B 57            [ 4] 1393 	ld	d, a
   078C 1A            [ 7] 1394 	ld	a, (de)
   078D DD 77 FB      [19] 1395 	ld	-5 (ix), a
   0790 DD 7E 04      [19] 1396 	ld	a, 4 (ix)
   0793 DD 96 FB      [19] 1397 	sub	a, -5 (ix)
   0796 C2rB2r08      [10] 1398 	jp	NZ,00129$
                           1399 ;src/gameObject/gameObject.c:244: objetoEspejo=&rocasEspejo[i];              
                           1400 ;src/gameObject/gameObject.c:246: nextPosx=objetoEspejo->posx;
   0799 DD 73 F7      [19] 1401 	ld	-9 (ix), e
   079C DD 72 F8      [19] 1402 	ld	-8 (ix), d
   079F 13            [ 6] 1403 	inc	de
   07A0 1A            [ 7] 1404 	ld	a, (de)
   07A1 DD 77 FB      [19] 1405 	ld	-5 (ix), a
   07A4 DD 77 F6      [19] 1406 	ld	-10 (ix), a
                           1407 ;src/gameObject/gameObject.c:247: nextPosy=objetoEspejo->posy;
   07A7 DD 6E F7      [19] 1408 	ld	l,-9 (ix)
   07AA DD 66 F8      [19] 1409 	ld	h,-8 (ix)
   07AD 23            [ 6] 1410 	inc	hl
   07AE 23            [ 6] 1411 	inc	hl
   07AF 7E            [ 7] 1412 	ld	a, (hl)
   07B0 DD 77 F5      [19] 1413 	ld	-11 (ix), a
                           1414 ;src/gameObject/gameObject.c:248: if(objetoEspejo->posx!=0){
   07B3 DD 7E FB      [19] 1415 	ld	a, -5 (ix)
   07B6 B7            [ 4] 1416 	or	a, a
   07B7 CArB2r08      [10] 1417 	jp	Z, 00129$
                           1418 ;src/gameObject/gameObject.c:249: posicionObjeto=SinColision;
   07BA DD 36 F4 32   [19] 1419 	ld	-12 (ix), #0x32
                           1420 ;src/gameObject/gameObject.c:250: for(u8 i=0;i<numMovimientos;i++){
   07BE DD 75 FC      [19] 1421 	ld	-4 (ix), l
   07C1 DD 74 FD      [19] 1422 	ld	-3 (ix), h
   07C4 DD 73 F9      [19] 1423 	ld	-7 (ix), e
   07C7 DD 72 FA      [19] 1424 	ld	-6 (ix), d
   07CA DD 36 F3 00   [19] 1425 	ld	-13 (ix), #0x00
   07CE                    1426 00125$:
   07CE DD 7E F3      [19] 1427 	ld	a, -13 (ix)
   07D1 DD 96 09      [19] 1428 	sub	a, 9 (ix)
   07D4 D2rB2r08      [10] 1429 	jp	NC, 00129$
                           1430 ;src/gameObject/gameObject.c:251: if(posicionObjeto==SinColision){
   07D7 DD 7E F4      [19] 1431 	ld	a, -12 (ix)
   07DA D6 32         [ 7] 1432 	sub	a, #0x32
   07DC C2rACr08      [10] 1433 	jp	NZ,00126$
                           1434 ;src/gameObject/gameObject.c:252: nextMovimiento=calcularMaximosyMinimos(nextMovimiento,objetoEspejo->posx,objetoEspejo->posy,posicion);            
   07DF DD 6E FC      [19] 1435 	ld	l,-4 (ix)
   07E2 DD 66 FD      [19] 1436 	ld	h,-3 (ix)
   07E5 5E            [ 7] 1437 	ld	e, (hl)
   07E6 DD 6E F9      [19] 1438 	ld	l,-7 (ix)
   07E9 DD 66 FA      [19] 1439 	ld	h,-6 (ix)
   07EC 56            [ 7] 1440 	ld	d, (hl)
   07ED C5            [11] 1441 	push	bc
   07EE DD 7E 08      [19] 1442 	ld	a, 8 (ix)
   07F1 F5            [11] 1443 	push	af
   07F2 33            [ 6] 1444 	inc	sp
   07F3 7B            [ 4] 1445 	ld	a, e
   07F4 F5            [11] 1446 	push	af
   07F5 33            [ 6] 1447 	inc	sp
   07F6 59            [ 4] 1448 	ld	e, c
   07F7 D5            [11] 1449 	push	de
   07F8 CDr00r00      [17] 1450 	call	_calcularMaximosyMinimos
   07FB F1            [10] 1451 	pop	af
   07FC F1            [10] 1452 	pop	af
   07FD C1            [10] 1453 	pop	bc
   07FE 4D            [ 4] 1454 	ld	c, l
                           1455 ;src/gameObject/gameObject.c:253: if(nextMovimiento!=mover_SinMovimiento){
   07FF 79            [ 4] 1456 	ld	a, c
   0800 B7            [ 4] 1457 	or	a, a
   0801 CArACr08      [10] 1458 	jp	Z, 00126$
                           1459 ;src/gameObject/gameObject.c:254: posicionObjeto=colisionesSiguientePosicion(objetoEspejo,objetoEspejo->posx,objetoEspejo->posy,nextMovimiento,rocasEspejo,posicion);                                          
   0804 DD 7E 08      [19] 1460 	ld	a, 8 (ix)
   0807 DD 77 FE      [19] 1461 	ld	-2 (ix), a
   080A DD 36 FF 00   [19] 1462 	ld	-1 (ix), #0x00
   080E DD 6E FC      [19] 1463 	ld	l,-4 (ix)
   0811 DD 66 FD      [19] 1464 	ld	h,-3 (ix)
   0814 5E            [ 7] 1465 	ld	e, (hl)
   0815 DD 6E F9      [19] 1466 	ld	l,-7 (ix)
   0818 DD 66 FA      [19] 1467 	ld	h,-6 (ix)
   081B 56            [ 7] 1468 	ld	d, (hl)
   081C C5            [11] 1469 	push	bc
   081D DD 6E FE      [19] 1470 	ld	l,-2 (ix)
   0820 DD 66 FF      [19] 1471 	ld	h,-1 (ix)
   0823 E5            [11] 1472 	push	hl
   0824 DD 6E 06      [19] 1473 	ld	l,6 (ix)
   0827 DD 66 07      [19] 1474 	ld	h,7 (ix)
   082A E5            [11] 1475 	push	hl
   082B 79            [ 4] 1476 	ld	a, c
   082C F5            [11] 1477 	push	af
   082D 33            [ 6] 1478 	inc	sp
   082E 7B            [ 4] 1479 	ld	a, e
   082F F5            [11] 1480 	push	af
   0830 33            [ 6] 1481 	inc	sp
   0831 D5            [11] 1482 	push	de
   0832 33            [ 6] 1483 	inc	sp
   0833 DD 6E F7      [19] 1484 	ld	l,-9 (ix)
   0836 DD 66 F8      [19] 1485 	ld	h,-8 (ix)
   0839 E5            [11] 1486 	push	hl
   083A CDr1Dr0F      [17] 1487 	call	_colisionesSiguientePosicion
   083D FD 21 09 00   [14] 1488 	ld	iy, #9
   0841 FD 39         [15] 1489 	add	iy, sp
   0843 FD F9         [10] 1490 	ld	sp, iy
   0845 C1            [10] 1491 	pop	bc
                           1492 ;src/gameObject/gameObject.c:251: if(posicionObjeto==SinColision){
   0846 DD 75 F4      [19] 1493 	ld	-12 (ix), l
   0849 7D            [ 4] 1494 	ld	a, l
   084A D6 32         [ 7] 1495 	sub	a, #0x32
   084C 20 04         [12] 1496 	jr	NZ,00198$
   084E 3E 01         [ 7] 1497 	ld	a,#0x01
   0850 18 01         [12] 1498 	jr	00199$
   0852                    1499 00198$:
   0852 AF            [ 4] 1500 	xor	a,a
   0853                    1501 00199$:
                           1502 ;src/gameObject/gameObject.c:255: if(posicionObjeto==SinColision){
   0853 B7            [ 4] 1503 	or	a, a
   0854 28 2A         [12] 1504 	jr	Z,00112$
                           1505 ;src/gameObject/gameObject.c:256: mover1casilla(&nextPosx,&nextPosy,nextMovimiento);                                                                                 
   0856 21 02 00      [10] 1506 	ld	hl, #0x0002
   0859 39            [11] 1507 	add	hl, sp
   085A EB            [ 4] 1508 	ex	de,hl
   085B 21 03 00      [10] 1509 	ld	hl, #0x0003
   085E 39            [11] 1510 	add	hl, sp
   085F C5            [11] 1511 	push	bc
   0860 79            [ 4] 1512 	ld	a, c
   0861 F5            [11] 1513 	push	af
   0862 33            [ 6] 1514 	inc	sp
   0863 D5            [11] 1515 	push	de
   0864 E5            [11] 1516 	push	hl
   0865 CDr2Dr0E      [17] 1517 	call	_mover1casilla
   0868 F1            [10] 1518 	pop	af
   0869 33            [ 6] 1519 	inc	sp
   086A DD 66 F5      [19] 1520 	ld	h, -11 (ix)
   086D DD 6E F6      [19] 1521 	ld	l, -10 (ix)
   0870 E3            [19] 1522 	ex	(sp),hl
   0871 DD 6E F7      [19] 1523 	ld	l,-9 (ix)
   0874 DD 66 F8      [19] 1524 	ld	h,-8 (ix)
   0877 E5            [11] 1525 	push	hl
   0878 CDrC9r08      [17] 1526 	call	_moverYdibujar
   087B F1            [10] 1527 	pop	af
   087C F1            [10] 1528 	pop	af
   087D C1            [10] 1529 	pop	bc
   087E 18 2C         [12] 1530 	jr	00126$
   0880                    1531 00112$:
                           1532 ;src/gameObject/gameObject.c:259: if(posicionObjeto!=SinColision && posicionObjeto != ColisionNoRocas){
   0880 B7            [ 4] 1533 	or	a, a
   0881 20 29         [12] 1534 	jr	NZ,00126$
   0883 DD 7E F4      [19] 1535 	ld	a, -12 (ix)
   0886 D6 33         [ 7] 1536 	sub	a, #0x33
   0888 28 22         [12] 1537 	jr	Z,00126$
                           1538 ;src/gameObject/gameObject.c:260: taparHole(objetoEspejo,&rocasEspejo[posicionObjeto]);                                
   088A DD 5E F4      [19] 1539 	ld	e,-12 (ix)
   088D 16 00         [ 7] 1540 	ld	d,#0x00
   088F 6B            [ 4] 1541 	ld	l, e
   0890 62            [ 4] 1542 	ld	h, d
   0891 29            [11] 1543 	add	hl, hl
   0892 19            [11] 1544 	add	hl, de
   0893 29            [11] 1545 	add	hl, hl
   0894 19            [11] 1546 	add	hl, de
   0895 EB            [ 4] 1547 	ex	de,hl
   0896 DD 6E 06      [19] 1548 	ld	l,6 (ix)
   0899 DD 66 07      [19] 1549 	ld	h,7 (ix)
   089C 19            [11] 1550 	add	hl, de
   089D C5            [11] 1551 	push	bc
   089E E5            [11] 1552 	push	hl
   089F DD 6E F7      [19] 1553 	ld	l,-9 (ix)
   08A2 DD 66 F8      [19] 1554 	ld	h,-8 (ix)
   08A5 E5            [11] 1555 	push	hl
   08A6 CDr04r09      [17] 1556 	call	_taparHole
   08A9 F1            [10] 1557 	pop	af
   08AA F1            [10] 1558 	pop	af
   08AB C1            [10] 1559 	pop	bc
   08AC                    1560 00126$:
                           1561 ;src/gameObject/gameObject.c:250: for(u8 i=0;i<numMovimientos;i++){
   08AC DD 34 F3      [23] 1562 	inc	-13 (ix)
   08AF C3rCEr07      [10] 1563 	jp	00125$
   08B2                    1564 00129$:
                           1565 ;src/gameObject/gameObject.c:242: for(u8 i=0;i<RocasMaximas;i++){
   08B2 04            [ 4] 1566 	inc	b
   08B3 C3r72r07      [10] 1567 	jp	00128$
   08B6                    1568 00130$:
   08B6 DD F9         [10] 1569 	ld	sp, ix
   08B8 DD E1         [14] 1570 	pop	ix
   08BA C9            [10] 1571 	ret
                           1572 ;src/gameObject/gameObject.c:272: void cambiarPosicion(u8* posicion){    
                           1573 ;	---------------------------------
                           1574 ; Function cambiarPosicion
                           1575 ; ---------------------------------
   08BB                    1576 _cambiarPosicion::
                           1577 ;src/gameObject/gameObject.c:273: if(*posicion==posicion_Izquieda){
   08BB C1            [10] 1578 	pop	bc
   08BC E1            [10] 1579 	pop	hl
   08BD E5            [11] 1580 	push	hl
   08BE C5            [11] 1581 	push	bc
   08BF 7E            [ 7] 1582 	ld	a, (hl)
   08C0 B7            [ 4] 1583 	or	a, a
   08C1 20 03         [12] 1584 	jr	NZ,00102$
                           1585 ;src/gameObject/gameObject.c:274: *posicion=posicion_Derecha;        
   08C3 36 01         [10] 1586 	ld	(hl), #0x01
   08C5 C9            [10] 1587 	ret
   08C6                    1588 00102$:
                           1589 ;src/gameObject/gameObject.c:276: *posicion=posicion_Izquieda;       
   08C6 36 00         [10] 1590 	ld	(hl), #0x00
   08C8 C9            [10] 1591 	ret
                           1592 ;src/gameObject/gameObject.c:281: void moverYdibujar(TGameObject* objeto,u8 posx,u8 posy){
                           1593 ;	---------------------------------
                           1594 ; Function moverYdibujar
                           1595 ; ---------------------------------
   08C9                    1596 _moverYdibujar::
   08C9 DD E5         [15] 1597 	push	ix
   08CB DD 21 00 00   [14] 1598 	ld	ix,#0
   08CF DD 39         [15] 1599 	add	ix,sp
   08D1 F5            [11] 1600 	push	af
                           1601 ;src/gameObject/gameObject.c:282: limpiarRastro(objeto->posx,objeto->posy);    
   08D2 DD 4E 04      [19] 1602 	ld	c,4 (ix)
   08D5 DD 46 05      [19] 1603 	ld	b,5 (ix)
   08D8 21 02 00      [10] 1604 	ld	hl, #0x0002
   08DB 09            [11] 1605 	add	hl,bc
   08DC E3            [19] 1606 	ex	(sp), hl
   08DD E1            [10] 1607 	pop	hl
   08DE E5            [11] 1608 	push	hl
   08DF 5E            [ 7] 1609 	ld	e, (hl)
   08E0 69            [ 4] 1610 	ld	l, c
   08E1 60            [ 4] 1611 	ld	h, b
   08E2 23            [ 6] 1612 	inc	hl
   08E3 56            [ 7] 1613 	ld	d, (hl)
   08E4 E5            [11] 1614 	push	hl
   08E5 C5            [11] 1615 	push	bc
   08E6 7B            [ 4] 1616 	ld	a, e
   08E7 F5            [11] 1617 	push	af
   08E8 33            [ 6] 1618 	inc	sp
   08E9 D5            [11] 1619 	push	de
   08EA 33            [ 6] 1620 	inc	sp
   08EB CDrBAr06      [17] 1621 	call	_limpiarRastro
   08EE F1            [10] 1622 	pop	af
   08EF C1            [10] 1623 	pop	bc
   08F0 E1            [10] 1624 	pop	hl
                           1625 ;src/gameObject/gameObject.c:283: objeto->posx=posx;
   08F1 DD 7E 06      [19] 1626 	ld	a, 6 (ix)
   08F4 77            [ 7] 1627 	ld	(hl), a
                           1628 ;src/gameObject/gameObject.c:284: objeto->posy=posy;
   08F5 E1            [10] 1629 	pop	hl
   08F6 E5            [11] 1630 	push	hl
   08F7 DD 7E 07      [19] 1631 	ld	a, 7 (ix)
   08FA 77            [ 7] 1632 	ld	(hl), a
                           1633 ;src/gameObject/gameObject.c:285: dibujarGameObject(objeto);
   08FB C5            [11] 1634 	push	bc
   08FC CDr4Ar00      [17] 1635 	call	_dibujarGameObject
   08FF DD F9         [10] 1636 	ld	sp,ix
   0901 DD E1         [14] 1637 	pop	ix
   0903 C9            [10] 1638 	ret
                           1639 ;src/gameObject/gameObject.c:287: void taparHole(TGameObject* roca,TGameObject* hole){
                           1640 ;	---------------------------------
                           1641 ; Function taparHole
                           1642 ; ---------------------------------
   0904                    1643 _taparHole::
   0904 DD E5         [15] 1644 	push	ix
   0906 DD 21 00 00   [14] 1645 	ld	ix,#0
   090A DD 39         [15] 1646 	add	ix,sp
   090C 21 FA FF      [10] 1647 	ld	hl, #-6
   090F 39            [11] 1648 	add	hl, sp
   0910 F9            [ 6] 1649 	ld	sp, hl
                           1650 ;src/gameObject/gameObject.c:288: if(hole->sprite==sprite_hole){
   0911 DD 4E 06      [19] 1651 	ld	c,6 (ix)
   0914 DD 46 07      [19] 1652 	ld	b,7 (ix)
   0917 69            [ 4] 1653 	ld	l, c
   0918 60            [ 4] 1654 	ld	h, b
   0919 23            [ 6] 1655 	inc	hl
   091A 23            [ 6] 1656 	inc	hl
   091B 23            [ 6] 1657 	inc	hl
   091C 7E            [ 7] 1658 	ld	a, (hl)
   091D D6 24         [ 7] 1659 	sub	a, #0x24
   091F 20 54         [12] 1660 	jr	NZ,00103$
                           1661 ;src/gameObject/gameObject.c:289: limpiarRastro(roca->posx,roca->posy);
   0921 DD 5E 04      [19] 1662 	ld	e,4 (ix)
   0924 DD 56 05      [19] 1663 	ld	d,5 (ix)
   0927 21 02 00      [10] 1664 	ld	hl, #0x0002
   092A 19            [11] 1665 	add	hl,de
   092B E3            [19] 1666 	ex	(sp), hl
   092C E1            [10] 1667 	pop	hl
   092D E5            [11] 1668 	push	hl
   092E 7E            [ 7] 1669 	ld	a, (hl)
   092F DD 77 FE      [19] 1670 	ld	-2 (ix), a
   0932 13            [ 6] 1671 	inc	de
   0933 DD 73 FC      [19] 1672 	ld	-4 (ix), e
   0936 DD 72 FD      [19] 1673 	ld	-3 (ix), d
   0939 6B            [ 4] 1674 	ld	l, e
   093A 62            [ 4] 1675 	ld	h, d
   093B 56            [ 7] 1676 	ld	d, (hl)
   093C C5            [11] 1677 	push	bc
   093D DD 7E FE      [19] 1678 	ld	a, -2 (ix)
   0940 F5            [11] 1679 	push	af
   0941 33            [ 6] 1680 	inc	sp
   0942 D5            [11] 1681 	push	de
   0943 33            [ 6] 1682 	inc	sp
   0944 CDrBAr06      [17] 1683 	call	_limpiarRastro
   0947 F1            [10] 1684 	pop	af
   0948 C1            [10] 1685 	pop	bc
                           1686 ;src/gameObject/gameObject.c:290: limpiarRastro(hole->posx,hole->posy);
   0949 59            [ 4] 1687 	ld	e, c
   094A 50            [ 4] 1688 	ld	d, b
   094B 13            [ 6] 1689 	inc	de
   094C 13            [ 6] 1690 	inc	de
   094D 1A            [ 7] 1691 	ld	a, (de)
   094E DD 77 FE      [19] 1692 	ld	-2 (ix), a
   0951 03            [ 6] 1693 	inc	bc
   0952 0A            [ 7] 1694 	ld	a, (bc)
   0953 DD 77 FF      [19] 1695 	ld	-1 (ix), a
   0956 C5            [11] 1696 	push	bc
   0957 D5            [11] 1697 	push	de
   0958 DD 66 FE      [19] 1698 	ld	h, -2 (ix)
   095B DD 6E FF      [19] 1699 	ld	l, -1 (ix)
   095E E5            [11] 1700 	push	hl
   095F CDrBAr06      [17] 1701 	call	_limpiarRastro
   0962 F1            [10] 1702 	pop	af
   0963 D1            [10] 1703 	pop	de
   0964 C1            [10] 1704 	pop	bc
                           1705 ;src/gameObject/gameObject.c:291: roca->posx=0;
   0965 DD 6E FC      [19] 1706 	ld	l,-4 (ix)
   0968 DD 66 FD      [19] 1707 	ld	h,-3 (ix)
   096B 36 00         [10] 1708 	ld	(hl), #0x00
                           1709 ;src/gameObject/gameObject.c:292: roca->posy=0;
   096D E1            [10] 1710 	pop	hl
   096E E5            [11] 1711 	push	hl
   096F 36 00         [10] 1712 	ld	(hl), #0x00
                           1713 ;src/gameObject/gameObject.c:293: hole->posx=0;
   0971 AF            [ 4] 1714 	xor	a, a
   0972 02            [ 7] 1715 	ld	(bc), a
                           1716 ;src/gameObject/gameObject.c:294: hole->posy=0;
   0973 AF            [ 4] 1717 	xor	a, a
   0974 12            [ 7] 1718 	ld	(de), a
   0975                    1719 00103$:
   0975 DD F9         [10] 1720 	ld	sp, ix
   0977 DD E1         [14] 1721 	pop	ix
   0979 C9            [10] 1722 	ret
                           1723 ;src/gameObject/gameObject.c:304: u8 moverTipoPlayer(TGameObject* objeto,u8 movimiento, TGameObject* rocasCol,TGameObject* rocasEspejo,u8* posicion){
                           1724 ;	---------------------------------
                           1725 ; Function moverTipoPlayer
                           1726 ; ---------------------------------
   097A                    1727 _moverTipoPlayer::
   097A DD E5         [15] 1728 	push	ix
   097C DD 21 00 00   [14] 1729 	ld	ix,#0
   0980 DD 39         [15] 1730 	add	ix,sp
   0982 21 F1 FF      [10] 1731 	ld	hl, #-15
   0985 39            [11] 1732 	add	hl, sp
   0986 F9            [ 6] 1733 	ld	sp, hl
                           1734 ;src/gameObject/gameObject.c:305: if(objeto->cronoMovimiento==0 || objeto->sprite!=sprite_Player){           
   0987 DD 7E 04      [19] 1735 	ld	a, 4 (ix)
   098A DD 77 FA      [19] 1736 	ld	-6 (ix), a
   098D DD 7E 05      [19] 1737 	ld	a, 5 (ix)
   0990 DD 77 FB      [19] 1738 	ld	-5 (ix), a
   0993 DD 7E FA      [19] 1739 	ld	a, -6 (ix)
   0996 C6 05         [ 7] 1740 	add	a, #0x05
   0998 DD 77 FD      [19] 1741 	ld	-3 (ix), a
   099B DD 7E FB      [19] 1742 	ld	a, -5 (ix)
   099E CE 00         [ 7] 1743 	adc	a, #0x00
   09A0 DD 77 FE      [19] 1744 	ld	-2 (ix), a
   09A3 DD 6E FD      [19] 1745 	ld	l,-3 (ix)
   09A6 DD 66 FE      [19] 1746 	ld	h,-2 (ix)
   09A9 4E            [ 7] 1747 	ld	c, (hl)
   09AA 79            [ 4] 1748 	ld	a, c
   09AB B7            [ 4] 1749 	or	a, a
   09AC 28 0E         [12] 1750 	jr	Z,00117$
   09AE DD 6E FA      [19] 1751 	ld	l,-6 (ix)
   09B1 DD 66 FB      [19] 1752 	ld	h,-5 (ix)
   09B4 23            [ 6] 1753 	inc	hl
   09B5 23            [ 6] 1754 	inc	hl
   09B6 23            [ 6] 1755 	inc	hl
   09B7 46            [ 7] 1756 	ld	b, (hl)
   09B8 05            [ 4] 1757 	dec	b
   09B9 CArB6r0B      [10] 1758 	jp	Z,00118$
   09BC                    1759 00117$:
                           1760 ;src/gameObject/gameObject.c:306: movimiento=calcularMaximosyMinimos(movimiento,objeto->posx,objeto->posy,*posicion);            
   09BC DD 4E 0B      [19] 1761 	ld	c,11 (ix)
   09BF DD 46 0C      [19] 1762 	ld	b,12 (ix)
   09C2 0A            [ 7] 1763 	ld	a, (bc)
   09C3 DD 77 FF      [19] 1764 	ld	-1 (ix), a
   09C6 DD 7E FA      [19] 1765 	ld	a, -6 (ix)
   09C9 C6 02         [ 7] 1766 	add	a, #0x02
   09CB DD 77 F8      [19] 1767 	ld	-8 (ix), a
   09CE DD 7E FB      [19] 1768 	ld	a, -5 (ix)
   09D1 CE 00         [ 7] 1769 	adc	a, #0x00
   09D3 DD 77 F9      [19] 1770 	ld	-7 (ix), a
   09D6 DD 6E F8      [19] 1771 	ld	l,-8 (ix)
   09D9 DD 66 F9      [19] 1772 	ld	h,-7 (ix)
   09DC 7E            [ 7] 1773 	ld	a, (hl)
   09DD DD 77 FC      [19] 1774 	ld	-4 (ix), a
   09E0 DD 5E FA      [19] 1775 	ld	e,-6 (ix)
   09E3 DD 56 FB      [19] 1776 	ld	d,-5 (ix)
   09E6 13            [ 6] 1777 	inc	de
   09E7 1A            [ 7] 1778 	ld	a, (de)
   09E8 DD 77 F5      [19] 1779 	ld	-11 (ix), a
   09EB C5            [11] 1780 	push	bc
   09EC D5            [11] 1781 	push	de
   09ED DD 66 FF      [19] 1782 	ld	h, -1 (ix)
   09F0 DD 6E FC      [19] 1783 	ld	l, -4 (ix)
   09F3 E5            [11] 1784 	push	hl
   09F4 DD 66 F5      [19] 1785 	ld	h, -11 (ix)
   09F7 DD 6E 06      [19] 1786 	ld	l, 6 (ix)
   09FA E5            [11] 1787 	push	hl
   09FB CDr00r00      [17] 1788 	call	_calcularMaximosyMinimos
   09FE F1            [10] 1789 	pop	af
   09FF F1            [10] 1790 	pop	af
   0A00 DD 75 F5      [19] 1791 	ld	-11 (ix), l
   0A03 D1            [10] 1792 	pop	de
   0A04 C1            [10] 1793 	pop	bc
                           1794 ;src/gameObject/gameObject.c:307: if(movimiento!=mover_SinMovimiento){                  
   0A05 DD 7E F5      [19] 1795 	ld	a, -11 (ix)
   0A08 B7            [ 4] 1796 	or	a, a
   0A09 CArBEr0B      [10] 1797 	jp	Z, 00119$
                           1798 ;src/gameObject/gameObject.c:308: u8 nextPosx=objeto->posx;
   0A0C 1A            [ 7] 1799 	ld	a, (de)
   0A0D DD 77 F2      [19] 1800 	ld	-14 (ix), a
                           1801 ;src/gameObject/gameObject.c:309: u8 nextPosy=objeto->posy;
   0A10 DD 6E F8      [19] 1802 	ld	l,-8 (ix)
   0A13 DD 66 F9      [19] 1803 	ld	h,-7 (ix)
   0A16 7E            [ 7] 1804 	ld	a, (hl)
   0A17 DD 77 F1      [19] 1805 	ld	-15 (ix), a
                           1806 ;src/gameObject/gameObject.c:312: u8 moverRoca=mover_roca;
   0A1A DD 36 F4 00   [19] 1807 	ld	-12 (ix), #0x00
                           1808 ;src/gameObject/gameObject.c:317: mover1casilla(&nextPosx,&nextPosy,movimiento);            
   0A1E 21 00 00      [10] 1809 	ld	hl, #0x0000
   0A21 39            [11] 1810 	add	hl, sp
   0A22 DD 75 F8      [19] 1811 	ld	-8 (ix), l
   0A25 DD 74 F9      [19] 1812 	ld	-7 (ix), h
   0A28 EB            [ 4] 1813 	ex	de,hl
   0A29 21 01 00      [10] 1814 	ld	hl, #0x0001
   0A2C 39            [11] 1815 	add	hl, sp
   0A2D DD 75 F6      [19] 1816 	ld	-10 (ix), l
   0A30 DD 74 F7      [19] 1817 	ld	-9 (ix), h
   0A33 E5            [11] 1818 	push	hl
   0A34 DD 6E F6      [19] 1819 	ld	l, -10 (ix)
   0A37 DD 66 F7      [19] 1820 	ld	h, -9 (ix)
   0A3A E5            [11] 1821 	push	hl
   0A3B FD E1         [14] 1822 	pop	iy
   0A3D E1            [10] 1823 	pop	hl
   0A3E C5            [11] 1824 	push	bc
   0A3F DD 7E F5      [19] 1825 	ld	a, -11 (ix)
   0A42 F5            [11] 1826 	push	af
   0A43 33            [ 6] 1827 	inc	sp
   0A44 D5            [11] 1828 	push	de
   0A45 FD E5         [15] 1829 	push	iy
   0A47 CDr2Dr0E      [17] 1830 	call	_mover1casilla
   0A4A F1            [10] 1831 	pop	af
   0A4B 33            [ 6] 1832 	inc	sp
   0A4C DD 66 F1      [19] 1833 	ld	h, -15 (ix)
   0A4F DD 6E F2      [19] 1834 	ld	l, -14 (ix)
   0A52 E3            [19] 1835 	ex	(sp),hl
   0A53 CDr65r11      [17] 1836 	call	_comprobarPuertas
   0A56 F1            [10] 1837 	pop	af
   0A57 5D            [ 4] 1838 	ld	e, l
   0A58 C1            [10] 1839 	pop	bc
                           1840 ;src/gameObject/gameObject.c:320: if(colisionPuerta!=seguir_En_Nivel){
   0A59 7B            [ 4] 1841 	ld	a, e
   0A5A B7            [ 4] 1842 	or	a, a
   0A5B 28 04         [12] 1843 	jr	Z,00102$
                           1844 ;src/gameObject/gameObject.c:321: return colisionPuerta;
   0A5D 6B            [ 4] 1845 	ld	l, e
   0A5E C3rC0r0B      [10] 1846 	jp	00121$
   0A61                    1847 00102$:
                           1848 ;src/gameObject/gameObject.c:323: comprobarColeccionables(nextPosx,nextPosy,sprite_Player);            
   0A61 C5            [11] 1849 	push	bc
   0A62 D5            [11] 1850 	push	de
   0A63 3E 01         [ 7] 1851 	ld	a, #0x01
   0A65 F5            [11] 1852 	push	af
   0A66 33            [ 6] 1853 	inc	sp
   0A67 DD 66 F1      [19] 1854 	ld	h, -15 (ix)
   0A6A DD 6E F2      [19] 1855 	ld	l, -14 (ix)
   0A6D E5            [11] 1856 	push	hl
   0A6E CDrABr11      [17] 1857 	call	_comprobarColeccionables
   0A71 F1            [10] 1858 	pop	af
   0A72 33            [ 6] 1859 	inc	sp
   0A73 D1            [10] 1860 	pop	de
   0A74 C1            [10] 1861 	pop	bc
                           1862 ;src/gameObject/gameObject.c:324: colisionPortales=comprobarPortales(objeto,&nextPosx,&nextPosy,movimiento,posicion);            
   0A75 DD 6E F8      [19] 1863 	ld	l,-8 (ix)
   0A78 DD 66 F9      [19] 1864 	ld	h,-7 (ix)
   0A7B E5            [11] 1865 	push	hl
   0A7C FD E1         [14] 1866 	pop	iy
   0A7E DD 56 F6      [19] 1867 	ld	d, -10 (ix)
   0A81 DD 6E F7      [19] 1868 	ld	l, -9 (ix)
   0A84 DD 72 F6      [19] 1869 	ld	-10 (ix), d
   0A87 DD 75 F7      [19] 1870 	ld	-9 (ix), l
   0A8A C5            [11] 1871 	push	bc
   0A8B D5            [11] 1872 	push	de
   0A8C C5            [11] 1873 	push	bc
   0A8D DD 7E F5      [19] 1874 	ld	a, -11 (ix)
   0A90 F5            [11] 1875 	push	af
   0A91 33            [ 6] 1876 	inc	sp
   0A92 FD E5         [15] 1877 	push	iy
   0A94 DD 6E F6      [19] 1878 	ld	l,-10 (ix)
   0A97 DD 66 F7      [19] 1879 	ld	h,-9 (ix)
   0A9A E5            [11] 1880 	push	hl
   0A9B DD 6E FA      [19] 1881 	ld	l,-6 (ix)
   0A9E DD 66 FB      [19] 1882 	ld	h,-5 (ix)
   0AA1 E5            [11] 1883 	push	hl
   0AA2 CDr57r10      [17] 1884 	call	_comprobarPortales
   0AA5 FD 21 09 00   [14] 1885 	ld	iy, #9
   0AA9 FD 39         [15] 1886 	add	iy, sp
   0AAB FD F9         [10] 1887 	ld	sp, iy
   0AAD D1            [10] 1888 	pop	de
   0AAE C1            [10] 1889 	pop	bc
   0AAF 55            [ 4] 1890 	ld	d, l
                           1891 ;src/gameObject/gameObject.c:325: ObjetoColisionado=comprobarRocas(nextPosx,nextPosy,rocasCol);            
   0AB0 C5            [11] 1892 	push	bc
   0AB1 D5            [11] 1893 	push	de
   0AB2 DD 6E 07      [19] 1894 	ld	l,7 (ix)
   0AB5 DD 66 08      [19] 1895 	ld	h,8 (ix)
   0AB8 E5            [11] 1896 	push	hl
   0AB9 DD 66 F1      [19] 1897 	ld	h, -15 (ix)
   0ABC DD 6E F2      [19] 1898 	ld	l, -14 (ix)
   0ABF E5            [11] 1899 	push	hl
   0AC0 CDr0Dr10      [17] 1900 	call	_comprobarRocas
   0AC3 F1            [10] 1901 	pop	af
   0AC4 F1            [10] 1902 	pop	af
   0AC5 D1            [10] 1903 	pop	de
   0AC6 C1            [10] 1904 	pop	bc
   0AC7 DD 75 F3      [19] 1905 	ld	-13 (ix), l
                           1906 ;src/gameObject/gameObject.c:326: if(colisionPortales==hay_Colision){
   0ACA 15            [ 4] 1907 	dec	d
   0ACB 20 2E         [12] 1908 	jr	NZ,00107$
                           1909 ;src/gameObject/gameObject.c:327: ObjetoColisionado=comprobarRocas(nextPosx,nextPosy,rocasEspejo);
   0ACD C5            [11] 1910 	push	bc
   0ACE D5            [11] 1911 	push	de
   0ACF DD 6E 09      [19] 1912 	ld	l,9 (ix)
   0AD2 DD 66 0A      [19] 1913 	ld	h,10 (ix)
   0AD5 E5            [11] 1914 	push	hl
   0AD6 DD 66 F1      [19] 1915 	ld	h, -15 (ix)
   0AD9 DD 6E F2      [19] 1916 	ld	l, -14 (ix)
   0ADC E5            [11] 1917 	push	hl
   0ADD CDr0Dr10      [17] 1918 	call	_comprobarRocas
   0AE0 F1            [10] 1919 	pop	af
   0AE1 F1            [10] 1920 	pop	af
   0AE2 D1            [10] 1921 	pop	de
   0AE3 C1            [10] 1922 	pop	bc
                           1923 ;src/gameObject/gameObject.c:328: if(ObjetoColisionado!=SinColision){
   0AE4 DD 75 F3      [19] 1924 	ld	-13 (ix), l
   0AE7 7D            [ 4] 1925 	ld	a, l
   0AE8 D6 32         [ 7] 1926 	sub	a, #0x32
   0AEA 28 06         [12] 1927 	jr	Z,00104$
                           1928 ;src/gameObject/gameObject.c:329: moverRoca=no_mover_roca;
   0AEC DD 36 F4 01   [19] 1929 	ld	-12 (ix), #0x01
   0AF0 18 09         [12] 1930 	jr	00107$
   0AF2                    1931 00104$:
                           1932 ;src/gameObject/gameObject.c:331: cambiarPosicion(posicion);                                   
   0AF2 C5            [11] 1933 	push	bc
   0AF3 D5            [11] 1934 	push	de
   0AF4 C5            [11] 1935 	push	bc
   0AF5 CDrBBr08      [17] 1936 	call	_cambiarPosicion
   0AF8 F1            [10] 1937 	pop	af
   0AF9 D1            [10] 1938 	pop	de
   0AFA C1            [10] 1939 	pop	bc
   0AFB                    1940 00107$:
                           1941 ;src/gameObject/gameObject.c:334: colisionEnemigo=comprobarEnemigos(nextPosx,nextPosy,*posicion);
   0AFB 0A            [ 7] 1942 	ld	a, (bc)
   0AFC 47            [ 4] 1943 	ld	b, a
   0AFD D5            [11] 1944 	push	de
   0AFE C5            [11] 1945 	push	bc
   0AFF 33            [ 6] 1946 	inc	sp
   0B00 DD 66 F1      [19] 1947 	ld	h, -15 (ix)
   0B03 DD 6E F2      [19] 1948 	ld	l, -14 (ix)
   0B06 E5            [11] 1949 	push	hl
   0B07 CDr52r12      [17] 1950 	call	_comprobarEnemigos
   0B0A F1            [10] 1951 	pop	af
   0B0B 33            [ 6] 1952 	inc	sp
   0B0C D1            [10] 1953 	pop	de
                           1954 ;src/gameObject/gameObject.c:335: if(ObjetoColisionado==SinColision && colisionPuerta==no_Hay_Colision && colisionEnemigo==no_Hay_Colision){             
   0B0D DD 7E F3      [19] 1955 	ld	a, -13 (ix)
   0B10 D6 32         [ 7] 1956 	sub	a,#0x32
   0B12 20 58         [12] 1957 	jr	NZ,00111$
   0B14 B3            [ 4] 1958 	or	a,e
   0B15 20 55         [12] 1959 	jr	NZ,00111$
   0B17 B5            [ 4] 1960 	or	a,l
   0B18 20 52         [12] 1961 	jr	NZ,00111$
                           1962 ;src/gameObject/gameObject.c:336: moverYdibujar(objeto,nextPosx,nextPosy);
   0B1A DD 66 F1      [19] 1963 	ld	h, -15 (ix)
   0B1D DD 6E F2      [19] 1964 	ld	l, -14 (ix)
   0B20 E5            [11] 1965 	push	hl
   0B21 DD 6E 04      [19] 1966 	ld	l,4 (ix)
   0B24 DD 66 05      [19] 1967 	ld	h,5 (ix)
   0B27 E5            [11] 1968 	push	hl
   0B28 CDrC9r08      [17] 1969 	call	_moverYdibujar
   0B2B F1            [10] 1970 	pop	af
   0B2C F1            [10] 1971 	pop	af
                           1972 ;src/gameObject/gameObject.c:337: objeto->pasos++;                           
   0B2D DD 7E FA      [19] 1973 	ld	a, -6 (ix)
   0B30 C6 06         [ 7] 1974 	add	a, #0x06
   0B32 4F            [ 4] 1975 	ld	c, a
   0B33 DD 7E FB      [19] 1976 	ld	a, -5 (ix)
   0B36 CE 00         [ 7] 1977 	adc	a, #0x00
   0B38 47            [ 4] 1978 	ld	b, a
   0B39 0A            [ 7] 1979 	ld	a, (bc)
   0B3A 3C            [ 4] 1980 	inc	a
   0B3B 02            [ 7] 1981 	ld	(bc), a
                           1982 ;src/gameObject/gameObject.c:338: cpct_akp_SFXPlay(1,15,80,0,0,AY_CHANNEL_A);
   0B3C 3E 01         [ 7] 1983 	ld	a, #0x01
   0B3E F5            [11] 1984 	push	af
   0B3F 33            [ 6] 1985 	inc	sp
   0B40 21 00 00      [10] 1986 	ld	hl, #0x0000
   0B43 E5            [11] 1987 	push	hl
   0B44 2E 50         [ 7] 1988 	ld	l, #0x50
   0B46 E5            [11] 1989 	push	hl
   0B47 21 01 0F      [10] 1990 	ld	hl, #0x0f01
   0B4A E5            [11] 1991 	push	hl
   0B4B CDr00r00      [17] 1992 	call	_cpct_akp_SFXPlay
   0B4E 21 07 00      [10] 1993 	ld	hl, #7
   0B51 39            [11] 1994 	add	hl, sp
   0B52 F9            [ 6] 1995 	ld	sp, hl
                           1996 ;src/gameObject/gameObject.c:339: cpct_akp_SFXPlay(1,15,50,0,0,AY_CHANNEL_A);                                                 
   0B53 3E 01         [ 7] 1997 	ld	a, #0x01
   0B55 F5            [11] 1998 	push	af
   0B56 33            [ 6] 1999 	inc	sp
   0B57 21 00 00      [10] 2000 	ld	hl, #0x0000
   0B5A E5            [11] 2001 	push	hl
   0B5B 2E 32         [ 7] 2002 	ld	l, #0x32
   0B5D E5            [11] 2003 	push	hl
   0B5E 21 01 0F      [10] 2004 	ld	hl, #0x0f01
   0B61 E5            [11] 2005 	push	hl
   0B62 CDr00r00      [17] 2006 	call	_cpct_akp_SFXPlay
   0B65 21 07 00      [10] 2007 	ld	hl, #7
   0B68 39            [11] 2008 	add	hl, sp
   0B69 F9            [ 6] 2009 	ld	sp, hl
   0B6A 18 40         [12] 2010 	jr	00112$
   0B6C                    2011 00111$:
                           2012 ;src/gameObject/gameObject.c:342: if(moverRoca==mover_roca)          
   0B6C DD 7E F4      [19] 2013 	ld	a, -12 (ix)
   0B6F B7            [ 4] 2014 	or	a, a
   0B70 20 3A         [12] 2015 	jr	NZ,00112$
                           2016 ;src/gameObject/gameObject.c:343: moverGameObject(&rocasCol[ObjetoColisionado],movimiento,rocasCol,rocasEspejo,posicion);                      
   0B72 DD 4E F3      [19] 2017 	ld	c,-13 (ix)
   0B75 06 00         [ 7] 2018 	ld	b,#0x00
   0B77 69            [ 4] 2019 	ld	l, c
   0B78 60            [ 4] 2020 	ld	h, b
   0B79 29            [11] 2021 	add	hl, hl
   0B7A 09            [11] 2022 	add	hl, bc
   0B7B 29            [11] 2023 	add	hl, hl
   0B7C 09            [11] 2024 	add	hl, bc
   0B7D 4D            [ 4] 2025 	ld	c, l
   0B7E 44            [ 4] 2026 	ld	b, h
   0B7F DD 7E 07      [19] 2027 	ld	a, 7 (ix)
   0B82 81            [ 4] 2028 	add	a, c
   0B83 4F            [ 4] 2029 	ld	c, a
   0B84 DD 7E 08      [19] 2030 	ld	a, 8 (ix)
   0B87 88            [ 4] 2031 	adc	a, b
   0B88 47            [ 4] 2032 	ld	b, a
   0B89 DD 6E 0B      [19] 2033 	ld	l,11 (ix)
   0B8C DD 66 0C      [19] 2034 	ld	h,12 (ix)
   0B8F E5            [11] 2035 	push	hl
   0B90 DD 6E 09      [19] 2036 	ld	l,9 (ix)
   0B93 DD 66 0A      [19] 2037 	ld	h,10 (ix)
   0B96 E5            [11] 2038 	push	hl
   0B97 DD 6E 07      [19] 2039 	ld	l,7 (ix)
   0B9A DD 66 08      [19] 2040 	ld	h,8 (ix)
   0B9D E5            [11] 2041 	push	hl
   0B9E DD 7E F5      [19] 2042 	ld	a, -11 (ix)
   0BA1 F5            [11] 2043 	push	af
   0BA2 33            [ 6] 2044 	inc	sp
   0BA3 C5            [11] 2045 	push	bc
   0BA4 CDrD9r06      [17] 2046 	call	_moverGameObject
   0BA7 21 09 00      [10] 2047 	ld	hl, #9
   0BAA 39            [11] 2048 	add	hl, sp
   0BAB F9            [ 6] 2049 	ld	sp, hl
   0BAC                    2050 00112$:
                           2051 ;src/gameObject/gameObject.c:345: objeto->cronoMovimiento=retardoMovimiento;
   0BAC DD 6E FD      [19] 2052 	ld	l,-3 (ix)
   0BAF DD 66 FE      [19] 2053 	ld	h,-2 (ix)
   0BB2 36 05         [10] 2054 	ld	(hl), #0x05
   0BB4 18 08         [12] 2055 	jr	00119$
   0BB6                    2056 00118$:
                           2057 ;src/gameObject/gameObject.c:348: objeto->cronoMovimiento-=1;
   0BB6 0D            [ 4] 2058 	dec	c
   0BB7 DD 6E FD      [19] 2059 	ld	l,-3 (ix)
   0BBA DD 66 FE      [19] 2060 	ld	h,-2 (ix)
   0BBD 71            [ 7] 2061 	ld	(hl), c
   0BBE                    2062 00119$:
                           2063 ;src/gameObject/gameObject.c:350: return seguir_En_Nivel;
   0BBE 2E 00         [ 7] 2064 	ld	l, #0x00
   0BC0                    2065 00121$:
   0BC0 DD F9         [10] 2066 	ld	sp, ix
   0BC2 DD E1         [14] 2067 	pop	ix
   0BC4 C9            [10] 2068 	ret
                           2069 ;src/gameObject/gameObject.c:352: u8 moverTipoRoca(TGameObject* objeto,u8 movimiento, TGameObject* rocasCol,TGameObject* rocasEspejo,u8* posicion){
                           2070 ;	---------------------------------
                           2071 ; Function moverTipoRoca
                           2072 ; ---------------------------------
   0BC5                    2073 _moverTipoRoca::
   0BC5 DD E5         [15] 2074 	push	ix
   0BC7 DD 21 00 00   [14] 2075 	ld	ix,#0
   0BCB DD 39         [15] 2076 	add	ix,sp
   0BCD 21 F3 FF      [10] 2077 	ld	hl, #-13
   0BD0 39            [11] 2078 	add	hl, sp
   0BD1 F9            [ 6] 2079 	ld	sp, hl
                           2080 ;src/gameObject/gameObject.c:354: movimiento=calcularMaximosyMinimos(movimiento,objeto->posx,objeto->posy,*posicion);
   0BD2 DD 7E 0B      [19] 2081 	ld	a, 11 (ix)
   0BD5 DD 77 FC      [19] 2082 	ld	-4 (ix), a
   0BD8 DD 7E 0C      [19] 2083 	ld	a, 12 (ix)
   0BDB DD 77 FD      [19] 2084 	ld	-3 (ix), a
   0BDE DD 6E FC      [19] 2085 	ld	l,-4 (ix)
   0BE1 DD 66 FD      [19] 2086 	ld	h,-3 (ix)
   0BE4 56            [ 7] 2087 	ld	d, (hl)
   0BE5 DD 4E 04      [19] 2088 	ld	c,4 (ix)
   0BE8 DD 46 05      [19] 2089 	ld	b,5 (ix)
   0BEB 21 02 00      [10] 2090 	ld	hl, #0x0002
   0BEE 09            [11] 2091 	add	hl,bc
   0BEF DD 75 FA      [19] 2092 	ld	-6 (ix), l
   0BF2 DD 74 FB      [19] 2093 	ld	-5 (ix), h
   0BF5 5E            [ 7] 2094 	ld	e, (hl)
   0BF6 21 01 00      [10] 2095 	ld	hl, #0x0001
   0BF9 09            [11] 2096 	add	hl,bc
   0BFA DD 75 F8      [19] 2097 	ld	-8 (ix), l
   0BFD DD 74 F9      [19] 2098 	ld	-7 (ix), h
   0C00 7E            [ 7] 2099 	ld	a, (hl)
   0C01 DD 77 F7      [19] 2100 	ld	-9 (ix), a
   0C04 C5            [11] 2101 	push	bc
   0C05 D5            [11] 2102 	push	de
   0C06 33            [ 6] 2103 	inc	sp
   0C07 53            [ 4] 2104 	ld	d, e
   0C08 DD 5E F7      [19] 2105 	ld	e, -9 (ix)
   0C0B D5            [11] 2106 	push	de
   0C0C DD 7E 06      [19] 2107 	ld	a, 6 (ix)
   0C0F F5            [11] 2108 	push	af
   0C10 33            [ 6] 2109 	inc	sp
   0C11 CDr00r00      [17] 2110 	call	_calcularMaximosyMinimos
   0C14 F1            [10] 2111 	pop	af
   0C15 F1            [10] 2112 	pop	af
   0C16 5D            [ 4] 2113 	ld	e, l
   0C17 C1            [10] 2114 	pop	bc
                           2115 ;src/gameObject/gameObject.c:356: if(movimiento!=mover_SinMovimiento && objeto->movimiento != sin_Movimiento){                  
   0C18 7B            [ 4] 2116 	ld	a, e
   0C19 B7            [ 4] 2117 	or	a, a
   0C1A CAr26r0E      [10] 2118 	jp	Z, 00123$
   0C1D 21 04 00      [10] 2119 	ld	hl, #0x0004
   0C20 09            [11] 2120 	add	hl,bc
   0C21 DD 75 FE      [19] 2121 	ld	-2 (ix), l
   0C24 DD 74 FF      [19] 2122 	ld	-1 (ix), h
   0C27 56            [ 7] 2123 	ld	d, (hl)
   0C28 7A            [ 4] 2124 	ld	a, d
   0C29 B7            [ 4] 2125 	or	a, a
   0C2A CAr26r0E      [10] 2126 	jp	Z, 00123$
                           2127 ;src/gameObject/gameObject.c:357: u8 nextPosx=objeto->posx;
   0C2D DD 6E F8      [19] 2128 	ld	l,-8 (ix)
   0C30 DD 66 F9      [19] 2129 	ld	h,-7 (ix)
   0C33 7E            [ 7] 2130 	ld	a, (hl)
   0C34 DD 77 F4      [19] 2131 	ld	-12 (ix), a
                           2132 ;src/gameObject/gameObject.c:358: u8 nextPosy=objeto->posy;
   0C37 DD 6E FA      [19] 2133 	ld	l,-6 (ix)
   0C3A DD 66 FB      [19] 2134 	ld	h,-5 (ix)
   0C3D 7E            [ 7] 2135 	ld	a, (hl)
   0C3E DD 77 F3      [19] 2136 	ld	-13 (ix), a
                           2137 ;src/gameObject/gameObject.c:359: u8 numMovimientos=0;
   0C41 DD 36 F7 00   [19] 2138 	ld	-9 (ix), #0x00
                           2139 ;src/gameObject/gameObject.c:363: if(objeto->movimiento==mover_1){
   0C45 7A            [ 4] 2140 	ld	a, d
   0C46 3D            [ 4] 2141 	dec	a
   0C47 20 2C         [12] 2142 	jr	NZ,00104$
                           2143 ;src/gameObject/gameObject.c:364: mover1casilla(&nextPosx,&nextPosy,movimiento);
   0C49 21 00 00      [10] 2144 	ld	hl, #0x0000
   0C4C 39            [11] 2145 	add	hl, sp
   0C4D DD 75 F5      [19] 2146 	ld	-11 (ix), l
   0C50 DD 74 F6      [19] 2147 	ld	-10 (ix), h
   0C53 FD 21 01 00   [14] 2148 	ld	iy,#0x0001
   0C57 FD 39         [15] 2149 	add	iy,sp
   0C59 C5            [11] 2150 	push	bc
   0C5A D5            [11] 2151 	push	de
   0C5B 7B            [ 4] 2152 	ld	a, e
   0C5C F5            [11] 2153 	push	af
   0C5D 33            [ 6] 2154 	inc	sp
   0C5E DD 6E F5      [19] 2155 	ld	l,-11 (ix)
   0C61 DD 66 F6      [19] 2156 	ld	h,-10 (ix)
   0C64 E5            [11] 2157 	push	hl
   0C65 FD E5         [15] 2158 	push	iy
   0C67 CDr2Dr0E      [17] 2159 	call	_mover1casilla
   0C6A F1            [10] 2160 	pop	af
   0C6B F1            [10] 2161 	pop	af
   0C6C 33            [ 6] 2162 	inc	sp
   0C6D D1            [10] 2163 	pop	de
   0C6E C1            [10] 2164 	pop	bc
                           2165 ;src/gameObject/gameObject.c:365: numMovimientos=1;                 
   0C6F DD 36 F7 01   [19] 2166 	ld	-9 (ix), #0x01
   0C73 18 44         [12] 2167 	jr	00105$
   0C75                    2168 00104$:
                           2169 ;src/gameObject/gameObject.c:366: }else if(objeto->movimiento==mover_Linea){
   0C75 7A            [ 4] 2170 	ld	a, d
   0C76 D6 02         [ 7] 2171 	sub	a, #0x02
   0C78 20 3F         [12] 2172 	jr	NZ,00105$
                           2173 ;src/gameObject/gameObject.c:367: numMovimientos=movimientoLineal(objeto,&nextPosx,&nextPosy,movimiento,rocasCol,*posicion);
   0C7A DD 6E FC      [19] 2174 	ld	l,-4 (ix)
   0C7D DD 66 FD      [19] 2175 	ld	h,-3 (ix)
   0C80 56            [ 7] 2176 	ld	d, (hl)
   0C81 21 00 00      [10] 2177 	ld	hl, #0x0000
   0C84 39            [11] 2178 	add	hl, sp
   0C85 DD 75 F5      [19] 2179 	ld	-11 (ix), l
   0C88 DD 74 F6      [19] 2180 	ld	-10 (ix), h
   0C8B FD 21 01 00   [14] 2181 	ld	iy,#0x0001
   0C8F FD 39         [15] 2182 	add	iy,sp
   0C91 C5            [11] 2183 	push	bc
   0C92 D5            [11] 2184 	push	de
   0C93 D5            [11] 2185 	push	de
   0C94 33            [ 6] 2186 	inc	sp
   0C95 DD 6E 07      [19] 2187 	ld	l,7 (ix)
   0C98 DD 66 08      [19] 2188 	ld	h,8 (ix)
   0C9B E5            [11] 2189 	push	hl
   0C9C 7B            [ 4] 2190 	ld	a, e
   0C9D F5            [11] 2191 	push	af
   0C9E 33            [ 6] 2192 	inc	sp
   0C9F DD 6E F5      [19] 2193 	ld	l,-11 (ix)
   0CA2 DD 66 F6      [19] 2194 	ld	h,-10 (ix)
   0CA5 E5            [11] 2195 	push	hl
   0CA6 FD E5         [15] 2196 	push	iy
   0CA8 C5            [11] 2197 	push	bc
   0CA9 CDr72r0E      [17] 2198 	call	_movimientoLineal
   0CAC FD 21 0A 00   [14] 2199 	ld	iy, #10
   0CB0 FD 39         [15] 2200 	add	iy, sp
   0CB2 FD F9         [10] 2201 	ld	sp, iy
   0CB4 D1            [10] 2202 	pop	de
   0CB5 C1            [10] 2203 	pop	bc
   0CB6 DD 75 F7      [19] 2204 	ld	-9 (ix), l
   0CB9                    2205 00105$:
                           2206 ;src/gameObject/gameObject.c:369: posicionObjeto=colisionesSiguientePosicion(objeto,objeto->posx,objeto->posy,movimiento,rocasCol,posicion);                                      
   0CB9 DD 6E FA      [19] 2207 	ld	l,-6 (ix)
   0CBC DD 66 FB      [19] 2208 	ld	h,-5 (ix)
   0CBF 7E            [ 7] 2209 	ld	a, (hl)
   0CC0 DD 77 F5      [19] 2210 	ld	-11 (ix), a
   0CC3 DD 6E F8      [19] 2211 	ld	l,-8 (ix)
   0CC6 DD 66 F9      [19] 2212 	ld	h,-7 (ix)
   0CC9 56            [ 7] 2213 	ld	d, (hl)
   0CCA C5            [11] 2214 	push	bc
   0CCB D5            [11] 2215 	push	de
   0CCC DD 6E FC      [19] 2216 	ld	l,-4 (ix)
   0CCF DD 66 FD      [19] 2217 	ld	h,-3 (ix)
   0CD2 E5            [11] 2218 	push	hl
   0CD3 DD 6E 07      [19] 2219 	ld	l,7 (ix)
   0CD6 DD 66 08      [19] 2220 	ld	h,8 (ix)
   0CD9 E5            [11] 2221 	push	hl
   0CDA 7B            [ 4] 2222 	ld	a, e
   0CDB F5            [11] 2223 	push	af
   0CDC 33            [ 6] 2224 	inc	sp
   0CDD DD 7E F5      [19] 2225 	ld	a, -11 (ix)
   0CE0 F5            [11] 2226 	push	af
   0CE1 33            [ 6] 2227 	inc	sp
   0CE2 D5            [11] 2228 	push	de
   0CE3 33            [ 6] 2229 	inc	sp
   0CE4 C5            [11] 2230 	push	bc
   0CE5 CDr1Dr0F      [17] 2231 	call	_colisionesSiguientePosicion
   0CE8 FD 21 09 00   [14] 2232 	ld	iy, #9
   0CEC FD 39         [15] 2233 	add	iy, sp
   0CEE FD F9         [10] 2234 	ld	sp, iy
   0CF0 D1            [10] 2235 	pop	de
   0CF1 C1            [10] 2236 	pop	bc
   0CF2 7D            [ 4] 2237 	ld	a, l
                           2238 ;src/gameObject/gameObject.c:370: if(posicionObjeto==SinColision){
   0CF3 FE 32         [ 7] 2239 	cp	a, #0x32
   0CF5 C2r03r0E      [10] 2240 	jp	NZ,00120$
                           2241 ;src/gameObject/gameObject.c:371: posicionObjeto=colisionesSiguientePosicion(objeto,nextPosx,nextPosy,movimiento,rocasCol,posicion);             
   0CF8 C5            [11] 2242 	push	bc
   0CF9 D5            [11] 2243 	push	de
   0CFA DD 6E 0B      [19] 2244 	ld	l,11 (ix)
   0CFD DD 66 0C      [19] 2245 	ld	h,12 (ix)
   0D00 E5            [11] 2246 	push	hl
   0D01 DD 6E 07      [19] 2247 	ld	l,7 (ix)
   0D04 DD 66 08      [19] 2248 	ld	h,8 (ix)
   0D07 E5            [11] 2249 	push	hl
   0D08 53            [ 4] 2250 	ld	d, e
   0D09 DD 5E F3      [19] 2251 	ld	e, -13 (ix)
   0D0C D5            [11] 2252 	push	de
   0D0D DD 7E F4      [19] 2253 	ld	a, -12 (ix)
   0D10 F5            [11] 2254 	push	af
   0D11 33            [ 6] 2255 	inc	sp
   0D12 DD 6E 04      [19] 2256 	ld	l,4 (ix)
   0D15 DD 66 05      [19] 2257 	ld	h,5 (ix)
   0D18 E5            [11] 2258 	push	hl
   0D19 CDr1Dr0F      [17] 2259 	call	_colisionesSiguientePosicion
   0D1C 21 09 00      [10] 2260 	ld	hl, #9
   0D1F 39            [11] 2261 	add	hl, sp
   0D20 F9            [ 6] 2262 	ld	sp, hl
   0D21 DD 66 F3      [19] 2263 	ld	h, -13 (ix)
   0D24 DD 6E F4      [19] 2264 	ld	l, -12 (ix)
   0D27 E5            [11] 2265 	push	hl
   0D28 DD 6E 04      [19] 2266 	ld	l,4 (ix)
   0D2B DD 66 05      [19] 2267 	ld	h,5 (ix)
   0D2E E5            [11] 2268 	push	hl
   0D2F CDrC9r08      [17] 2269 	call	_moverYdibujar
   0D32 F1            [10] 2270 	pop	af
   0D33 F1            [10] 2271 	pop	af
   0D34 D1            [10] 2272 	pop	de
   0D35 C1            [10] 2273 	pop	bc
                           2274 ;src/gameObject/gameObject.c:373: moverElEspejo(objeto->num,movimiento,rocasEspejo,*posicion,numMovimientos);
   0D36 DD 6E FC      [19] 2275 	ld	l,-4 (ix)
   0D39 DD 66 FD      [19] 2276 	ld	h,-3 (ix)
   0D3C 56            [ 7] 2277 	ld	d, (hl)
   0D3D 0A            [ 7] 2278 	ld	a, (bc)
   0D3E DD 77 F5      [19] 2279 	ld	-11 (ix), a
   0D41 C5            [11] 2280 	push	bc
   0D42 D5            [11] 2281 	push	de
   0D43 DD 7E F7      [19] 2282 	ld	a, -9 (ix)
   0D46 F5            [11] 2283 	push	af
   0D47 33            [ 6] 2284 	inc	sp
   0D48 D5            [11] 2285 	push	de
   0D49 33            [ 6] 2286 	inc	sp
   0D4A DD 6E 09      [19] 2287 	ld	l,9 (ix)
   0D4D DD 66 0A      [19] 2288 	ld	h,10 (ix)
   0D50 E5            [11] 2289 	push	hl
   0D51 53            [ 4] 2290 	ld	d, e
   0D52 DD 5E F5      [19] 2291 	ld	e, -11 (ix)
   0D55 D5            [11] 2292 	push	de
   0D56 CDr41r07      [17] 2293 	call	_moverElEspejo
   0D59 21 06 00      [10] 2294 	ld	hl, #6
   0D5C 39            [11] 2295 	add	hl, sp
   0D5D F9            [ 6] 2296 	ld	sp, hl
   0D5E D1            [10] 2297 	pop	de
   0D5F C1            [10] 2298 	pop	bc
                           2299 ;src/gameObject/gameObject.c:374: if(objeto->movimiento==mover_1){
   0D60 DD 6E FE      [19] 2300 	ld	l,-2 (ix)
   0D63 DD 66 FF      [19] 2301 	ld	h,-1 (ix)
   0D66 7E            [ 7] 2302 	ld	a, (hl)
   0D67 FE 01         [ 7] 2303 	cp	a, #0x01
   0D69 20 4B         [12] 2304 	jr	NZ,00115$
                           2305 ;src/gameObject/gameObject.c:375: posicionObjeto=colisionesSiguientePosicion(objeto,nextPosx,nextPosy,mover_SinMovimiento,rocasCol,posicion);
   0D6B C5            [11] 2306 	push	bc
   0D6C DD 6E FC      [19] 2307 	ld	l,-4 (ix)
   0D6F DD 66 FD      [19] 2308 	ld	h,-3 (ix)
   0D72 E5            [11] 2309 	push	hl
   0D73 DD 6E 07      [19] 2310 	ld	l,7 (ix)
   0D76 DD 66 08      [19] 2311 	ld	h,8 (ix)
   0D79 E5            [11] 2312 	push	hl
   0D7A AF            [ 4] 2313 	xor	a, a
   0D7B F5            [11] 2314 	push	af
   0D7C 33            [ 6] 2315 	inc	sp
   0D7D DD 66 F3      [19] 2316 	ld	h, -13 (ix)
   0D80 DD 6E F4      [19] 2317 	ld	l, -12 (ix)
   0D83 E5            [11] 2318 	push	hl
   0D84 C5            [11] 2319 	push	bc
   0D85 CDr1Dr0F      [17] 2320 	call	_colisionesSiguientePosicion
   0D88 FD 21 09 00   [14] 2321 	ld	iy, #9
   0D8C FD 39         [15] 2322 	add	iy, sp
   0D8E FD F9         [10] 2323 	ld	sp, iy
   0D90 C1            [10] 2324 	pop	bc
   0D91 7D            [ 4] 2325 	ld	a, l
                           2326 ;src/gameObject/gameObject.c:376: if(posicionObjeto!=SinColision && posicionObjeto != ColisionNoRocas){
   0D92 FE 32         [ 7] 2327 	cp	a, #0x32
   0D94 CAr26r0E      [10] 2328 	jp	Z,00123$
   0D97 FE 33         [ 7] 2329 	cp	a, #0x33
   0D99 CAr26r0E      [10] 2330 	jp	Z,00123$
                           2331 ;src/gameObject/gameObject.c:377: taparHole(objeto,&rocasCol[posicionObjeto]);
   0D9C 5F            [ 4] 2332 	ld	e,a
   0D9D 16 00         [ 7] 2333 	ld	d,#0x00
   0D9F 6B            [ 4] 2334 	ld	l, e
   0DA0 62            [ 4] 2335 	ld	h, d
   0DA1 29            [11] 2336 	add	hl, hl
   0DA2 19            [11] 2337 	add	hl, de
   0DA3 29            [11] 2338 	add	hl, hl
   0DA4 19            [11] 2339 	add	hl, de
   0DA5 EB            [ 4] 2340 	ex	de,hl
   0DA6 DD 6E 07      [19] 2341 	ld	l,7 (ix)
   0DA9 DD 66 08      [19] 2342 	ld	h,8 (ix)
   0DAC 19            [11] 2343 	add	hl, de
   0DAD E5            [11] 2344 	push	hl
   0DAE C5            [11] 2345 	push	bc
   0DAF CDr04r09      [17] 2346 	call	_taparHole
   0DB2 F1            [10] 2347 	pop	af
   0DB3 F1            [10] 2348 	pop	af
   0DB4 18 70         [12] 2349 	jr	00123$
   0DB6                    2350 00115$:
                           2351 ;src/gameObject/gameObject.c:379: }else if(objeto->movimiento==mover_Linea){
   0DB6 D6 02         [ 7] 2352 	sub	a, #0x02
   0DB8 20 6C         [12] 2353 	jr	NZ,00123$
                           2354 ;src/gameObject/gameObject.c:380: posicionObjeto=colisionesSiguientePosicion(objeto,nextPosx,nextPosy,movimiento,rocasCol,posicion);
   0DBA C5            [11] 2355 	push	bc
   0DBB DD 6E FC      [19] 2356 	ld	l,-4 (ix)
   0DBE DD 66 FD      [19] 2357 	ld	h,-3 (ix)
   0DC1 E5            [11] 2358 	push	hl
   0DC2 DD 6E 07      [19] 2359 	ld	l,7 (ix)
   0DC5 DD 66 08      [19] 2360 	ld	h,8 (ix)
   0DC8 E5            [11] 2361 	push	hl
   0DC9 53            [ 4] 2362 	ld	d, e
   0DCA DD 5E F3      [19] 2363 	ld	e, -13 (ix)
   0DCD D5            [11] 2364 	push	de
   0DCE DD 7E F4      [19] 2365 	ld	a, -12 (ix)
   0DD1 F5            [11] 2366 	push	af
   0DD2 33            [ 6] 2367 	inc	sp
   0DD3 C5            [11] 2368 	push	bc
   0DD4 CDr1Dr0F      [17] 2369 	call	_colisionesSiguientePosicion
   0DD7 FD 21 09 00   [14] 2370 	ld	iy, #9
   0DDB FD 39         [15] 2371 	add	iy, sp
   0DDD FD F9         [10] 2372 	ld	sp, iy
   0DDF C1            [10] 2373 	pop	bc
   0DE0 7D            [ 4] 2374 	ld	a, l
                           2375 ;src/gameObject/gameObject.c:381: if(posicionObjeto!=SinColision && posicionObjeto != ColisionNoRocas){
   0DE1 FE 32         [ 7] 2376 	cp	a, #0x32
   0DE3 28 41         [12] 2377 	jr	Z,00123$
   0DE5 FE 33         [ 7] 2378 	cp	a, #0x33
   0DE7 28 3D         [12] 2379 	jr	Z,00123$
                           2380 ;src/gameObject/gameObject.c:382: taparHole(objeto,&rocasCol[posicionObjeto]);
   0DE9 5F            [ 4] 2381 	ld	e,a
   0DEA 16 00         [ 7] 2382 	ld	d,#0x00
   0DEC 6B            [ 4] 2383 	ld	l, e
   0DED 62            [ 4] 2384 	ld	h, d
   0DEE 29            [11] 2385 	add	hl, hl
   0DEF 19            [11] 2386 	add	hl, de
   0DF0 29            [11] 2387 	add	hl, hl
   0DF1 19            [11] 2388 	add	hl, de
   0DF2 EB            [ 4] 2389 	ex	de,hl
   0DF3 DD 6E 07      [19] 2390 	ld	l,7 (ix)
   0DF6 DD 66 08      [19] 2391 	ld	h,8 (ix)
   0DF9 19            [11] 2392 	add	hl, de
   0DFA E5            [11] 2393 	push	hl
   0DFB C5            [11] 2394 	push	bc
   0DFC CDr04r09      [17] 2395 	call	_taparHole
   0DFF F1            [10] 2396 	pop	af
   0E00 F1            [10] 2397 	pop	af
   0E01 18 23         [12] 2398 	jr	00123$
   0E03                    2399 00120$:
                           2400 ;src/gameObject/gameObject.c:386: if(posicionObjeto!=ColisionNoRocas){
   0E03 FE 33         [ 7] 2401 	cp	a, #0x33
   0E05 28 1F         [12] 2402 	jr	Z,00123$
                           2403 ;src/gameObject/gameObject.c:387: taparHole(objeto,&rocasCol[posicionObjeto]);
   0E07 4F            [ 4] 2404 	ld	c,a
   0E08 06 00         [ 7] 2405 	ld	b,#0x00
   0E0A 69            [ 4] 2406 	ld	l, c
   0E0B 60            [ 4] 2407 	ld	h, b
   0E0C 29            [11] 2408 	add	hl, hl
   0E0D 09            [11] 2409 	add	hl, bc
   0E0E 29            [11] 2410 	add	hl, hl
   0E0F 09            [11] 2411 	add	hl, bc
   0E10 4D            [ 4] 2412 	ld	c, l
   0E11 44            [ 4] 2413 	ld	b, h
   0E12 DD 6E 07      [19] 2414 	ld	l,7 (ix)
   0E15 DD 66 08      [19] 2415 	ld	h,8 (ix)
   0E18 09            [11] 2416 	add	hl, bc
   0E19 E5            [11] 2417 	push	hl
   0E1A DD 6E 04      [19] 2418 	ld	l,4 (ix)
   0E1D DD 66 05      [19] 2419 	ld	h,5 (ix)
   0E20 E5            [11] 2420 	push	hl
   0E21 CDr04r09      [17] 2421 	call	_taparHole
   0E24 F1            [10] 2422 	pop	af
   0E25 F1            [10] 2423 	pop	af
   0E26                    2424 00123$:
                           2425 ;src/gameObject/gameObject.c:393: return seguir_En_Nivel;
   0E26 2E 00         [ 7] 2426 	ld	l, #0x00
   0E28 DD F9         [10] 2427 	ld	sp, ix
   0E2A DD E1         [14] 2428 	pop	ix
   0E2C C9            [10] 2429 	ret
                           2430 ;src/gameObject/gameObject.c:401: void mover1casilla(u8* posx, u8* posy,u8 movimiento){
                           2431 ;	---------------------------------
                           2432 ; Function mover1casilla
                           2433 ; ---------------------------------
   0E2D                    2434 _mover1casilla::
   0E2D DD E5         [15] 2435 	push	ix
   0E2F DD 21 00 00   [14] 2436 	ld	ix,#0
   0E33 DD 39         [15] 2437 	add	ix,sp
                           2438 ;src/gameObject/gameObject.c:403: *posx-=1;
   0E35 DD 4E 04      [19] 2439 	ld	c,4 (ix)
   0E38 DD 46 05      [19] 2440 	ld	b,5 (ix)
                           2441 ;src/gameObject/gameObject.c:402: if(movimiento==mover_Izquierda){
   0E3B DD 7E 08      [19] 2442 	ld	a, 8 (ix)
   0E3E 3D            [ 4] 2443 	dec	a
   0E3F 20 06         [12] 2444 	jr	NZ,00110$
                           2445 ;src/gameObject/gameObject.c:403: *posx-=1;
   0E41 0A            [ 7] 2446 	ld	a, (bc)
   0E42 C6 FF         [ 7] 2447 	add	a, #0xff
   0E44 02            [ 7] 2448 	ld	(bc), a
   0E45 18 28         [12] 2449 	jr	00112$
   0E47                    2450 00110$:
                           2451 ;src/gameObject/gameObject.c:405: *posy-=1;
   0E47 DD 6E 06      [19] 2452 	ld	l,6 (ix)
   0E4A DD 66 07      [19] 2453 	ld	h,7 (ix)
                           2454 ;src/gameObject/gameObject.c:404: }else if(movimiento==mover_Arriba){
   0E4D DD 7E 08      [19] 2455 	ld	a, 8 (ix)
   0E50 D6 02         [ 7] 2456 	sub	a, #0x02
   0E52 20 05         [12] 2457 	jr	NZ,00107$
                           2458 ;src/gameObject/gameObject.c:405: *posy-=1;
   0E54 4E            [ 7] 2459 	ld	c, (hl)
   0E55 0D            [ 4] 2460 	dec	c
   0E56 71            [ 7] 2461 	ld	(hl), c
   0E57 18 16         [12] 2462 	jr	00112$
   0E59                    2463 00107$:
                           2464 ;src/gameObject/gameObject.c:406: }else if(movimiento==mover_Derecha){
   0E59 DD 7E 08      [19] 2465 	ld	a, 8 (ix)
   0E5C D6 03         [ 7] 2466 	sub	a, #0x03
   0E5E 20 05         [12] 2467 	jr	NZ,00104$
                           2468 ;src/gameObject/gameObject.c:407: *posx+=1;
   0E60 0A            [ 7] 2469 	ld	a, (bc)
   0E61 3C            [ 4] 2470 	inc	a
   0E62 02            [ 7] 2471 	ld	(bc), a
   0E63 18 0A         [12] 2472 	jr	00112$
   0E65                    2473 00104$:
                           2474 ;src/gameObject/gameObject.c:408: }else if(movimiento==mover_Abajo){
   0E65 DD 7E 08      [19] 2475 	ld	a, 8 (ix)
   0E68 D6 04         [ 7] 2476 	sub	a, #0x04
   0E6A 20 03         [12] 2477 	jr	NZ,00112$
                           2478 ;src/gameObject/gameObject.c:409: *posy+=1;
   0E6C 4E            [ 7] 2479 	ld	c, (hl)
   0E6D 0C            [ 4] 2480 	inc	c
   0E6E 71            [ 7] 2481 	ld	(hl), c
   0E6F                    2482 00112$:
   0E6F DD E1         [14] 2483 	pop	ix
   0E71 C9            [10] 2484 	ret
                           2485 ;src/gameObject/gameObject.c:413: u8 movimientoLineal(TGameObject* objeto,u8* posx, u8* posy,u8 movimiento,TGameObject* objetosCol,u8 posicion){    
                           2486 ;	---------------------------------
                           2487 ; Function movimientoLineal
                           2488 ; ---------------------------------
   0E72                    2489 _movimientoLineal::
   0E72 DD E5         [15] 2490 	push	ix
   0E74 DD 21 00 00   [14] 2491 	ld	ix,#0
   0E78 DD 39         [15] 2492 	add	ix,sp
   0E7A F5            [11] 2493 	push	af
   0E7B F5            [11] 2494 	push	af
   0E7C 3B            [ 6] 2495 	dec	sp
                           2496 ;src/gameObject/gameObject.c:416: while (colisionesSiguientePosicion(objeto,*posx,*posy,movimiento,objetosCol,posicion)==SinColision && movimiento!=mover_SinMovimiento)
   0E7D DD 7E 08      [19] 2497 	ld	a, 8 (ix)
   0E80 DD 77 FE      [19] 2498 	ld	-2 (ix), a
   0E83 DD 7E 09      [19] 2499 	ld	a, 9 (ix)
   0E86 DD 77 FF      [19] 2500 	ld	-1 (ix), a
   0E89 DD 4E 06      [19] 2501 	ld	c,6 (ix)
   0E8C DD 46 07      [19] 2502 	ld	b,7 (ix)
   0E8F DD 36 FB 00   [19] 2503 	ld	-5 (ix), #0x00
   0E93                    2504 00102$:
   0E93 DD 7E 0D      [19] 2505 	ld	a, 13 (ix)
   0E96 DD 77 FC      [19] 2506 	ld	-4 (ix), a
   0E99 DD 36 FD 00   [19] 2507 	ld	-3 (ix), #0x00
   0E9D DD 6E FE      [19] 2508 	ld	l,-2 (ix)
   0EA0 DD 66 FF      [19] 2509 	ld	h,-1 (ix)
   0EA3 5E            [ 7] 2510 	ld	e, (hl)
   0EA4 0A            [ 7] 2511 	ld	a, (bc)
   0EA5 57            [ 4] 2512 	ld	d, a
   0EA6 C5            [11] 2513 	push	bc
   0EA7 DD 6E FC      [19] 2514 	ld	l,-4 (ix)
   0EAA DD 66 FD      [19] 2515 	ld	h,-3 (ix)
   0EAD E5            [11] 2516 	push	hl
   0EAE DD 6E 0B      [19] 2517 	ld	l,11 (ix)
   0EB1 DD 66 0C      [19] 2518 	ld	h,12 (ix)
   0EB4 E5            [11] 2519 	push	hl
   0EB5 DD 7E 0A      [19] 2520 	ld	a, 10 (ix)
   0EB8 F5            [11] 2521 	push	af
   0EB9 33            [ 6] 2522 	inc	sp
   0EBA 7B            [ 4] 2523 	ld	a, e
   0EBB F5            [11] 2524 	push	af
   0EBC 33            [ 6] 2525 	inc	sp
   0EBD D5            [11] 2526 	push	de
   0EBE 33            [ 6] 2527 	inc	sp
   0EBF DD 6E 04      [19] 2528 	ld	l,4 (ix)
   0EC2 DD 66 05      [19] 2529 	ld	h,5 (ix)
   0EC5 E5            [11] 2530 	push	hl
   0EC6 CDr1Dr0F      [17] 2531 	call	_colisionesSiguientePosicion
   0EC9 FD 21 09 00   [14] 2532 	ld	iy, #9
   0ECD FD 39         [15] 2533 	add	iy, sp
   0ECF FD F9         [10] 2534 	ld	sp, iy
   0ED1 C1            [10] 2535 	pop	bc
   0ED2 7D            [ 4] 2536 	ld	a, l
   0ED3 D6 32         [ 7] 2537 	sub	a, #0x32
   0ED5 20 3E         [12] 2538 	jr	NZ,00104$
   0ED7 DD 7E 0A      [19] 2539 	ld	a, 10 (ix)
   0EDA B7            [ 4] 2540 	or	a, a
   0EDB 28 38         [12] 2541 	jr	Z,00104$
                           2542 ;src/gameObject/gameObject.c:418: movimiento=calcularMaximosyMinimos(movimiento,*posx,*posy,posicion);       
   0EDD DD 6E FE      [19] 2543 	ld	l,-2 (ix)
   0EE0 DD 66 FF      [19] 2544 	ld	h,-1 (ix)
   0EE3 56            [ 7] 2545 	ld	d, (hl)
   0EE4 0A            [ 7] 2546 	ld	a, (bc)
   0EE5 5F            [ 4] 2547 	ld	e, a
   0EE6 C5            [11] 2548 	push	bc
   0EE7 DD 7E 0D      [19] 2549 	ld	a, 13 (ix)
   0EEA F5            [11] 2550 	push	af
   0EEB 33            [ 6] 2551 	inc	sp
   0EEC D5            [11] 2552 	push	de
   0EED 33            [ 6] 2553 	inc	sp
   0EEE 53            [ 4] 2554 	ld	d, e
   0EEF DD 5E 0A      [19] 2555 	ld	e, 10 (ix)
   0EF2 D5            [11] 2556 	push	de
   0EF3 CDr00r00      [17] 2557 	call	_calcularMaximosyMinimos
   0EF6 F1            [10] 2558 	pop	af
   0EF7 F1            [10] 2559 	pop	af
   0EF8 55            [ 4] 2560 	ld	d, l
   0EF9 C1            [10] 2561 	pop	bc
   0EFA DD 72 0A      [19] 2562 	ld	10 (ix), d
                           2563 ;src/gameObject/gameObject.c:419: mover1casilla(posx,posy,movimiento);
   0EFD C5            [11] 2564 	push	bc
   0EFE D5            [11] 2565 	push	de
   0EFF 33            [ 6] 2566 	inc	sp
   0F00 DD 6E FE      [19] 2567 	ld	l,-2 (ix)
   0F03 DD 66 FF      [19] 2568 	ld	h,-1 (ix)
   0F06 E5            [11] 2569 	push	hl
   0F07 C5            [11] 2570 	push	bc
   0F08 CDr2Dr0E      [17] 2571 	call	_mover1casilla
   0F0B F1            [10] 2572 	pop	af
   0F0C F1            [10] 2573 	pop	af
   0F0D 33            [ 6] 2574 	inc	sp
   0F0E C1            [10] 2575 	pop	bc
                           2576 ;src/gameObject/gameObject.c:420: contador++;                    
   0F0F DD 34 FB      [23] 2577 	inc	-5 (ix)
   0F12 C3r93r0E      [10] 2578 	jp	00102$
   0F15                    2579 00104$:
                           2580 ;src/gameObject/gameObject.c:424: return contador;             
   0F15 DD 6E FB      [19] 2581 	ld	l, -5 (ix)
   0F18 DD F9         [10] 2582 	ld	sp, ix
   0F1A DD E1         [14] 2583 	pop	ix
   0F1C C9            [10] 2584 	ret
                           2585 ;src/gameObject/gameObject.c:432: u8 colisionesSiguientePosicion(TGameObject* objeto,u8 posx,u8 posy,u8 movimiento, TGameObject* rocasCol,u8* posicion){
                           2586 ;	---------------------------------
                           2587 ; Function colisionesSiguientePosicion
                           2588 ; ---------------------------------
   0F1D                    2589 _colisionesSiguientePosicion::
   0F1D DD E5         [15] 2590 	push	ix
   0F1F DD 21 00 00   [14] 2591 	ld	ix,#0
   0F23 DD 39         [15] 2592 	add	ix,sp
   0F25 21 F8 FF      [10] 2593 	ld	hl, #-8
   0F28 39            [11] 2594 	add	hl, sp
   0F29 F9            [ 6] 2595 	ld	sp, hl
                           2596 ;src/gameObject/gameObject.c:433: u8 nextPosx=posx;
   0F2A DD 7E 06      [19] 2597 	ld	a, 6 (ix)
   0F2D DD 77 FA      [19] 2598 	ld	-6 (ix), a
                           2599 ;src/gameObject/gameObject.c:434: u8 nextPosy=posy;
   0F30 DD 7E 07      [19] 2600 	ld	a, 7 (ix)
   0F33 DD 77 F8      [19] 2601 	ld	-8 (ix), a
                           2602 ;src/gameObject/gameObject.c:441: mover1casilla(&nextPosx,&nextPosy,movimiento);
   0F36 21 00 00      [10] 2603 	ld	hl, #0x0000
   0F39 39            [11] 2604 	add	hl, sp
   0F3A DD 75 FB      [19] 2605 	ld	-5 (ix), l
   0F3D DD 74 FC      [19] 2606 	ld	-4 (ix), h
   0F40 EB            [ 4] 2607 	ex	de,hl
   0F41 21 02 00      [10] 2608 	ld	hl, #0x0002
   0F44 39            [11] 2609 	add	hl, sp
   0F45 DD 75 FD      [19] 2610 	ld	-3 (ix), l
   0F48 DD 74 FE      [19] 2611 	ld	-2 (ix), h
   0F4B 4D            [ 4] 2612 	ld	c, l
   0F4C 44            [ 4] 2613 	ld	b, h
   0F4D DD 7E 08      [19] 2614 	ld	a, 8 (ix)
   0F50 F5            [11] 2615 	push	af
   0F51 33            [ 6] 2616 	inc	sp
   0F52 D5            [11] 2617 	push	de
   0F53 C5            [11] 2618 	push	bc
   0F54 CDr2Dr0E      [17] 2619 	call	_mover1casilla
   0F57 F1            [10] 2620 	pop	af
   0F58 F1            [10] 2621 	pop	af
   0F59 33            [ 6] 2622 	inc	sp
                           2623 ;src/gameObject/gameObject.c:442: ObjetoColisionado=comprobarRocas(nextPosx,nextPosy,rocasCol);
   0F5A DD 6E 09      [19] 2624 	ld	l,9 (ix)
   0F5D DD 66 0A      [19] 2625 	ld	h,10 (ix)
   0F60 E5            [11] 2626 	push	hl
   0F61 DD 66 F8      [19] 2627 	ld	h, -8 (ix)
   0F64 DD 6E FA      [19] 2628 	ld	l, -6 (ix)
   0F67 E5            [11] 2629 	push	hl
   0F68 CDr0Dr10      [17] 2630 	call	_comprobarRocas
   0F6B F1            [10] 2631 	pop	af
   0F6C F1            [10] 2632 	pop	af
                           2633 ;src/gameObject/gameObject.c:443: if(ObjetoColisionado!=SinColision){
   0F6D 7D            [ 4] 2634 	ld	a, l
   0F6E D6 32         [ 7] 2635 	sub	a, #0x32
   0F70 20 04         [12] 2636 	jr	NZ,00135$
   0F72 3E 01         [ 7] 2637 	ld	a,#0x01
   0F74 18 01         [12] 2638 	jr	00136$
   0F76                    2639 00135$:
   0F76 AF            [ 4] 2640 	xor	a,a
   0F77                    2641 00136$:
   0F77 DD 77 FF      [19] 2642 	ld	-1 (ix), a
   0F7A DD CB FF 46   [20] 2643 	bit	0, -1 (ix)
                           2644 ;src/gameObject/gameObject.c:444: return ObjetoColisionado;
   0F7E CAr08r10      [10] 2645 	jp	Z,00109$
                           2646 ;src/gameObject/gameObject.c:446: colisionPuerta=comprobarPuertas(nextPosx,nextPosy);                      
   0F81 DD 66 F8      [19] 2647 	ld	h, -8 (ix)
   0F84 DD 6E FA      [19] 2648 	ld	l, -6 (ix)
   0F87 E5            [11] 2649 	push	hl
   0F88 CDr65r11      [17] 2650 	call	_comprobarPuertas
   0F8B F1            [10] 2651 	pop	af
   0F8C 5D            [ 4] 2652 	ld	e, l
                           2653 ;src/gameObject/gameObject.c:447: colisionPortales=comprobarPortales(objeto,&nextPosx,&nextPosy,movimiento,posicion);                 
   0F8D DD 4E FB      [19] 2654 	ld	c,-5 (ix)
   0F90 DD 46 FC      [19] 2655 	ld	b,-4 (ix)
   0F93 DD 6E FD      [19] 2656 	ld	l,-3 (ix)
   0F96 DD 66 FE      [19] 2657 	ld	h,-2 (ix)
   0F99 E5            [11] 2658 	push	hl
   0F9A FD E1         [14] 2659 	pop	iy
   0F9C D5            [11] 2660 	push	de
   0F9D DD 6E 0B      [19] 2661 	ld	l,11 (ix)
   0FA0 DD 66 0C      [19] 2662 	ld	h,12 (ix)
   0FA3 E5            [11] 2663 	push	hl
   0FA4 DD 7E 08      [19] 2664 	ld	a, 8 (ix)
   0FA7 F5            [11] 2665 	push	af
   0FA8 33            [ 6] 2666 	inc	sp
   0FA9 C5            [11] 2667 	push	bc
   0FAA FD E5         [15] 2668 	push	iy
   0FAC DD 6E 04      [19] 2669 	ld	l,4 (ix)
   0FAF DD 66 05      [19] 2670 	ld	h,5 (ix)
   0FB2 E5            [11] 2671 	push	hl
   0FB3 CDr57r10      [17] 2672 	call	_comprobarPortales
   0FB6 FD 21 09 00   [14] 2673 	ld	iy, #9
   0FBA FD 39         [15] 2674 	add	iy, sp
   0FBC FD F9         [10] 2675 	ld	sp, iy
                           2676 ;src/gameObject/gameObject.c:448: colisionColeccionable=comprobarColeccionables(nextPosx,nextPosy,sprite_Rock_B);
   0FBE DD 75 F9      [19] 2677 	ld	-7 (ix), l
   0FC1 3E 03         [ 7] 2678 	ld	a, #0x03
   0FC3 F5            [11] 2679 	push	af
   0FC4 33            [ 6] 2680 	inc	sp
   0FC5 DD 66 F8      [19] 2681 	ld	h, -8 (ix)
   0FC8 DD 6E FA      [19] 2682 	ld	l, -6 (ix)
   0FCB E5            [11] 2683 	push	hl
   0FCC CDrABr11      [17] 2684 	call	_comprobarColeccionables
   0FCF F1            [10] 2685 	pop	af
   0FD0 33            [ 6] 2686 	inc	sp
   0FD1 4D            [ 4] 2687 	ld	c, l
   0FD2 D1            [10] 2688 	pop	de
                           2689 ;src/gameObject/gameObject.c:449: colisionEnemigos=comprobarEnemigos(nextPosx,nextPosy,*posicion);
   0FD3 DD 6E 0B      [19] 2690 	ld	l,11 (ix)
   0FD6 DD 66 0C      [19] 2691 	ld	h,12 (ix)
   0FD9 46            [ 7] 2692 	ld	b, (hl)
   0FDA C5            [11] 2693 	push	bc
   0FDB D5            [11] 2694 	push	de
   0FDC C5            [11] 2695 	push	bc
   0FDD 33            [ 6] 2696 	inc	sp
   0FDE DD 66 F8      [19] 2697 	ld	h, -8 (ix)
   0FE1 DD 6E FA      [19] 2698 	ld	l, -6 (ix)
   0FE4 E5            [11] 2699 	push	hl
   0FE5 CDr52r12      [17] 2700 	call	_comprobarEnemigos
   0FE8 F1            [10] 2701 	pop	af
   0FE9 33            [ 6] 2702 	inc	sp
   0FEA D1            [10] 2703 	pop	de
   0FEB C1            [10] 2704 	pop	bc
                           2705 ;src/gameObject/gameObject.c:452: if(ObjetoColisionado==SinColision && colisionPuerta==no_Hay_Colision && colisionPortales==no_Hay_Colision && colisionColeccionable==no_Hay_Colision && colisionEnemigos==no_Hay_Colision){        
   0FEC DD CB FF 46   [20] 2706 	bit	0, -1 (ix)
   0FF0 28 14         [12] 2707 	jr	Z,00104$
   0FF2 7B            [ 4] 2708 	ld	a, e
   0FF3 B7            [ 4] 2709 	or	a, a
   0FF4 20 10         [12] 2710 	jr	NZ,00104$
   0FF6 DD 7E F9      [19] 2711 	ld	a, -7 (ix)
   0FF9 B7            [ 4] 2712 	or	a,a
   0FFA 20 0A         [12] 2713 	jr	NZ,00104$
   0FFC B1            [ 4] 2714 	or	a,c
   0FFD 20 07         [12] 2715 	jr	NZ,00104$
   0FFF B5            [ 4] 2716 	or	a,l
   1000 20 04         [12] 2717 	jr	NZ,00104$
                           2718 ;src/gameObject/gameObject.c:453: return SinColision;
   1002 2E 32         [ 7] 2719 	ld	l, #0x32
   1004 18 02         [12] 2720 	jr	00109$
   1006                    2721 00104$:
                           2722 ;src/gameObject/gameObject.c:455: return ColisionNoRocas;
   1006 2E 33         [ 7] 2723 	ld	l, #0x33
   1008                    2724 00109$:
   1008 DD F9         [10] 2725 	ld	sp, ix
   100A DD E1         [14] 2726 	pop	ix
   100C C9            [10] 2727 	ret
                           2728 ;src/gameObject/gameObject.c:458: u8 comprobarRocas(u8 posx,u8 posy,TGameObject* rocas){
                           2729 ;	---------------------------------
                           2730 ; Function comprobarRocas
                           2731 ; ---------------------------------
   100D                    2732 _comprobarRocas::
   100D DD E5         [15] 2733 	push	ix
   100F DD 21 00 00   [14] 2734 	ld	ix,#0
   1013 DD 39         [15] 2735 	add	ix,sp
                           2736 ;src/gameObject/gameObject.c:459: u8 colision=SinColision;   
                           2737 ;src/gameObject/gameObject.c:460: for(u8 i=0;i<RocasMaximas;i++){
   1015 01 32 00      [10] 2738 	ld	bc,#0x0032
   1018                    2739 00107$:
   1018 78            [ 4] 2740 	ld	a, b
   1019 D6 28         [ 7] 2741 	sub	a, #0x28
   101B 30 36         [12] 2742 	jr	NC,00105$
                           2743 ;src/gameObject/gameObject.c:461: if(rocas[i].posx!=0){
   101D 58            [ 4] 2744 	ld	e,b
   101E 16 00         [ 7] 2745 	ld	d,#0x00
   1020 6B            [ 4] 2746 	ld	l, e
   1021 62            [ 4] 2747 	ld	h, d
   1022 29            [11] 2748 	add	hl, hl
   1023 19            [11] 2749 	add	hl, de
   1024 29            [11] 2750 	add	hl, hl
   1025 19            [11] 2751 	add	hl, de
   1026 EB            [ 4] 2752 	ex	de,hl
   1027 DD 7E 06      [19] 2753 	ld	a, 6 (ix)
   102A 83            [ 4] 2754 	add	a, e
   102B 5F            [ 4] 2755 	ld	e, a
   102C DD 7E 07      [19] 2756 	ld	a, 7 (ix)
   102F 8A            [ 4] 2757 	adc	a, d
   1030 57            [ 4] 2758 	ld	d, a
   1031 6B            [ 4] 2759 	ld	l, e
   1032 62            [ 4] 2760 	ld	h, d
   1033 23            [ 6] 2761 	inc	hl
   1034 7E            [ 7] 2762 	ld	a, (hl)
   1035 B7            [ 4] 2763 	or	a, a
   1036 28 18         [12] 2764 	jr	Z,00108$
                           2765 ;src/gameObject/gameObject.c:462: if(comprobarColisiones1vs1(posx,posy,rocas[i].posx,rocas[i].posy)==hay_Colision){                          
   1038 EB            [ 4] 2766 	ex	de,hl
   1039 23            [ 6] 2767 	inc	hl
   103A 23            [ 6] 2768 	inc	hl
   103B 56            [ 7] 2769 	ld	d, (hl)
   103C C5            [11] 2770 	push	bc
   103D 5F            [ 4] 2771 	ld	e, a
   103E D5            [11] 2772 	push	de
   103F DD 66 05      [19] 2773 	ld	h, 5 (ix)
   1042 DD 6E 04      [19] 2774 	ld	l, 4 (ix)
   1045 E5            [11] 2775 	push	hl
   1046 CDr00r00      [17] 2776 	call	_comprobarColisiones1vs1
   1049 F1            [10] 2777 	pop	af
   104A F1            [10] 2778 	pop	af
   104B C1            [10] 2779 	pop	bc
   104C 2D            [ 4] 2780 	dec	l
   104D 20 01         [12] 2781 	jr	NZ,00108$
                           2782 ;src/gameObject/gameObject.c:463: colision=i;
   104F 48            [ 4] 2783 	ld	c, b
   1050                    2784 00108$:
                           2785 ;src/gameObject/gameObject.c:460: for(u8 i=0;i<RocasMaximas;i++){
   1050 04            [ 4] 2786 	inc	b
   1051 18 C5         [12] 2787 	jr	00107$
   1053                    2788 00105$:
                           2789 ;src/gameObject/gameObject.c:467: return colision;
   1053 69            [ 4] 2790 	ld	l, c
   1054 DD E1         [14] 2791 	pop	ix
   1056 C9            [10] 2792 	ret
                           2793 ;src/gameObject/gameObject.c:470: u8 comprobarPortales(TGameObject* objeto,u8* posx,u8* posy,u8 movimiento,u8* posicion){    
                           2794 ;	---------------------------------
                           2795 ; Function comprobarPortales
                           2796 ; ---------------------------------
   1057                    2797 _comprobarPortales::
   1057 DD E5         [15] 2798 	push	ix
   1059 DD 21 00 00   [14] 2799 	ld	ix,#0
   105D DD 39         [15] 2800 	add	ix,sp
   105F 21 F5 FF      [10] 2801 	ld	hl, #-11
   1062 39            [11] 2802 	add	hl, sp
   1063 F9            [ 6] 2803 	ld	sp, hl
                           2804 ;src/gameObject/gameObject.c:471: if(*posx==P_portal[0].posx ){
   1064 DD 4E 06      [19] 2805 	ld	c,6 (ix)
   1067 DD 46 07      [19] 2806 	ld	b,7 (ix)
   106A 0A            [ 7] 2807 	ld	a, (bc)
   106B DD 77 FA      [19] 2808 	ld	-6 (ix), a
   106E 2Ar00r00      [16] 2809 	ld	hl, (_P_portal)
   1071 E3            [19] 2810 	ex	(sp), hl
   1072 E1            [10] 2811 	pop	hl
   1073 E5            [11] 2812 	push	hl
   1074 23            [ 6] 2813 	inc	hl
   1075 7E            [ 7] 2814 	ld	a, (hl)
   1076 DD 77 F9      [19] 2815 	ld	-7 (ix), a
                           2816 ;src/gameObject/gameObject.c:472: if(*posy==P_portal[0].posy ){
   1079 DD 5E 08      [19] 2817 	ld	e,8 (ix)
   107C DD 56 09      [19] 2818 	ld	d,9 (ix)
                           2819 ;src/gameObject/gameObject.c:473: if(objeto->sprite==sprite_Player){                
   107F DD 7E 04      [19] 2820 	ld	a, 4 (ix)
   1082 DD 77 F7      [19] 2821 	ld	-9 (ix), a
   1085 DD 7E 05      [19] 2822 	ld	a, 5 (ix)
   1088 DD 77 F8      [19] 2823 	ld	-8 (ix), a
                           2824 ;src/gameObject/gameObject.c:474: *posx=P_portal[1].posx;
   108B FD 21r00r00   [14] 2825 	ld	iy, #_P_portal
   108F FD 7E 00      [19] 2826 	ld	a, 0 (iy)
   1092 C6 07         [ 7] 2827 	add	a, #0x07
   1094 DD 77 FC      [19] 2828 	ld	-4 (ix), a
   1097 FD 7E 01      [19] 2829 	ld	a, 1 (iy)
   109A CE 00         [ 7] 2830 	adc	a, #0x00
   109C DD 77 FD      [19] 2831 	ld	-3 (ix), a
                           2832 ;src/gameObject/gameObject.c:473: if(objeto->sprite==sprite_Player){                
   109F DD 7E F7      [19] 2833 	ld	a, -9 (ix)
   10A2 C6 03         [ 7] 2834 	add	a, #0x03
   10A4 DD 77 F7      [19] 2835 	ld	-9 (ix), a
   10A7 DD 7E F8      [19] 2836 	ld	a, -8 (ix)
   10AA CE 00         [ 7] 2837 	adc	a, #0x00
   10AC DD 77 F8      [19] 2838 	ld	-8 (ix), a
                           2839 ;src/gameObject/gameObject.c:474: *posx=P_portal[1].posx;
   10AF DD 7E FC      [19] 2840 	ld	a, -4 (ix)
   10B2 C6 01         [ 7] 2841 	add	a, #0x01
   10B4 DD 77 FE      [19] 2842 	ld	-2 (ix), a
   10B7 DD 7E FD      [19] 2843 	ld	a, -3 (ix)
   10BA CE 00         [ 7] 2844 	adc	a, #0x00
   10BC DD 77 FF      [19] 2845 	ld	-1 (ix), a
                           2846 ;src/gameObject/gameObject.c:471: if(*posx==P_portal[0].posx ){
   10BF DD 7E FA      [19] 2847 	ld	a, -6 (ix)
   10C2 DD 96 F9      [19] 2848 	sub	a, -7 (ix)
   10C5 20 47         [12] 2849 	jr	NZ,00106$
                           2850 ;src/gameObject/gameObject.c:472: if(*posy==P_portal[0].posy ){
   10C7 1A            [ 7] 2851 	ld	a, (de)
   10C8 DD 77 FB      [19] 2852 	ld	-5 (ix), a
   10CB E1            [10] 2853 	pop	hl
   10CC E5            [11] 2854 	push	hl
   10CD 23            [ 6] 2855 	inc	hl
   10CE 23            [ 6] 2856 	inc	hl
   10CF 7E            [ 7] 2857 	ld	a, (hl)
   10D0 DD 77 F5      [19] 2858 	ld	-11 (ix), a
   10D3 DD 7E FB      [19] 2859 	ld	a, -5 (ix)
   10D6 DD 96 F5      [19] 2860 	sub	a, -11 (ix)
   10D9 20 33         [12] 2861 	jr	NZ,00106$
                           2862 ;src/gameObject/gameObject.c:473: if(objeto->sprite==sprite_Player){                
   10DB DD 6E F7      [19] 2863 	ld	l,-9 (ix)
   10DE DD 66 F8      [19] 2864 	ld	h,-8 (ix)
   10E1 6E            [ 7] 2865 	ld	l, (hl)
   10E2 2D            [ 4] 2866 	dec	l
   10E3 20 25         [12] 2867 	jr	NZ,00102$
                           2868 ;src/gameObject/gameObject.c:474: *posx=P_portal[1].posx;
   10E5 DD 6E FE      [19] 2869 	ld	l,-2 (ix)
   10E8 DD 66 FF      [19] 2870 	ld	h,-1 (ix)
   10EB 7E            [ 7] 2871 	ld	a, (hl)
   10EC 02            [ 7] 2872 	ld	(bc), a
                           2873 ;src/gameObject/gameObject.c:475: *posy=P_portal[1].posy;
   10ED FD 21 07 00   [14] 2874 	ld	iy, #0x0007
   10F1 C5            [11] 2875 	push	bc
   10F2 ED 4Br00r00   [20] 2876 	ld	bc, (_P_portal)
   10F6 FD 09         [15] 2877 	add	iy, bc
   10F8 C1            [10] 2878 	pop	bc
   10F9 FD 7E 02      [19] 2879 	ld	a, 2 (iy)
   10FC 12            [ 7] 2880 	ld	(de), a
                           2881 ;src/gameObject/gameObject.c:476: mover1casilla(posx,posy,movimiento);                
   10FD DD 7E 0A      [19] 2882 	ld	a, 10 (ix)
   1100 F5            [11] 2883 	push	af
   1101 33            [ 6] 2884 	inc	sp
   1102 D5            [11] 2885 	push	de
   1103 C5            [11] 2886 	push	bc
   1104 CDr2Dr0E      [17] 2887 	call	_mover1casilla
   1107 F1            [10] 2888 	pop	af
   1108 F1            [10] 2889 	pop	af
   1109 33            [ 6] 2890 	inc	sp
   110A                    2891 00102$:
                           2892 ;src/gameObject/gameObject.c:478: return hay_Colision;               
   110A 2E 01         [ 7] 2893 	ld	l, #0x01
   110C 18 52         [12] 2894 	jr	00113$
   110E                    2895 00106$:
                           2896 ;src/gameObject/gameObject.c:481: if(*posx==P_portal[1].posx){
   110E DD 6E FE      [19] 2897 	ld	l,-2 (ix)
   1111 DD 66 FF      [19] 2898 	ld	h,-1 (ix)
   1114 7E            [ 7] 2899 	ld	a, (hl)
   1115 DD 77 FB      [19] 2900 	ld	-5 (ix), a
   1118 DD 7E FA      [19] 2901 	ld	a, -6 (ix)
   111B DD 96 FB      [19] 2902 	sub	a, -5 (ix)
   111E 20 3E         [12] 2903 	jr	NZ,00112$
                           2904 ;src/gameObject/gameObject.c:482: if(*posy==P_portal[1].posy){
   1120 1A            [ 7] 2905 	ld	a, (de)
   1121 DD 77 FB      [19] 2906 	ld	-5 (ix), a
   1124 DD 6E FC      [19] 2907 	ld	l,-4 (ix)
   1127 DD 66 FD      [19] 2908 	ld	h,-3 (ix)
   112A 23            [ 6] 2909 	inc	hl
   112B 23            [ 6] 2910 	inc	hl
   112C 7E            [ 7] 2911 	ld	a, (hl)
   112D DD 77 FE      [19] 2912 	ld	-2 (ix), a
   1130 DD 7E FB      [19] 2913 	ld	a, -5 (ix)
   1133 DD 96 FE      [19] 2914 	sub	a, -2 (ix)
   1136 20 26         [12] 2915 	jr	NZ,00112$
                           2916 ;src/gameObject/gameObject.c:483: if(objeto->sprite==sprite_Player){
   1138 DD 6E F7      [19] 2917 	ld	l,-9 (ix)
   113B DD 66 F8      [19] 2918 	ld	h,-8 (ix)
   113E 6E            [ 7] 2919 	ld	l, (hl)
   113F 2D            [ 4] 2920 	dec	l
   1140 20 18         [12] 2921 	jr	NZ,00108$
                           2922 ;src/gameObject/gameObject.c:484: *posx=P_portal[0].posx;
   1142 DD 7E F9      [19] 2923 	ld	a, -7 (ix)
   1145 02            [ 7] 2924 	ld	(bc), a
                           2925 ;src/gameObject/gameObject.c:485: *posy=P_portal[0].posy;
   1146 2Ar00r00      [16] 2926 	ld	hl, (_P_portal)
   1149 23            [ 6] 2927 	inc	hl
   114A 23            [ 6] 2928 	inc	hl
   114B 7E            [ 7] 2929 	ld	a, (hl)
   114C 12            [ 7] 2930 	ld	(de), a
                           2931 ;src/gameObject/gameObject.c:486: mover1casilla(posx,posy,movimiento);                
   114D DD 7E 0A      [19] 2932 	ld	a, 10 (ix)
   1150 F5            [11] 2933 	push	af
   1151 33            [ 6] 2934 	inc	sp
   1152 D5            [11] 2935 	push	de
   1153 C5            [11] 2936 	push	bc
   1154 CDr2Dr0E      [17] 2937 	call	_mover1casilla
   1157 F1            [10] 2938 	pop	af
   1158 F1            [10] 2939 	pop	af
   1159 33            [ 6] 2940 	inc	sp
   115A                    2941 00108$:
                           2942 ;src/gameObject/gameObject.c:488: return hay_Colision;                   
   115A 2E 01         [ 7] 2943 	ld	l, #0x01
   115C 18 02         [12] 2944 	jr	00113$
   115E                    2945 00112$:
                           2946 ;src/gameObject/gameObject.c:491: return no_Hay_Colision;        
   115E 2E 00         [ 7] 2947 	ld	l, #0x00
   1160                    2948 00113$:
   1160 DD F9         [10] 2949 	ld	sp, ix
   1162 DD E1         [14] 2950 	pop	ix
   1164 C9            [10] 2951 	ret
                           2952 ;src/gameObject/gameObject.c:493: u8 comprobarPuertas(u8 posx, u8 posy){
                           2953 ;	---------------------------------
                           2954 ; Function comprobarPuertas
                           2955 ; ---------------------------------
   1165                    2956 _comprobarPuertas::
   1165 DD E5         [15] 2957 	push	ix
   1167 DD 21 00 00   [14] 2958 	ld	ix,#0
   116B DD 39         [15] 2959 	add	ix,sp
                           2960 ;src/gameObject/gameObject.c:494: for(u8 i=0;i<PuertasMaximas;i++){
   116D 0E 00         [ 7] 2961 	ld	c, #0x00
   116F                    2962 00106$:
   116F 79            [ 4] 2963 	ld	a, c
   1170 D6 06         [ 7] 2964 	sub	a, #0x06
   1172 30 32         [12] 2965 	jr	NC,00104$
                           2966 ;src/gameObject/gameObject.c:495: if(posx==P_puertas[i].posx && posy==P_puertas[i].posy){
   1174 06 00         [ 7] 2967 	ld	b,#0x00
   1176 69            [ 4] 2968 	ld	l, c
   1177 60            [ 4] 2969 	ld	h, b
   1178 29            [11] 2970 	add	hl, hl
   1179 09            [11] 2971 	add	hl, bc
   117A 29            [11] 2972 	add	hl, hl
   117B 09            [11] 2973 	add	hl, bc
   117C 45            [ 4] 2974 	ld	b, l
   117D 54            [ 4] 2975 	ld	d, h
   117E FD 21r02r00   [14] 2976 	ld	iy, #_P_puertas
   1182 FD 7E 00      [19] 2977 	ld	a, 0 (iy)
   1185 80            [ 4] 2978 	add	a, b
   1186 5F            [ 4] 2979 	ld	e, a
   1187 FD 7E 01      [19] 2980 	ld	a, 1 (iy)
   118A 8A            [ 4] 2981 	adc	a, d
   118B 57            [ 4] 2982 	ld	d, a
   118C 6B            [ 4] 2983 	ld	l, e
   118D 62            [ 4] 2984 	ld	h, d
   118E 23            [ 6] 2985 	inc	hl
   118F DD 7E 04      [19] 2986 	ld	a,4 (ix)
   1192 96            [ 7] 2987 	sub	a,(hl)
   1193 20 0E         [12] 2988 	jr	NZ,00107$
   1195 6B            [ 4] 2989 	ld	l, e
   1196 62            [ 4] 2990 	ld	h, d
   1197 23            [ 6] 2991 	inc	hl
   1198 23            [ 6] 2992 	inc	hl
   1199 DD 7E 05      [19] 2993 	ld	a,5 (ix)
   119C 96            [ 7] 2994 	sub	a,(hl)
   119D 20 04         [12] 2995 	jr	NZ,00107$
                           2996 ;src/gameObject/gameObject.c:496: return P_puertas[i].num;
   119F 1A            [ 7] 2997 	ld	a, (de)
   11A0 6F            [ 4] 2998 	ld	l, a
   11A1 18 05         [12] 2999 	jr	00108$
   11A3                    3000 00107$:
                           3001 ;src/gameObject/gameObject.c:494: for(u8 i=0;i<PuertasMaximas;i++){
   11A3 0C            [ 4] 3002 	inc	c
   11A4 18 C9         [12] 3003 	jr	00106$
   11A6                    3004 00104$:
                           3005 ;src/gameObject/gameObject.c:499: return seguir_En_Nivel;
   11A6 2E 00         [ 7] 3006 	ld	l, #0x00
   11A8                    3007 00108$:
   11A8 DD E1         [14] 3008 	pop	ix
   11AA C9            [10] 3009 	ret
                           3010 ;src/gameObject/gameObject.c:501: u8 comprobarColeccionables(u8 posx, u8 posy ,u8 sprite){
                           3011 ;	---------------------------------
                           3012 ; Function comprobarColeccionables
                           3013 ; ---------------------------------
   11AB                    3014 _comprobarColeccionables::
   11AB DD E5         [15] 3015 	push	ix
   11AD DD 21 00 00   [14] 3016 	ld	ix,#0
   11B1 DD 39         [15] 3017 	add	ix,sp
   11B3 F5            [11] 3018 	push	af
   11B4 F5            [11] 3019 	push	af
                           3020 ;src/gameObject/gameObject.c:502: for(u8 i=0;i<ColeccionablesMaximos;i++){
   11B5 01 00 00      [10] 3021 	ld	bc,#0x0000
   11B8                    3022 00114$:
   11B8 78            [ 4] 3023 	ld	a, b
   11B9 D6 03         [ 7] 3024 	sub	a, #0x03
   11BB D2r4Br12      [10] 3025 	jp	NC, 00112$
                           3026 ;src/gameObject/gameObject.c:503: if(posx==P_col[i].posx && posy==P_col[i].posy){
   11BE 68            [ 4] 3027 	ld	l, b
   11BF 26 00         [ 7] 3028 	ld	h, #0x00
   11C1 29            [11] 3029 	add	hl, hl
   11C2 29            [11] 3030 	add	hl, hl
   11C3 DD 75 FE      [19] 3031 	ld	-2 (ix), l
   11C6 DD 74 FF      [19] 3032 	ld	-1 (ix), h
   11C9 FD 21r04r00   [14] 3033 	ld	iy, #_P_col
   11CD FD 7E 00      [19] 3034 	ld	a, 0 (iy)
   11D0 DD 86 FE      [19] 3035 	add	a, -2 (ix)
   11D3 DD 77 FC      [19] 3036 	ld	-4 (ix), a
   11D6 FD 7E 01      [19] 3037 	ld	a, 1 (iy)
   11D9 DD 8E FF      [19] 3038 	adc	a, -1 (ix)
   11DC DD 77 FD      [19] 3039 	ld	-3 (ix), a
   11DF E1            [10] 3040 	pop	hl
   11E0 E5            [11] 3041 	push	hl
   11E1 23            [ 6] 3042 	inc	hl
   11E2 DD 7E 04      [19] 3043 	ld	a,4 (ix)
   11E5 96            [ 7] 3044 	sub	a,(hl)
   11E6 20 5E         [12] 3045 	jr	NZ,00115$
   11E8 E1            [10] 3046 	pop	hl
   11E9 E5            [11] 3047 	push	hl
   11EA 23            [ 6] 3048 	inc	hl
   11EB 23            [ 6] 3049 	inc	hl
   11EC DD 7E 05      [19] 3050 	ld	a,5 (ix)
   11EF 96            [ 7] 3051 	sub	a,(hl)
   11F0 20 54         [12] 3052 	jr	NZ,00115$
                           3053 ;src/gameObject/gameObject.c:504: if(sprite==sprite_Player){
   11F2 DD 7E 06      [19] 3054 	ld	a, 6 (ix)
   11F5 3D            [ 4] 3055 	dec	a
   11F6 20 4A         [12] 3056 	jr	NZ,00108$
                           3057 ;src/gameObject/gameObject.c:505: P_colList[P_col[i].num]=coleccionable_NOACTIVO;
   11F8 E1            [10] 3058 	pop	hl
   11F9 E5            [11] 3059 	push	hl
   11FA 5E            [ 7] 3060 	ld	e, (hl)
   11FB FD 2Ar0Cr00   [20] 3061 	ld	iy, (_P_colList)
   11FF 16 00         [ 7] 3062 	ld	d,#0x00
   1201 FD 19         [15] 3063 	add	iy, de
   1203 FD 36 00 01   [19] 3064 	ld	0 (iy), #0x01
                           3065 ;src/gameObject/gameObject.c:506: if(P_col[i].sprite==sprite_luz){
   1207 FD 2Ar04r00   [20] 3066 	ld	iy, (_P_col)
   120B DD 5E FE      [19] 3067 	ld	e,-2 (ix)
   120E DD 56 FF      [19] 3068 	ld	d,-1 (ix)
   1211 FD 19         [15] 3069 	add	iy, de
   1213 FD 7E 03      [19] 3070 	ld	a, 3 (iy)
   1216 FE 25         [ 7] 3071 	cp	a, #0x25
   1218 20 08         [12] 3072 	jr	NZ,00105$
                           3073 ;src/gameObject/gameObject.c:507: *P_luz=*P_luz+1;                                                             
   121A 2Ar06r00      [16] 3074 	ld	hl, (_P_luz)
   121D 46            [ 7] 3075 	ld	b, (hl)
   121E 04            [ 4] 3076 	inc	b
   121F 70            [ 7] 3077 	ld	(hl), b
   1220 18 12         [12] 3078 	jr	00106$
   1222                    3079 00105$:
                           3080 ;src/gameObject/gameObject.c:508: }else if(P_col[i].sprite==sprite_amstradTape){                
   1222 D6 2F         [ 7] 3081 	sub	a, #0x2f
   1224 20 08         [12] 3082 	jr	NZ,00102$
                           3083 ;src/gameObject/gameObject.c:509: *P_ams=*P_ams+1;
   1226 2Ar0Ar00      [16] 3084 	ld	hl, (_P_ams)
   1229 46            [ 7] 3085 	ld	b, (hl)
   122A 04            [ 4] 3086 	inc	b
   122B 70            [ 7] 3087 	ld	(hl), b
   122C 18 06         [12] 3088 	jr	00106$
   122E                    3089 00102$:
                           3090 ;src/gameObject/gameObject.c:511: *P_fam=*P_fam+1;
   122E 2Ar08r00      [16] 3091 	ld	hl, (_P_fam)
   1231 46            [ 7] 3092 	ld	b, (hl)
   1232 04            [ 4] 3093 	inc	b
   1233 70            [ 7] 3094 	ld	(hl), b
   1234                    3095 00106$:
                           3096 ;src/gameObject/gameObject.c:513: P_col[i].posx=0;
   1234 69            [ 4] 3097 	ld	l, c
   1235 26 00         [ 7] 3098 	ld	h, #0x00
   1237 29            [11] 3099 	add	hl, hl
   1238 29            [11] 3100 	add	hl, hl
   1239 4D            [ 4] 3101 	ld	c, l
   123A 44            [ 4] 3102 	ld	b, h
   123B 2Ar04r00      [16] 3103 	ld	hl, (_P_col)
   123E 09            [11] 3104 	add	hl, bc
   123F 23            [ 6] 3105 	inc	hl
   1240 36 00         [10] 3106 	ld	(hl), #0x00
   1242                    3107 00108$:
                           3108 ;src/gameObject/gameObject.c:515: return hay_Colision; 
   1242 2E 01         [ 7] 3109 	ld	l, #0x01
   1244 18 07         [12] 3110 	jr	00116$
   1246                    3111 00115$:
                           3112 ;src/gameObject/gameObject.c:502: for(u8 i=0;i<ColeccionablesMaximos;i++){
   1246 04            [ 4] 3113 	inc	b
   1247 48            [ 4] 3114 	ld	c, b
   1248 C3rB8r11      [10] 3115 	jp	00114$
   124B                    3116 00112$:
                           3117 ;src/gameObject/gameObject.c:518: return no_Hay_Colision;
   124B 2E 00         [ 7] 3118 	ld	l, #0x00
   124D                    3119 00116$:
   124D DD F9         [10] 3120 	ld	sp, ix
   124F DD E1         [14] 3121 	pop	ix
   1251 C9            [10] 3122 	ret
                           3123 ;src/gameObject/gameObject.c:521: u8 comprobarEnemigos(u8 posx,u8 posy ,u8 posicion){
                           3124 ;	---------------------------------
                           3125 ; Function comprobarEnemigos
                           3126 ; ---------------------------------
   1252                    3127 _comprobarEnemigos::
   1252 DD E5         [15] 3128 	push	ix
   1254 DD 21 00 00   [14] 3129 	ld	ix,#0
   1258 DD 39         [15] 3130 	add	ix,sp
                           3131 ;src/gameObject/gameObject.c:522: if(posicion==posicion_Izquieda){
   125A DD 7E 06      [19] 3132 	ld	a, 6 (ix)
                           3133 ;src/gameObject/gameObject.c:523: for(u8 i=0;i<enemigosMaximos;i++){
   125D B7            [ 4] 3134 	or	a,a
   125E 20 2B         [12] 3135 	jr	NZ,00128$
   1260 4F            [ 4] 3136 	ld	c,a
   1261                    3137 00113$:
   1261 79            [ 4] 3138 	ld	a, c
   1262 D6 05         [ 7] 3139 	sub	a, #0x05
   1264 30 51         [12] 3140 	jr	NC,00111$
                           3141 ;src/gameObject/gameObject.c:524: if(enemigosIzquierda[i].posx==posx && enemigosIzquierda[i].posy==posy){
   1266 06 00         [ 7] 3142 	ld	b,#0x00
   1268 69            [ 4] 3143 	ld	l, c
   1269 60            [ 4] 3144 	ld	h, b
   126A 29            [11] 3145 	add	hl, hl
   126B 09            [11] 3146 	add	hl, bc
   126C 29            [11] 3147 	add	hl, hl
   126D 09            [11] 3148 	add	hl, bc
   126E 11r00r00      [10] 3149 	ld	de, #_enemigosIzquierda
   1271 19            [11] 3150 	add	hl, de
   1272 5D            [ 4] 3151 	ld	e,l
   1273 54            [ 4] 3152 	ld	d,h
   1274 23            [ 6] 3153 	inc	hl
   1275 DD 7E 04      [19] 3154 	ld	a,4 (ix)
   1278 96            [ 7] 3155 	sub	a,(hl)
   1279 20 0D         [12] 3156 	jr	NZ,00114$
   127B EB            [ 4] 3157 	ex	de,hl
   127C 23            [ 6] 3158 	inc	hl
   127D 23            [ 6] 3159 	inc	hl
   127E DD 7E 05      [19] 3160 	ld	a,5 (ix)
   1281 96            [ 7] 3161 	sub	a,(hl)
   1282 20 04         [12] 3162 	jr	NZ,00114$
                           3163 ;src/gameObject/gameObject.c:525: return hay_Colision;
   1284 2E 01         [ 7] 3164 	ld	l, #0x01
   1286 18 31         [12] 3165 	jr	00118$
   1288                    3166 00114$:
                           3167 ;src/gameObject/gameObject.c:523: for(u8 i=0;i<enemigosMaximos;i++){
   1288 0C            [ 4] 3168 	inc	c
   1289 18 D6         [12] 3169 	jr	00113$
                           3170 ;src/gameObject/gameObject.c:529: for(u8 i=0;i<enemigosMaximos;i++){
   128B                    3171 00128$:
   128B 0E 00         [ 7] 3172 	ld	c, #0x00
   128D                    3173 00116$:
   128D 79            [ 4] 3174 	ld	a, c
   128E D6 05         [ 7] 3175 	sub	a, #0x05
   1290 30 25         [12] 3176 	jr	NC,00111$
                           3177 ;src/gameObject/gameObject.c:530: if(enemigosDerecha[i].posx==posx && enemigosDerecha[i].posy==posy){
   1292 06 00         [ 7] 3178 	ld	b,#0x00
   1294 69            [ 4] 3179 	ld	l, c
   1295 60            [ 4] 3180 	ld	h, b
   1296 29            [11] 3181 	add	hl, hl
   1297 09            [11] 3182 	add	hl, bc
   1298 29            [11] 3183 	add	hl, hl
   1299 09            [11] 3184 	add	hl, bc
   129A 11r00r00      [10] 3185 	ld	de, #_enemigosDerecha
   129D 19            [11] 3186 	add	hl, de
   129E 5D            [ 4] 3187 	ld	e,l
   129F 54            [ 4] 3188 	ld	d,h
   12A0 23            [ 6] 3189 	inc	hl
   12A1 DD 7E 04      [19] 3190 	ld	a,4 (ix)
   12A4 96            [ 7] 3191 	sub	a,(hl)
   12A5 20 0D         [12] 3192 	jr	NZ,00117$
   12A7 EB            [ 4] 3193 	ex	de,hl
   12A8 23            [ 6] 3194 	inc	hl
   12A9 23            [ 6] 3195 	inc	hl
   12AA DD 7E 05      [19] 3196 	ld	a,5 (ix)
   12AD 96            [ 7] 3197 	sub	a,(hl)
   12AE 20 04         [12] 3198 	jr	NZ,00117$
                           3199 ;src/gameObject/gameObject.c:531: return hay_Colision;
   12B0 2E 01         [ 7] 3200 	ld	l, #0x01
   12B2 18 05         [12] 3201 	jr	00118$
   12B4                    3202 00117$:
                           3203 ;src/gameObject/gameObject.c:529: for(u8 i=0;i<enemigosMaximos;i++){
   12B4 0C            [ 4] 3204 	inc	c
   12B5 18 D6         [12] 3205 	jr	00116$
   12B7                    3206 00111$:
                           3207 ;src/gameObject/gameObject.c:535: return no_Hay_Colision;
   12B7 2E 00         [ 7] 3208 	ld	l, #0x00
   12B9                    3209 00118$:
   12B9 DD E1         [14] 3210 	pop	ix
   12BB C9            [10] 3211 	ret
                           3212 	.area _CODE
                           3213 	.area _INITIALIZER
                           3214 	.area _CABS (ABS)
